ARM GAS  /tmp/ccZePa4k.s 			page 1


   1              		.cpu cortex-m7
   2              		.arch armv7e-m
   3              		.fpu fpv5-d16
   4              		.eabi_attribute 28, 1
   5              		.eabi_attribute 20, 1
   6              		.eabi_attribute 21, 1
   7              		.eabi_attribute 23, 3
   8              		.eabi_attribute 24, 1
   9              		.eabi_attribute 25, 1
  10              		.eabi_attribute 26, 1
  11              		.eabi_attribute 30, 2
  12              		.eabi_attribute 34, 1
  13              		.eabi_attribute 18, 4
  14              		.file	"Picologue.cpp"
  15              		.text
  16              	.Ltext0:
  17              		.cfi_sections	.debug_frame
  18              		.section	.text._ZN5daisy9DaisySeedD2Ev,"axG",%progbits,_ZN5daisy9DaisySeedD5Ev,comdat
  19              		.align	1
  20              		.p2align 2,,3
  21              		.weak	_ZN5daisy9DaisySeedD2Ev
  22              		.syntax unified
  23              		.thumb
  24              		.thumb_func
  26              	_ZN5daisy9DaisySeedD2Ev:
  27              	.LVL0:
  28              	.LFB2529:
  29              		.file 1 "../../libDaisy//src/daisy_seed.h"
   1:../../libDaisy//src/daisy_seed.h **** #pragma once
   2:../../libDaisy//src/daisy_seed.h **** #ifndef DSY_SEED_H
   3:../../libDaisy//src/daisy_seed.h **** #define DSY_SEED_H
   4:../../libDaisy//src/daisy_seed.h **** 
   5:../../libDaisy//src/daisy_seed.h **** #include "daisy.h"
   6:../../libDaisy//src/daisy_seed.h **** 
   7:../../libDaisy//src/daisy_seed.h **** //Uncomment this out if you're still using the rev2 hardware
   8:../../libDaisy//src/daisy_seed.h **** //#define SEED_REV2
   9:../../libDaisy//src/daisy_seed.h **** 
  10:../../libDaisy//src/daisy_seed.h **** namespace daisy
  11:../../libDaisy//src/daisy_seed.h **** {
  12:../../libDaisy//src/daisy_seed.h **** /**
  13:../../libDaisy//src/daisy_seed.h ****    @brief This is the higher-level interface for the Daisy board. \n 
  14:../../libDaisy//src/daisy_seed.h ****     All basic peripheral configuration/initialization is setup here. \n
  15:../../libDaisy//src/daisy_seed.h **** 
  16:../../libDaisy//src/daisy_seed.h ****    @ingroup boards
  17:../../libDaisy//src/daisy_seed.h **** */
  18:../../libDaisy//src/daisy_seed.h **** class DaisySeed
  19:../../libDaisy//src/daisy_seed.h **** {
  20:../../libDaisy//src/daisy_seed.h ****   public:
  21:../../libDaisy//src/daisy_seed.h ****     DaisySeed() {}
  22:../../libDaisy//src/daisy_seed.h ****     ~DaisySeed() {}
  30              		.loc 1 22 5 view -0
  31              		.cfi_startproc
  32              		@ args = 0, pretend = 0, frame = 0
  33              		@ frame_needed = 0, uses_anonymous_args = 0
  34              		@ link register save eliminated.
  35              	.LBB318:
  36              	.LBI318:
ARM GAS  /tmp/ccZePa4k.s 			page 2


  37              		.file 2 "../../libDaisy//src/sys/system.h"
   1:../../libDaisy//src/sys/system.h **** #ifndef DSY_SYSTEM_H
   2:../../libDaisy//src/sys/system.h **** #define DSY_SYSTEM_H
   3:../../libDaisy//src/sys/system.h **** 
   4:../../libDaisy//src/sys/system.h **** #ifndef UNIT_TEST // for unit tests, a dummy implementation is provided below
   5:../../libDaisy//src/sys/system.h **** 
   6:../../libDaisy//src/sys/system.h **** #include <cstdint>
   7:../../libDaisy//src/sys/system.h **** #include "per/tim.h"
   8:../../libDaisy//src/sys/system.h **** 
   9:../../libDaisy//src/sys/system.h **** namespace daisy
  10:../../libDaisy//src/sys/system.h **** {
  11:../../libDaisy//src/sys/system.h **** /** A handle for interacting with the Core System. 
  12:../../libDaisy//src/sys/system.h ****  ** This includes the Clock tree, MPU, global DMA initialization,
  13:../../libDaisy//src/sys/system.h ****  ** cache handling, and any other necessary global initiailzation
  14:../../libDaisy//src/sys/system.h ****  **
  15:../../libDaisy//src/sys/system.h ****  ** @author shensley
  16:../../libDaisy//src/sys/system.h ****  ** @ingroup system
  17:../../libDaisy//src/sys/system.h ****  */
  18:../../libDaisy//src/sys/system.h **** class System
  19:../../libDaisy//src/sys/system.h **** {
  20:../../libDaisy//src/sys/system.h ****   public:
  21:../../libDaisy//src/sys/system.h ****     /** Contains settings for initializing the System */
  22:../../libDaisy//src/sys/system.h ****     struct Config
  23:../../libDaisy//src/sys/system.h ****     {
  24:../../libDaisy//src/sys/system.h ****         /** Specifies the system clock frequency that feeds APB/AHB clocks, etc. */
  25:../../libDaisy//src/sys/system.h ****         enum class SysClkFreq
  26:../../libDaisy//src/sys/system.h ****         {
  27:../../libDaisy//src/sys/system.h ****             FREQ_400MHZ,
  28:../../libDaisy//src/sys/system.h ****             FREQ_480MHZ,
  29:../../libDaisy//src/sys/system.h ****         };
  30:../../libDaisy//src/sys/system.h **** 
  31:../../libDaisy//src/sys/system.h ****         /** Method to call on the struct to set to defaults
  32:../../libDaisy//src/sys/system.h ****          ** CPU Freq set to 400MHz
  33:../../libDaisy//src/sys/system.h ****          ** Cache Enabled 
  34:../../libDaisy//src/sys/system.h ****          ** */
  35:../../libDaisy//src/sys/system.h ****         void Defaults()
  36:../../libDaisy//src/sys/system.h ****         {
  37:../../libDaisy//src/sys/system.h ****             cpu_freq    = SysClkFreq::FREQ_400MHZ;
  38:../../libDaisy//src/sys/system.h ****             use_dcache  = true;
  39:../../libDaisy//src/sys/system.h ****             use_icache  = true;
  40:../../libDaisy//src/sys/system.h ****             skip_clocks = false;
  41:../../libDaisy//src/sys/system.h ****         }
  42:../../libDaisy//src/sys/system.h **** 
  43:../../libDaisy//src/sys/system.h ****         /** Method to call on the struct to set to boost mode:
  44:../../libDaisy//src/sys/system.h ****          ** CPU Freq set to 480MHz
  45:../../libDaisy//src/sys/system.h ****          ** Cache Enabled 
  46:../../libDaisy//src/sys/system.h ****          ** */
  47:../../libDaisy//src/sys/system.h ****         void Boost()
  48:../../libDaisy//src/sys/system.h ****         {
  49:../../libDaisy//src/sys/system.h ****             cpu_freq    = SysClkFreq::FREQ_480MHZ;
  50:../../libDaisy//src/sys/system.h ****             use_dcache  = true;
  51:../../libDaisy//src/sys/system.h ****             use_icache  = true;
  52:../../libDaisy//src/sys/system.h ****             skip_clocks = false;
  53:../../libDaisy//src/sys/system.h ****         }
  54:../../libDaisy//src/sys/system.h **** 
  55:../../libDaisy//src/sys/system.h ****         SysClkFreq cpu_freq;
  56:../../libDaisy//src/sys/system.h ****         bool       use_dcache;
ARM GAS  /tmp/ccZePa4k.s 			page 3


  57:../../libDaisy//src/sys/system.h ****         bool       use_icache;
  58:../../libDaisy//src/sys/system.h ****         bool       skip_clocks;
  59:../../libDaisy//src/sys/system.h ****     };
  60:../../libDaisy//src/sys/system.h **** 
  61:../../libDaisy//src/sys/system.h ****     /** Describes the different regions of memory available to the Daisy
  62:../../libDaisy//src/sys/system.h ****      * 
  63:../../libDaisy//src/sys/system.h ****      */
  64:../../libDaisy//src/sys/system.h ****     enum MemoryRegion
  65:../../libDaisy//src/sys/system.h ****     {
  66:../../libDaisy//src/sys/system.h ****         INTERNAL_FLASH = 0,
  67:../../libDaisy//src/sys/system.h ****         ITCMRAM,
  68:../../libDaisy//src/sys/system.h ****         DTCMRAM,
  69:../../libDaisy//src/sys/system.h ****         SRAM_D1,
  70:../../libDaisy//src/sys/system.h ****         SRAM_D2,
  71:../../libDaisy//src/sys/system.h ****         SRAM_D3,
  72:../../libDaisy//src/sys/system.h ****         SDRAM,
  73:../../libDaisy//src/sys/system.h ****         QSPI,
  74:../../libDaisy//src/sys/system.h ****         INVALID_ADDRESS,
  75:../../libDaisy//src/sys/system.h ****     };
  76:../../libDaisy//src/sys/system.h **** 
  77:../../libDaisy//src/sys/system.h ****     System() {}
  78:../../libDaisy//src/sys/system.h ****     ~System() {}
  38              		.loc 2 78 5 view .LVU1
  39              		.loc 2 78 5 is_stmt 0 view .LVU2
  40              	.LBE318:
  41              	.LBB319:
  42              	.LBI319:
  43              		.file 3 "../../libDaisy//src/hid/usb.h"
   1:../../libDaisy//src/hid/usb.h **** #pragma once
   2:../../libDaisy//src/hid/usb.h **** #ifndef DSY_HID_USB_H
   3:../../libDaisy//src/hid/usb.h **** #define DSY_HID_USB_H
   4:../../libDaisy//src/hid/usb.h **** #include <stdint.h>
   5:../../libDaisy//src/hid/usb.h **** #include <stdlib.h>
   6:../../libDaisy//src/hid/usb.h **** 
   7:../../libDaisy//src/hid/usb.h **** namespace daisy
   8:../../libDaisy//src/hid/usb.h **** /** @addtogroup human_interface
   9:../../libDaisy//src/hid/usb.h ****     @{
  10:../../libDaisy//src/hid/usb.h **** */
  11:../../libDaisy//src/hid/usb.h **** 
  12:../../libDaisy//src/hid/usb.h **** {
  13:../../libDaisy//src/hid/usb.h **** /** 
  14:../../libDaisy//src/hid/usb.h ****     @brief Interface for initializing and using the USB Peripherals on the daisy
  15:../../libDaisy//src/hid/usb.h ****     @author Stephen Hensley
  16:../../libDaisy//src/hid/usb.h ****     @date December 2019
  17:../../libDaisy//src/hid/usb.h **** */
  18:../../libDaisy//src/hid/usb.h **** class UsbHandle
  19:../../libDaisy//src/hid/usb.h **** {
  20:../../libDaisy//src/hid/usb.h ****   public:
  21:../../libDaisy//src/hid/usb.h ****     /** Return values for USBHandle Functions */
  22:../../libDaisy//src/hid/usb.h ****     enum class Result
  23:../../libDaisy//src/hid/usb.h ****     {
  24:../../libDaisy//src/hid/usb.h ****         OK,
  25:../../libDaisy//src/hid/usb.h ****         ERR,
  26:../../libDaisy//src/hid/usb.h ****     };
  27:../../libDaisy//src/hid/usb.h **** 
  28:../../libDaisy//src/hid/usb.h ****     /** Specified which of the two USB Peripherals to initialize. */
  29:../../libDaisy//src/hid/usb.h ****     enum UsbPeriph
ARM GAS  /tmp/ccZePa4k.s 			page 4


  30:../../libDaisy//src/hid/usb.h ****     {
  31:../../libDaisy//src/hid/usb.h ****         FS_INTERNAL, /**< Internal pin */
  32:../../libDaisy//src/hid/usb.h ****         FS_EXTERNAL, /**< FS External D+ pin is Pin 38 (GPIO32). FS External D- pin is Pin 37 (GPIO
  33:../../libDaisy//src/hid/usb.h ****         FS_BOTH,     /**< Both */
  34:../../libDaisy//src/hid/usb.h ****     };
  35:../../libDaisy//src/hid/usb.h **** 
  36:../../libDaisy//src/hid/usb.h **** 
  37:../../libDaisy//src/hid/usb.h ****     /** Function called upon reception of a buffer */
  38:../../libDaisy//src/hid/usb.h ****     typedef void (*ReceiveCallback)(uint8_t* buff, uint32_t* len);
  39:../../libDaisy//src/hid/usb.h **** 
  40:../../libDaisy//src/hid/usb.h ****     UsbHandle() {}
  41:../../libDaisy//src/hid/usb.h **** 
  42:../../libDaisy//src/hid/usb.h ****     ~UsbHandle() {}
  44              		.loc 3 42 5 is_stmt 1 view .LVU3
  45              		.loc 3 42 5 is_stmt 0 view .LVU4
  46              	.LBE319:
  47              	.LBB320:
  48              	.LBI320:
  49              		.file 4 "../../libDaisy//src/per/adc.h"
   1:../../libDaisy//src/per/adc.h **** #pragma once
   2:../../libDaisy//src/per/adc.h **** #ifndef DSY_ADC_H
   3:../../libDaisy//src/per/adc.h **** #define DSY_ADC_H /**< Macro */
   4:../../libDaisy//src/per/adc.h **** #include <stdint.h>
   5:../../libDaisy//src/per/adc.h **** #include <stdlib.h>
   6:../../libDaisy//src/per/adc.h **** #include "daisy_core.h"
   7:../../libDaisy//src/per/adc.h **** #include "per/gpio.h"
   8:../../libDaisy//src/per/adc.h **** 
   9:../../libDaisy//src/per/adc.h **** #define DSY_ADC_MAX_CHANNELS 16 /**< Maximum number of ADC channels */
  10:../../libDaisy//src/per/adc.h **** 
  11:../../libDaisy//src/per/adc.h **** namespace daisy
  12:../../libDaisy//src/per/adc.h **** {
  13:../../libDaisy//src/per/adc.h **** /** @addtogroup per_analog
  14:../../libDaisy//src/per/adc.h ****     @{
  15:../../libDaisy//src/per/adc.h **** */
  16:../../libDaisy//src/per/adc.h **** 
  17:../../libDaisy//src/per/adc.h **** /* While there may not be many configuration options here,
  18:../../libDaisy//src/per/adc.h **** using a struct like this allows us to add more configuration
  19:../../libDaisy//src/per/adc.h **** later without breaking existing functionality.
  20:../../libDaisy//src/per/adc.h **** */
  21:../../libDaisy//src/per/adc.h **** 
  22:../../libDaisy//src/per/adc.h **** /** @brief   Configuration Structure for an ADC Channel 
  23:../../libDaisy//src/per/adc.h ****  *  @details This can be used to configure a a single input, 
  24:../../libDaisy//src/per/adc.h ****  *           or a multiplexed input, allowing up to 8 inputs on 
  25:../../libDaisy//src/per/adc.h ****  *           one channel.
  26:../../libDaisy//src/per/adc.h ****  *  @note    Sharing data lines to multiple muxes _is_ possible, but
  27:../../libDaisy//src/per/adc.h ****  *           each channel sharing data lines must be set to the maximum
  28:../../libDaisy//src/per/adc.h ****  *           number of channels, even if some multiplexers have fewer
  29:../../libDaisy//src/per/adc.h ****  *           inputs connected.
  30:../../libDaisy//src/per/adc.h **** */
  31:../../libDaisy//src/per/adc.h **** struct AdcChannelConfig
  32:../../libDaisy//src/per/adc.h **** {
  33:../../libDaisy//src/per/adc.h ****     /** Which pin to use for multiplexing */
  34:../../libDaisy//src/per/adc.h ****     enum MuxPin
  35:../../libDaisy//src/per/adc.h ****     {
  36:../../libDaisy//src/per/adc.h ****         MUX_SEL_0,    /**< & */
  37:../../libDaisy//src/per/adc.h ****         MUX_SEL_1,    /**< & */
  38:../../libDaisy//src/per/adc.h ****         MUX_SEL_2,    /**< & */
ARM GAS  /tmp/ccZePa4k.s 			page 5


  39:../../libDaisy//src/per/adc.h ****         MUX_SEL_LAST, /**< & */
  40:../../libDaisy//src/per/adc.h ****     };
  41:../../libDaisy//src/per/adc.h **** 
  42:../../libDaisy//src/per/adc.h ****     /** Initializes a single ADC pin as an ADC. 
  43:../../libDaisy//src/per/adc.h ****     \param pin Pin to init.
  44:../../libDaisy//src/per/adc.h ****      */
  45:../../libDaisy//src/per/adc.h ****     void InitSingle(dsy_gpio_pin pin);
  46:../../libDaisy//src/per/adc.h **** 
  47:../../libDaisy//src/per/adc.h ****     /** 
  48:../../libDaisy//src/per/adc.h ****     Initializes a single ADC pin as a Multiplexed ADC.
  49:../../libDaisy//src/per/adc.h ****     Requires a CD405X Multiplexer connected to the pin.
  50:../../libDaisy//src/per/adc.h ****     You only need to supply the mux pins that are required,
  51:../../libDaisy//src/per/adc.h ****     e.g. a 4052 mux would only require mux_0 and mux_1.
  52:../../libDaisy//src/per/adc.h ****     Internal Callbacks handle the pin addressing.
  53:../../libDaisy//src/per/adc.h ****     \param mux_channels must be 1-8
  54:../../libDaisy//src/per/adc.h ****     \param mux_0 First mux pin
  55:../../libDaisy//src/per/adc.h ****     \param mux_1 Second mux pin
  56:../../libDaisy//src/per/adc.h ****     \param mux_2 Third mux pin
  57:../../libDaisy//src/per/adc.h ****     \param adc_pin &
  58:../../libDaisy//src/per/adc.h ****     */
  59:../../libDaisy//src/per/adc.h ****     void InitMux(dsy_gpio_pin adc_pin,
  60:../../libDaisy//src/per/adc.h ****                  size_t       mux_channels,
  61:../../libDaisy//src/per/adc.h ****                  dsy_gpio_pin mux_0,
  62:../../libDaisy//src/per/adc.h ****                  dsy_gpio_pin mux_1 = {DSY_GPIOX, 0},
  63:../../libDaisy//src/per/adc.h ****                  dsy_gpio_pin mux_2 = {DSY_GPIOX, 0});
  64:../../libDaisy//src/per/adc.h **** 
  65:../../libDaisy//src/per/adc.h ****     dsy_gpio pin_;                   /**< & */
  66:../../libDaisy//src/per/adc.h ****     dsy_gpio mux_pin_[MUX_SEL_LAST]; /**< & */
  67:../../libDaisy//src/per/adc.h ****     uint8_t  mux_channels_;          /**< & */
  68:../../libDaisy//src/per/adc.h **** };
  69:../../libDaisy//src/per/adc.h **** 
  70:../../libDaisy//src/per/adc.h **** /**
  71:../../libDaisy//src/per/adc.h ****    @brief Handler for analog to digital conversion
  72:../../libDaisy//src/per/adc.h **** */
  73:../../libDaisy//src/per/adc.h **** class AdcHandle
  74:../../libDaisy//src/per/adc.h **** {
  75:../../libDaisy//src/per/adc.h ****   public:
  76:../../libDaisy//src/per/adc.h ****     /** Supported oversampling amounts */
  77:../../libDaisy//src/per/adc.h ****     enum OverSampling
  78:../../libDaisy//src/per/adc.h ****     {
  79:../../libDaisy//src/per/adc.h ****         OVS_NONE, /**< & */
  80:../../libDaisy//src/per/adc.h ****         OVS_4,    /**< & */
  81:../../libDaisy//src/per/adc.h ****         OVS_8,    /**< & */
  82:../../libDaisy//src/per/adc.h ****         OVS_16,   /**< & */
  83:../../libDaisy//src/per/adc.h ****         OVS_32,   /**< & */
  84:../../libDaisy//src/per/adc.h ****         OVS_64,   /**< & */
  85:../../libDaisy//src/per/adc.h ****         OVS_128,  /**< & */
  86:../../libDaisy//src/per/adc.h ****         OVS_256,  /**< & */
  87:../../libDaisy//src/per/adc.h ****         OVS_512,  /**< & */
  88:../../libDaisy//src/per/adc.h ****         OVS_1024, /**< & */
  89:../../libDaisy//src/per/adc.h ****         OVS_LAST, /**< & */
  90:../../libDaisy//src/per/adc.h ****     };
  91:../../libDaisy//src/per/adc.h **** 
  92:../../libDaisy//src/per/adc.h ****     AdcHandle() {}
  93:../../libDaisy//src/per/adc.h ****     ~AdcHandle() {}
  50              		.loc 4 93 5 is_stmt 1 view .LVU5
  51              		.loc 4 93 5 is_stmt 0 view .LVU6
ARM GAS  /tmp/ccZePa4k.s 			page 6


  52              	.LBE320:
  53              	.LBB321:
  54              	.LBI321:
  55              		.file 5 "../../libDaisy//src/hid/audio.h"
   1:../../libDaisy//src/hid/audio.h **** #ifndef DSY_AUDIO_H
   2:../../libDaisy//src/hid/audio.h **** #define DSY_AUDIO_H /**< & */
   3:../../libDaisy//src/hid/audio.h **** 
   4:../../libDaisy//src/hid/audio.h **** #include "per/sai.h"
   5:../../libDaisy//src/hid/audio.h **** 
   6:../../libDaisy//src/hid/audio.h **** namespace daisy
   7:../../libDaisy//src/hid/audio.h **** {
   8:../../libDaisy//src/hid/audio.h **** /** @brief Audio Engine Handle
   9:../../libDaisy//src/hid/audio.h ****  *  @ingroup audio 
  10:../../libDaisy//src/hid/audio.h ****  *  @details This class allows for higher level access to an audio engine.
  11:../../libDaisy//src/hid/audio.h ****  *           If you're using a SOM like the DaisySeed or DaisyPatchSM (or any 
  12:../../libDaisy//src/hid/audio.h ****  *            board that includes one of those objects) then the intialization
  13:../../libDaisy//src/hid/audio.h ****  *            is already taken  care of.
  14:../../libDaisy//src/hid/audio.h ****  *           If you're setting up your own custom hardware, or need to make changes
  15:../../libDaisy//src/hid/audio.h ****  *           you will have to take the following steps:
  16:../../libDaisy//src/hid/audio.h ****  *             1. Create and Initialize an SaiHandle or two depending on your requirements
  17:../../libDaisy//src/hid/audio.h ****  *             2. Initialize the Audio Handle with the desired settings and the Initialized SaiHand
  18:../../libDaisy//src/hid/audio.h ****  *             3. If the connected codec requires special configuration or initialization, do so
  19:../../libDaisy//src/hid/audio.h ****  *             4. Write a callback method using either the AudioCallback or the InterleavingAudioCa
  20:../../libDaisy//src/hid/audio.h ****  *             5. Start the Audio using one of the StartAudio function
  21:../../libDaisy//src/hid/audio.h ****  */
  22:../../libDaisy//src/hid/audio.h **** class AudioHandle
  23:../../libDaisy//src/hid/audio.h **** {
  24:../../libDaisy//src/hid/audio.h ****   public:
  25:../../libDaisy//src/hid/audio.h ****     /** Manually configurable details about the Audio Engine */
  26:../../libDaisy//src/hid/audio.h ****     /** TODO: Figure out how to get samplerate in here. */
  27:../../libDaisy//src/hid/audio.h ****     struct Config
  28:../../libDaisy//src/hid/audio.h ****     {
  29:../../libDaisy//src/hid/audio.h ****         /** number of samples to process per callback */
  30:../../libDaisy//src/hid/audio.h ****         size_t blocksize;
  31:../../libDaisy//src/hid/audio.h **** 
  32:../../libDaisy//src/hid/audio.h ****         /**< Sample rate of audio */
  33:../../libDaisy//src/hid/audio.h ****         SaiHandle::Config::SampleRate samplerate;
  34:../../libDaisy//src/hid/audio.h **** 
  35:../../libDaisy//src/hid/audio.h ****         /** factor for adjustment before and after callback for hardware that may have extra headro
  36:../../libDaisy//src/hid/audio.h ****         float postgain;
  37:../../libDaisy//src/hid/audio.h **** 
  38:../../libDaisy//src/hid/audio.h ****         /** factor for additional one-sided compensation to audio path for hardware that may
  39:../../libDaisy//src/hid/audio.h ****          *  have unequal input/output ranges
  40:../../libDaisy//src/hid/audio.h ****          */
  41:../../libDaisy//src/hid/audio.h ****         float output_compensation;
  42:../../libDaisy//src/hid/audio.h **** 
  43:../../libDaisy//src/hid/audio.h ****         /** Sets default values for config struct */
  44:../../libDaisy//src/hid/audio.h ****         Config()
  45:../../libDaisy//src/hid/audio.h ****         : blocksize(48),
  46:../../libDaisy//src/hid/audio.h ****           samplerate(SaiHandle::Config::SampleRate::SAI_48KHZ),
  47:../../libDaisy//src/hid/audio.h ****           postgain(1.f),
  48:../../libDaisy//src/hid/audio.h ****           output_compensation(1.f)
  49:../../libDaisy//src/hid/audio.h ****         {
  50:../../libDaisy//src/hid/audio.h ****         }
  51:../../libDaisy//src/hid/audio.h ****     };
  52:../../libDaisy//src/hid/audio.h **** 
  53:../../libDaisy//src/hid/audio.h ****     enum class Result
ARM GAS  /tmp/ccZePa4k.s 			page 7


  54:../../libDaisy//src/hid/audio.h ****     {
  55:../../libDaisy//src/hid/audio.h ****         OK,
  56:../../libDaisy//src/hid/audio.h ****         ERR,
  57:../../libDaisy//src/hid/audio.h ****     };
  58:../../libDaisy//src/hid/audio.h **** 
  59:../../libDaisy//src/hid/audio.h ****     /** Non-Interleaving input buffer
  60:../../libDaisy//src/hid/audio.h ****      * Buffer arranged by float[chn][sample] 
  61:../../libDaisy//src/hid/audio.h ****      * const so that the user can't modify the input
  62:../../libDaisy//src/hid/audio.h ****      */
  63:../../libDaisy//src/hid/audio.h ****     typedef const float* const* InputBuffer;
  64:../../libDaisy//src/hid/audio.h **** 
  65:../../libDaisy//src/hid/audio.h ****     /** Non-Interleaving output buffer
  66:../../libDaisy//src/hid/audio.h ****      * Arranged by float[chn][sample] 
  67:../../libDaisy//src/hid/audio.h ****      */
  68:../../libDaisy//src/hid/audio.h ****     typedef float** OutputBuffer;
  69:../../libDaisy//src/hid/audio.h **** 
  70:../../libDaisy//src/hid/audio.h ****     /** Type for a Non-Interleaving audio callback 
  71:../../libDaisy//src/hid/audio.h ****      * Non-Interleaving audio callbacks in daisy will be of this type
  72:../../libDaisy//src/hid/audio.h ****      */
  73:../../libDaisy//src/hid/audio.h ****     typedef void (*AudioCallback)(InputBuffer  in,
  74:../../libDaisy//src/hid/audio.h ****                                   OutputBuffer out,
  75:../../libDaisy//src/hid/audio.h ****                                   size_t       size);
  76:../../libDaisy//src/hid/audio.h **** 
  77:../../libDaisy//src/hid/audio.h ****     /** Interleaving Input buffer
  78:../../libDaisy//src/hid/audio.h ****      ** audio is prepared as { L0, R0, L1, R1, . . . LN, RN }]
  79:../../libDaisy//src/hid/audio.h ****      ** this is const, as the user shouldn't modify it
  80:../../libDaisy//src/hid/audio.h ****     */
  81:../../libDaisy//src/hid/audio.h ****     typedef const float* InterleavingInputBuffer;
  82:../../libDaisy//src/hid/audio.h **** 
  83:../../libDaisy//src/hid/audio.h ****     /** Interleaving Output buffer 
  84:../../libDaisy//src/hid/audio.h ****      ** audio is prepared as { L0, R0, L1, R1, . . . LN, RN }
  85:../../libDaisy//src/hid/audio.h ****     */
  86:../../libDaisy//src/hid/audio.h ****     typedef float* InterleavingOutputBuffer;
  87:../../libDaisy//src/hid/audio.h **** 
  88:../../libDaisy//src/hid/audio.h ****     /** Interleaving Audio Callback 
  89:../../libDaisy//src/hid/audio.h ****      * Interleaving audio callbacks in daisy must be of this type
  90:../../libDaisy//src/hid/audio.h ****      */
  91:../../libDaisy//src/hid/audio.h ****     typedef void (*InterleavingAudioCallback)(InterleavingInputBuffer  in,
  92:../../libDaisy//src/hid/audio.h ****                                               InterleavingOutputBuffer out,
  93:../../libDaisy//src/hid/audio.h ****                                               size_t                   size);
  94:../../libDaisy//src/hid/audio.h **** 
  95:../../libDaisy//src/hid/audio.h ****     AudioHandle() : pimpl_(nullptr) {}
  96:../../libDaisy//src/hid/audio.h ****     ~AudioHandle() {}
  56              		.loc 5 96 5 is_stmt 1 view .LVU7
  57              		.loc 5 96 5 is_stmt 0 view .LVU8
  58              	.LBE321:
  59              		.loc 1 22 19 view .LVU9
  60 0000 7047     		bx	lr
  61              		.cfi_endproc
  62              	.LFE2529:
  64              		.weak	_ZN5daisy9DaisySeedD1Ev
  65              		.thumb_set _ZN5daisy9DaisySeedD1Ev,_ZN5daisy9DaisySeedD2Ev
  66 0002 00BF     		.section	.text._ZN5daisy11OledDisplayINS_13SSD130xDriverILj128ELj64ENS_24SSD130x4WireSpiTransportE
  67              		.align	1
  68              		.p2align 2,,3
  69              		.weak	_ZN5daisy11OledDisplayINS_13SSD130xDriverILj128ELj64ENS_24SSD130x4WireSpiTransportEEEED2Ev
  70              		.syntax unified
ARM GAS  /tmp/ccZePa4k.s 			page 8


  71              		.thumb
  72              		.thumb_func
  74              	_ZN5daisy11OledDisplayINS_13SSD130xDriverILj128ELj64ENS_24SSD130x4WireSpiTransportEEEED2Ev:
  75              	.LVL1:
  76              	.LFB2595:
  77              		.file 6 "../../libDaisy//src/hid/disp/oled_display.h"
   1:../../libDaisy//src/hid/disp/oled_display.h **** #pragma once
   2:../../libDaisy//src/hid/disp/oled_display.h **** #ifndef DSY_OLED_DISPLAY_H
   3:../../libDaisy//src/hid/disp/oled_display.h **** #define DSY_OLED_DISPLAY_H /**< Macro */
   4:../../libDaisy//src/hid/disp/oled_display.h **** 
   5:../../libDaisy//src/hid/disp/oled_display.h **** #include "display.h"
   6:../../libDaisy//src/hid/disp/oled_display.h **** 
   7:../../libDaisy//src/hid/disp/oled_display.h **** namespace daisy
   8:../../libDaisy//src/hid/disp/oled_display.h **** {
   9:../../libDaisy//src/hid/disp/oled_display.h **** /** 
  10:../../libDaisy//src/hid/disp/oled_display.h ****  * This class is for drawing to a monochrome OLED display. 
  11:../../libDaisy//src/hid/disp/oled_display.h ****  * @ingroup device
  12:../../libDaisy//src/hid/disp/oled_display.h **** */
  13:../../libDaisy//src/hid/disp/oled_display.h **** template <typename DisplayDriver>
  14:../../libDaisy//src/hid/disp/oled_display.h **** class OledDisplay : public OneBitGraphicsDisplayImpl<OledDisplay<DisplayDriver>>
  15:../../libDaisy//src/hid/disp/oled_display.h **** {
  16:../../libDaisy//src/hid/disp/oled_display.h ****   public:
  17:../../libDaisy//src/hid/disp/oled_display.h ****     OledDisplay() {}
  18:../../libDaisy//src/hid/disp/oled_display.h ****     virtual ~OledDisplay() {}
  78              		.loc 6 18 13 is_stmt 1 view -0
  79              		.cfi_startproc
  80              		@ args = 0, pretend = 0, frame = 0
  81              		@ frame_needed = 0, uses_anonymous_args = 0
  82              		@ link register save eliminated.
  83              	.LBB322:
  84              	.LBI322:
  85              		.file 7 "../../libDaisy//src/hid/disp/display.h"
   1:../../libDaisy//src/hid/disp/display.h **** #pragma once
   2:../../libDaisy//src/hid/disp/display.h **** #ifndef DSY_DISPLAY_H
   3:../../libDaisy//src/hid/disp/display.h **** #define DSY_DISPLAY_H /**< Macro */
   4:../../libDaisy//src/hid/disp/display.h **** #include <cmath>
   5:../../libDaisy//src/hid/disp/display.h **** #include "util/oled_fonts.h"
   6:../../libDaisy//src/hid/disp/display.h **** #include "daisy_core.h"
   7:../../libDaisy//src/hid/disp/display.h **** #include "graphics_common.h"
   8:../../libDaisy//src/hid/disp/display.h **** 
   9:../../libDaisy//src/hid/disp/display.h **** #ifndef deg2rad
  10:../../libDaisy//src/hid/disp/display.h **** #define deg2rad(deg) ((deg)*3.141592 / 180.0)
  11:../../libDaisy//src/hid/disp/display.h **** #endif
  12:../../libDaisy//src/hid/disp/display.h **** 
  13:../../libDaisy//src/hid/disp/display.h **** namespace daisy
  14:../../libDaisy//src/hid/disp/display.h **** {
  15:../../libDaisy//src/hid/disp/display.h **** /** 
  16:../../libDaisy//src/hid/disp/display.h ****  * This interface is used as a base class for all types of 1bit-per-pixel
  17:../../libDaisy//src/hid/disp/display.h ****  * graphics displays.
  18:../../libDaisy//src/hid/disp/display.h **** */
  19:../../libDaisy//src/hid/disp/display.h **** class OneBitGraphicsDisplay
  20:../../libDaisy//src/hid/disp/display.h **** {
  21:../../libDaisy//src/hid/disp/display.h ****   public:
  22:../../libDaisy//src/hid/disp/display.h ****     OneBitGraphicsDisplay() {}
  23:../../libDaisy//src/hid/disp/display.h ****     virtual ~OneBitGraphicsDisplay() {}
  24:../../libDaisy//src/hid/disp/display.h **** 
  25:../../libDaisy//src/hid/disp/display.h ****     virtual uint16_t Height() const = 0;
ARM GAS  /tmp/ccZePa4k.s 			page 9


  26:../../libDaisy//src/hid/disp/display.h ****     virtual uint16_t Width() const  = 0;
  27:../../libDaisy//src/hid/disp/display.h **** 
  28:../../libDaisy//src/hid/disp/display.h ****     Rectangle GetBounds() const
  29:../../libDaisy//src/hid/disp/display.h ****     {
  30:../../libDaisy//src/hid/disp/display.h ****         return Rectangle(int16_t(Width()), int16_t(Height()));
  31:../../libDaisy//src/hid/disp/display.h ****     }
  32:../../libDaisy//src/hid/disp/display.h **** 
  33:../../libDaisy//src/hid/disp/display.h **** 
  34:../../libDaisy//src/hid/disp/display.h ****     size_t CurrentX() { return currentX_; };
  35:../../libDaisy//src/hid/disp/display.h ****     size_t CurrentY() { return currentY_; };
  36:../../libDaisy//src/hid/disp/display.h **** 
  37:../../libDaisy//src/hid/disp/display.h ****     /** 
  38:../../libDaisy//src/hid/disp/display.h ****     Fills the entire display with either on/off.
  39:../../libDaisy//src/hid/disp/display.h ****     \param on Sets on or off.
  40:../../libDaisy//src/hid/disp/display.h ****     */
  41:../../libDaisy//src/hid/disp/display.h ****     virtual void Fill(bool on) = 0;
  42:../../libDaisy//src/hid/disp/display.h **** 
  43:../../libDaisy//src/hid/disp/display.h ****     /**
  44:../../libDaisy//src/hid/disp/display.h ****     Sets the pixel at the specified coordinate to be on/off.
  45:../../libDaisy//src/hid/disp/display.h ****     \param x   x Coordinate
  46:../../libDaisy//src/hid/disp/display.h ****     \param y   y coordinate
  47:../../libDaisy//src/hid/disp/display.h ****     \param on  on or off
  48:../../libDaisy//src/hid/disp/display.h ****     */
  49:../../libDaisy//src/hid/disp/display.h ****     virtual void DrawPixel(uint_fast8_t x, uint_fast8_t y, bool on) = 0;
  50:../../libDaisy//src/hid/disp/display.h **** 
  51:../../libDaisy//src/hid/disp/display.h ****     /**
  52:../../libDaisy//src/hid/disp/display.h ****     Draws a line from (x1, y1) to (y1, y2)
  53:../../libDaisy//src/hid/disp/display.h ****     \param x1  x Coordinate of the starting point
  54:../../libDaisy//src/hid/disp/display.h ****     \param y1  y Coordinate of the starting point
  55:../../libDaisy//src/hid/disp/display.h ****     \param x2  x Coordinate of the ending point
  56:../../libDaisy//src/hid/disp/display.h ****     \param y2  y Coordinate of the ending point
  57:../../libDaisy//src/hid/disp/display.h ****     \param on  on or off
  58:../../libDaisy//src/hid/disp/display.h ****     */
  59:../../libDaisy//src/hid/disp/display.h ****     virtual void DrawLine(uint_fast8_t x1,
  60:../../libDaisy//src/hid/disp/display.h ****                           uint_fast8_t y1,
  61:../../libDaisy//src/hid/disp/display.h ****                           uint_fast8_t x2,
  62:../../libDaisy//src/hid/disp/display.h ****                           uint_fast8_t y2,
  63:../../libDaisy//src/hid/disp/display.h ****                           bool         on)
  64:../../libDaisy//src/hid/disp/display.h ****         = 0;
  65:../../libDaisy//src/hid/disp/display.h **** 
  66:../../libDaisy//src/hid/disp/display.h ****     /**
  67:../../libDaisy//src/hid/disp/display.h ****     Draws a rectangle based on two coordinates.
  68:../../libDaisy//src/hid/disp/display.h ****     \param x1 x Coordinate of the first point
  69:../../libDaisy//src/hid/disp/display.h ****     \param y1 y Coordinate of the first point
  70:../../libDaisy//src/hid/disp/display.h ****     \param x2 x Coordinate of the second point
  71:../../libDaisy//src/hid/disp/display.h ****     \param y2 y Coordinate of the second point
  72:../../libDaisy//src/hid/disp/display.h ****     \param on on or off
  73:../../libDaisy//src/hid/disp/display.h ****     \param fill fill the rectangle or draw only the outline
  74:../../libDaisy//src/hid/disp/display.h ****     */
  75:../../libDaisy//src/hid/disp/display.h ****     virtual void DrawRect(uint_fast8_t x1,
  76:../../libDaisy//src/hid/disp/display.h ****                           uint_fast8_t y1,
  77:../../libDaisy//src/hid/disp/display.h ****                           uint_fast8_t x2,
  78:../../libDaisy//src/hid/disp/display.h ****                           uint_fast8_t y2,
  79:../../libDaisy//src/hid/disp/display.h ****                           bool         on,
  80:../../libDaisy//src/hid/disp/display.h ****                           bool         fill = false)
  81:../../libDaisy//src/hid/disp/display.h ****         = 0;
  82:../../libDaisy//src/hid/disp/display.h **** 
ARM GAS  /tmp/ccZePa4k.s 			page 10


  83:../../libDaisy//src/hid/disp/display.h ****     /**
  84:../../libDaisy//src/hid/disp/display.h ****     Draws a rectangle.
  85:../../libDaisy//src/hid/disp/display.h ****     \param rect the rectangle
  86:../../libDaisy//src/hid/disp/display.h ****     \param on   on or off
  87:../../libDaisy//src/hid/disp/display.h ****     \param fill fill the rectangle or draw only the outline
  88:../../libDaisy//src/hid/disp/display.h ****     */
  89:../../libDaisy//src/hid/disp/display.h ****     void DrawRect(const Rectangle& rect, bool on, bool fill = false)
  90:../../libDaisy//src/hid/disp/display.h ****     {
  91:../../libDaisy//src/hid/disp/display.h ****         DrawRect(rect.GetX(),
  92:../../libDaisy//src/hid/disp/display.h ****                  rect.GetY(),
  93:../../libDaisy//src/hid/disp/display.h ****                  rect.GetRight(),
  94:../../libDaisy//src/hid/disp/display.h ****                  rect.GetBottom(),
  95:../../libDaisy//src/hid/disp/display.h ****                  on,
  96:../../libDaisy//src/hid/disp/display.h ****                  fill);
  97:../../libDaisy//src/hid/disp/display.h ****     }
  98:../../libDaisy//src/hid/disp/display.h **** 
  99:../../libDaisy//src/hid/disp/display.h ****     /**
 100:../../libDaisy//src/hid/disp/display.h ****     Draws an arc around the specified coordinate
 101:../../libDaisy//src/hid/disp/display.h ****     \param x           x Coordinate of the center of the arc
 102:../../libDaisy//src/hid/disp/display.h ****     \param y           y Coordinate of the center of the arc
 103:../../libDaisy//src/hid/disp/display.h ****     \param radius      radius of the arc
 104:../../libDaisy//src/hid/disp/display.h ****     \param start_angle angle where to start the arc
 105:../../libDaisy//src/hid/disp/display.h ****     \param sweep       total angle of the arc
 106:../../libDaisy//src/hid/disp/display.h ****     \param on  on or off
 107:../../libDaisy//src/hid/disp/display.h ****     */
 108:../../libDaisy//src/hid/disp/display.h ****     virtual void DrawArc(uint_fast8_t x,
 109:../../libDaisy//src/hid/disp/display.h ****                          uint_fast8_t y,
 110:../../libDaisy//src/hid/disp/display.h ****                          uint_fast8_t radius,
 111:../../libDaisy//src/hid/disp/display.h ****                          int_fast16_t start_angle,
 112:../../libDaisy//src/hid/disp/display.h ****                          int_fast16_t sweep,
 113:../../libDaisy//src/hid/disp/display.h ****                          bool         on)
 114:../../libDaisy//src/hid/disp/display.h ****         = 0;
 115:../../libDaisy//src/hid/disp/display.h **** 
 116:../../libDaisy//src/hid/disp/display.h ****     /**
 117:../../libDaisy//src/hid/disp/display.h ****     Draws a circle around the specified coordinate
 118:../../libDaisy//src/hid/disp/display.h ****     \param x           x Coordinate of the center of the circle
 119:../../libDaisy//src/hid/disp/display.h ****     \param y           y Coordinate of the center of the circle
 120:../../libDaisy//src/hid/disp/display.h ****     \param radius      radius of the circle
 121:../../libDaisy//src/hid/disp/display.h ****     \param on  on or off
 122:../../libDaisy//src/hid/disp/display.h ****     */
 123:../../libDaisy//src/hid/disp/display.h ****     void
 124:../../libDaisy//src/hid/disp/display.h ****     DrawCircle(uint_fast8_t x, uint_fast8_t y, uint_fast8_t radius, bool on)
 125:../../libDaisy//src/hid/disp/display.h ****     {
 126:../../libDaisy//src/hid/disp/display.h ****         DrawArc(x, y, radius, 0, 360, on);
 127:../../libDaisy//src/hid/disp/display.h ****     };
 128:../../libDaisy//src/hid/disp/display.h **** 
 129:../../libDaisy//src/hid/disp/display.h ****     /** 
 130:../../libDaisy//src/hid/disp/display.h ****     Writes the character with the specific FontDef
 131:../../libDaisy//src/hid/disp/display.h ****     to the display buffer at the current Cursor position.
 132:../../libDaisy//src/hid/disp/display.h ****     \param ch character to be written
 133:../../libDaisy//src/hid/disp/display.h ****     \param font font to be written in
 134:../../libDaisy//src/hid/disp/display.h ****     \param on    on or off
 135:../../libDaisy//src/hid/disp/display.h ****     \return &
 136:../../libDaisy//src/hid/disp/display.h ****     */
 137:../../libDaisy//src/hid/disp/display.h ****     virtual char WriteChar(char ch, FontDef font, bool on) = 0;
 138:../../libDaisy//src/hid/disp/display.h **** 
 139:../../libDaisy//src/hid/disp/display.h ****     /** 
ARM GAS  /tmp/ccZePa4k.s 			page 11


 140:../../libDaisy//src/hid/disp/display.h ****     Similar to WriteChar, except it will handle an entire String.
 141:../../libDaisy//src/hid/disp/display.h ****     Wrapping does not happen automatically, so the width
 142:../../libDaisy//src/hid/disp/display.h ****     of the string must be kept within the dimensions of the screen.
 143:../../libDaisy//src/hid/disp/display.h ****     \param str string to be written
 144:../../libDaisy//src/hid/disp/display.h ****     \param font font to use
 145:../../libDaisy//src/hid/disp/display.h ****     \param on  on or off
 146:../../libDaisy//src/hid/disp/display.h ****     \return &
 147:../../libDaisy//src/hid/disp/display.h ****     */
 148:../../libDaisy//src/hid/disp/display.h ****     virtual char WriteString(const char* str, FontDef font, bool on) = 0;
 149:../../libDaisy//src/hid/disp/display.h **** 
 150:../../libDaisy//src/hid/disp/display.h ****     /** 
 151:../../libDaisy//src/hid/disp/display.h ****     Similar to WriteString but justified within a bounding box.
 152:../../libDaisy//src/hid/disp/display.h ****     \param str          string to be written
 153:../../libDaisy//src/hid/disp/display.h ****     \param font         font to use
 154:../../libDaisy//src/hid/disp/display.h ****     \param boundingBox  the bounding box to draw the text in
 155:../../libDaisy//src/hid/disp/display.h ****     \param alignment    the alignment to use
 156:../../libDaisy//src/hid/disp/display.h ****     \param on           on or off
 157:../../libDaisy//src/hid/disp/display.h ****     \return The rectangle that was drawn to
 158:../../libDaisy//src/hid/disp/display.h ****     */
 159:../../libDaisy//src/hid/disp/display.h ****     virtual Rectangle WriteStringAligned(const char*    str,
 160:../../libDaisy//src/hid/disp/display.h ****                                          const FontDef& font,
 161:../../libDaisy//src/hid/disp/display.h ****                                          Rectangle      boundingBox,
 162:../../libDaisy//src/hid/disp/display.h ****                                          Alignment      alignment,
 163:../../libDaisy//src/hid/disp/display.h ****                                          bool           on)
 164:../../libDaisy//src/hid/disp/display.h ****         = 0;
 165:../../libDaisy//src/hid/disp/display.h **** 
 166:../../libDaisy//src/hid/disp/display.h ****     /** 
 167:../../libDaisy//src/hid/disp/display.h ****     Moves the 'Cursor' position used for WriteChar, and WriteStr to the specified coordinate.
 168:../../libDaisy//src/hid/disp/display.h ****     \param x x pos
 169:../../libDaisy//src/hid/disp/display.h ****     \param y y pos
 170:../../libDaisy//src/hid/disp/display.h ****     */
 171:../../libDaisy//src/hid/disp/display.h ****     void SetCursor(uint16_t x, uint16_t y)
 172:../../libDaisy//src/hid/disp/display.h ****     {
 173:../../libDaisy//src/hid/disp/display.h ****         currentX_ = (x >= Width()) ? Width() - 1 : x;
 174:../../libDaisy//src/hid/disp/display.h ****         currentY_ = (y >= Height()) ? Height() - 1 : y;
 175:../../libDaisy//src/hid/disp/display.h ****     }
 176:../../libDaisy//src/hid/disp/display.h **** 
 177:../../libDaisy//src/hid/disp/display.h ****     /** 
 178:../../libDaisy//src/hid/disp/display.h ****     Writes the current display buffer to the OLED device using SPI or I2C depending on 
 179:../../libDaisy//src/hid/disp/display.h ****     how the object was initialized.
 180:../../libDaisy//src/hid/disp/display.h ****     */
 181:../../libDaisy//src/hid/disp/display.h ****     virtual void Update() = 0;
 182:../../libDaisy//src/hid/disp/display.h **** 
 183:../../libDaisy//src/hid/disp/display.h ****   protected:
 184:../../libDaisy//src/hid/disp/display.h ****     uint16_t currentX_;
 185:../../libDaisy//src/hid/disp/display.h ****     uint16_t currentY_;
 186:../../libDaisy//src/hid/disp/display.h **** };
 187:../../libDaisy//src/hid/disp/display.h **** 
 188:../../libDaisy//src/hid/disp/display.h **** /** This class is intended as a intermediary class for your actual implementation of the OneBitGrap
 189:../../libDaisy//src/hid/disp/display.h ****  *  interface. It uses the CRTP design pattern where the template argument is the child class. It p
 190:../../libDaisy//src/hid/disp/display.h ****  *  implementations for most of the functions, except DrawPixel(), Update() and Fill(), which you'l
 191:../../libDaisy//src/hid/disp/display.h ****  *  to provide in your child class.
 192:../../libDaisy//src/hid/disp/display.h ****  *  The main goal of this class is to provide common drawing functions without relying on massive a
 193:../../libDaisy//src/hid/disp/display.h ****  *  virtual function calls that would result in a performance loss. To achieve this, any drawing fu
 194:../../libDaisy//src/hid/disp/display.h ****  *  is implemented here and internally calls other drawing functions (e.g. DrawRect() which interna
 195:../../libDaisy//src/hid/disp/display.h ****  *  DrawPixel() and DrawLine()) makes these calls via the qualified name of these functions to expl
 196:../../libDaisy//src/hid/disp/display.h ****  *  suppress the virtual dispatch mechanism like this:
ARM GAS  /tmp/ccZePa4k.s 			page 12


 197:../../libDaisy//src/hid/disp/display.h ****  * 
 198:../../libDaisy//src/hid/disp/display.h ****  *      ChildType::DrawPixel(...); // no virtual function call; direct call into the child class fu
 199:../../libDaisy//src/hid/disp/display.h ****  *  
 200:../../libDaisy//src/hid/disp/display.h ****  *  To create a custom OneBitGraphicsDisplay implementation, you can 
 201:../../libDaisy//src/hid/disp/display.h ****  *  A) inherit from OneBitGraphicsDisplay directly and provide all the drawing functions yourself
 202:../../libDaisy//src/hid/disp/display.h ****  *  B) Inherit from OneBitGraphicsDisplayImpl and only provide DrawPixel(), Fill() and Update()
 203:../../libDaisy//src/hid/disp/display.h ****  *     like this:
 204:../../libDaisy//src/hid/disp/display.h ****  *  
 205:../../libDaisy//src/hid/disp/display.h ****  *      class MyDisplayClass : public OneBitGraphicsDisplayImpl<MyDisplayClass> 
 206:../../libDaisy//src/hid/disp/display.h ****  *      {
 207:../../libDaisy//src/hid/disp/display.h ****  *      public:
 208:../../libDaisy//src/hid/disp/display.h ****  *          void Fill() override { ... };
 209:../../libDaisy//src/hid/disp/display.h ****  *          void DrawPixel(uint_fast8_t x, uint_fast8_t y, bool on) override { ... };
 210:../../libDaisy//src/hid/disp/display.h ****  *          void Update() override { ... }
 211:../../libDaisy//src/hid/disp/display.h ****  *      };
 212:../../libDaisy//src/hid/disp/display.h ****  *  
 213:../../libDaisy//src/hid/disp/display.h ****  */
 214:../../libDaisy//src/hid/disp/display.h **** template <class ChildType>
 215:../../libDaisy//src/hid/disp/display.h **** class OneBitGraphicsDisplayImpl : public OneBitGraphicsDisplay
 216:../../libDaisy//src/hid/disp/display.h **** {
 217:../../libDaisy//src/hid/disp/display.h ****   public:
 218:../../libDaisy//src/hid/disp/display.h ****     OneBitGraphicsDisplayImpl() {}
 219:../../libDaisy//src/hid/disp/display.h ****     virtual ~OneBitGraphicsDisplayImpl() {}
  86              		.loc 7 219 13 view .LVU11
  87              	.LBB323:
  88              	.LBI323:
  23:../../libDaisy//src/hid/disp/display.h **** 
  89              		.loc 7 23 13 view .LVU12
  23:../../libDaisy//src/hid/disp/display.h **** 
  90              		.loc 7 23 13 is_stmt 0 view .LVU13
  91              	.LBE323:
  92              	.LBE322:
  93              		.loc 6 18 29 view .LVU14
  94 0000 7047     		bx	lr
  95              		.cfi_endproc
  96              	.LFE2595:
  98              		.weak	_ZN5daisy11OledDisplayINS_13SSD130xDriverILj128ELj64ENS_24SSD130x4WireSpiTransportEEEED1Ev
  99              		.thumb_set _ZN5daisy11OledDisplayINS_13SSD130xDriverILj128ELj64ENS_24SSD130x4WireSpiTransportEEEED
 100 0002 00BF     		.section	.text._ZNK5daisy11OledDisplayINS_13SSD130xDriverILj128ELj64ENS_24SSD130x4WireSpiTransport
 101              		.align	1
 102              		.p2align 2,,3
 103              		.weak	_ZNK5daisy11OledDisplayINS_13SSD130xDriverILj128ELj64ENS_24SSD130x4WireSpiTransportEEEE6Heig
 104              		.syntax unified
 105              		.thumb
 106              		.thumb_func
 108              	_ZNK5daisy11OledDisplayINS_13SSD130xDriverILj128ELj64ENS_24SSD130x4WireSpiTransportEEEE6HeightEv:
 109              	.LVL2:
 110              	.LFB2598:
  19:../../libDaisy//src/hid/disp/oled_display.h **** 
  20:../../libDaisy//src/hid/disp/oled_display.h ****     struct Config
  21:../../libDaisy//src/hid/disp/oled_display.h ****     {
  22:../../libDaisy//src/hid/disp/oled_display.h ****         typename DisplayDriver::Config driver_config;
  23:../../libDaisy//src/hid/disp/oled_display.h ****     };
  24:../../libDaisy//src/hid/disp/oled_display.h **** 
  25:../../libDaisy//src/hid/disp/oled_display.h ****     void Init(Config config) { driver_.Init(config.driver_config); }
  26:../../libDaisy//src/hid/disp/oled_display.h **** 
  27:../../libDaisy//src/hid/disp/oled_display.h ****     uint16_t Height() const override { return driver_.Height(); }
ARM GAS  /tmp/ccZePa4k.s 			page 13


 111              		.loc 6 27 14 is_stmt 1 view -0
 112              		.cfi_startproc
 113              		@ args = 0, pretend = 0, frame = 0
 114              		@ frame_needed = 0, uses_anonymous_args = 0
 115              		@ link register save eliminated.
 116              		.loc 6 27 65 is_stmt 0 view .LVU16
 117 0000 4020     		movs	r0, #64
 118              	.LVL3:
 119              		.loc 6 27 65 view .LVU17
 120 0002 7047     		bx	lr
 121              		.cfi_endproc
 122              	.LFE2598:
 124              		.section	.text._ZNK5daisy11OledDisplayINS_13SSD130xDriverILj128ELj64ENS_24SSD130x4WireSpiTransport
 125              		.align	1
 126              		.p2align 2,,3
 127              		.weak	_ZNK5daisy11OledDisplayINS_13SSD130xDriverILj128ELj64ENS_24SSD130x4WireSpiTransportEEEE5Widt
 128              		.syntax unified
 129              		.thumb
 130              		.thumb_func
 132              	_ZNK5daisy11OledDisplayINS_13SSD130xDriverILj128ELj64ENS_24SSD130x4WireSpiTransportEEEE5WidthEv:
 133              	.LVL4:
 134              	.LFB2599:
  28:../../libDaisy//src/hid/disp/oled_display.h ****     uint16_t Width() const override { return driver_.Width(); }
 135              		.loc 6 28 14 is_stmt 1 view -0
 136              		.cfi_startproc
 137              		@ args = 0, pretend = 0, frame = 0
 138              		@ frame_needed = 0, uses_anonymous_args = 0
 139              		@ link register save eliminated.
 140              		.loc 6 28 63 is_stmt 0 view .LVU19
 141 0000 8020     		movs	r0, #128
 142              	.LVL5:
 143              		.loc 6 28 63 view .LVU20
 144 0002 7047     		bx	lr
 145              		.cfi_endproc
 146              	.LFE2599:
 148              		.section	.text._ZN5daisy11OledDisplayINS_13SSD130xDriverILj128ELj64ENS_24SSD130x4WireSpiTransportE
 149              		.align	1
 150              		.p2align 2,,3
 151              		.weak	_ZN5daisy11OledDisplayINS_13SSD130xDriverILj128ELj64ENS_24SSD130x4WireSpiTransportEEEE4FillE
 152              		.syntax unified
 153              		.thumb
 154              		.thumb_func
 156              	_ZN5daisy11OledDisplayINS_13SSD130xDriverILj128ELj64ENS_24SSD130x4WireSpiTransportEEEE4FillEb:
 157              	.LVL6:
 158              	.LFB2600:
  29:../../libDaisy//src/hid/disp/oled_display.h **** 
  30:../../libDaisy//src/hid/disp/oled_display.h ****     /** 
  31:../../libDaisy//src/hid/disp/oled_display.h ****     Fills the entire display with either on/off.
  32:../../libDaisy//src/hid/disp/oled_display.h ****     \param on Sets on or off.
  33:../../libDaisy//src/hid/disp/oled_display.h ****     */
  34:../../libDaisy//src/hid/disp/oled_display.h ****     void Fill(bool on) override { driver_.Fill(on); }
 159              		.loc 6 34 10 is_stmt 1 view -0
 160              		.cfi_startproc
 161              		@ args = 0, pretend = 0, frame = 0
 162              		@ frame_needed = 0, uses_anonymous_args = 0
 163              		@ link register save eliminated.
 164              	.LBB324:
ARM GAS  /tmp/ccZePa4k.s 			page 14


 165              	.LBI324:
 166              		.file 8 "../../libDaisy//src/dev/oled_ssd130x.h"
   1:../../libDaisy//src/dev/oled_ssd130x.h **** #pragma once
   2:../../libDaisy//src/dev/oled_ssd130x.h **** #ifndef SA_OLED_SSD130X_H
   3:../../libDaisy//src/dev/oled_ssd130x.h **** #define SA_OLED_SSD130X_H /**< & */
   4:../../libDaisy//src/dev/oled_ssd130x.h **** 
   5:../../libDaisy//src/dev/oled_ssd130x.h **** #include "per/i2c.h"
   6:../../libDaisy//src/dev/oled_ssd130x.h **** #include "per/spi.h"
   7:../../libDaisy//src/dev/oled_ssd130x.h **** #include "per/gpio.h"
   8:../../libDaisy//src/dev/oled_ssd130x.h **** #include "sys/system.h"
   9:../../libDaisy//src/dev/oled_ssd130x.h **** 
  10:../../libDaisy//src/dev/oled_ssd130x.h **** namespace daisy
  11:../../libDaisy//src/dev/oled_ssd130x.h **** {
  12:../../libDaisy//src/dev/oled_ssd130x.h **** /**
  13:../../libDaisy//src/dev/oled_ssd130x.h ****  * I2C Transport for SSD1306 / SSD1309 OLED display devices
  14:../../libDaisy//src/dev/oled_ssd130x.h ****  */
  15:../../libDaisy//src/dev/oled_ssd130x.h **** class SSD130xI2CTransport
  16:../../libDaisy//src/dev/oled_ssd130x.h **** {
  17:../../libDaisy//src/dev/oled_ssd130x.h ****   public:
  18:../../libDaisy//src/dev/oled_ssd130x.h ****     struct Config
  19:../../libDaisy//src/dev/oled_ssd130x.h ****     {
  20:../../libDaisy//src/dev/oled_ssd130x.h ****         Config()
  21:../../libDaisy//src/dev/oled_ssd130x.h ****         {
  22:../../libDaisy//src/dev/oled_ssd130x.h ****             // Intialize using defaults
  23:../../libDaisy//src/dev/oled_ssd130x.h ****             Defaults();
  24:../../libDaisy//src/dev/oled_ssd130x.h ****         }
  25:../../libDaisy//src/dev/oled_ssd130x.h ****         I2CHandle::Config i2c_config;
  26:../../libDaisy//src/dev/oled_ssd130x.h ****         uint8_t           i2c_address;
  27:../../libDaisy//src/dev/oled_ssd130x.h ****         void              Defaults()
  28:../../libDaisy//src/dev/oled_ssd130x.h ****         {
  29:../../libDaisy//src/dev/oled_ssd130x.h ****             i2c_config.periph         = I2CHandle::Config::Peripheral::I2C_1;
  30:../../libDaisy//src/dev/oled_ssd130x.h ****             i2c_config.speed          = I2CHandle::Config::Speed::I2C_1MHZ;
  31:../../libDaisy//src/dev/oled_ssd130x.h ****             i2c_config.mode           = I2CHandle::Config::Mode::I2C_MASTER;
  32:../../libDaisy//src/dev/oled_ssd130x.h ****             i2c_config.pin_config.scl = {DSY_GPIOB, 8};
  33:../../libDaisy//src/dev/oled_ssd130x.h ****             i2c_config.pin_config.sda = {DSY_GPIOB, 9};
  34:../../libDaisy//src/dev/oled_ssd130x.h ****             i2c_address               = 0x3C;
  35:../../libDaisy//src/dev/oled_ssd130x.h ****         }
  36:../../libDaisy//src/dev/oled_ssd130x.h ****     };
  37:../../libDaisy//src/dev/oled_ssd130x.h ****     void Init(const Config& config)
  38:../../libDaisy//src/dev/oled_ssd130x.h ****     {
  39:../../libDaisy//src/dev/oled_ssd130x.h ****         i2c_address_ = config.i2c_address;
  40:../../libDaisy//src/dev/oled_ssd130x.h ****         i2c_.Init(config.i2c_config);
  41:../../libDaisy//src/dev/oled_ssd130x.h ****     };
  42:../../libDaisy//src/dev/oled_ssd130x.h ****     void SendCommand(uint8_t cmd)
  43:../../libDaisy//src/dev/oled_ssd130x.h ****     {
  44:../../libDaisy//src/dev/oled_ssd130x.h ****         uint8_t buf[2] = {0X00, cmd};
  45:../../libDaisy//src/dev/oled_ssd130x.h ****         i2c_.TransmitBlocking(i2c_address_, buf, 2, 1000);
  46:../../libDaisy//src/dev/oled_ssd130x.h ****     };
  47:../../libDaisy//src/dev/oled_ssd130x.h **** 
  48:../../libDaisy//src/dev/oled_ssd130x.h ****     void SendData(uint8_t* buff, size_t size)
  49:../../libDaisy//src/dev/oled_ssd130x.h ****     {
  50:../../libDaisy//src/dev/oled_ssd130x.h ****         for(size_t i = 0; i < size; i++)
  51:../../libDaisy//src/dev/oled_ssd130x.h ****         {
  52:../../libDaisy//src/dev/oled_ssd130x.h ****             uint8_t buf[2] = {0X40, buff[i]};
  53:../../libDaisy//src/dev/oled_ssd130x.h ****             i2c_.TransmitBlocking(i2c_address_, buf, 2, 1000);
  54:../../libDaisy//src/dev/oled_ssd130x.h ****         }
  55:../../libDaisy//src/dev/oled_ssd130x.h ****     };
ARM GAS  /tmp/ccZePa4k.s 			page 15


  56:../../libDaisy//src/dev/oled_ssd130x.h **** 
  57:../../libDaisy//src/dev/oled_ssd130x.h ****   private:
  58:../../libDaisy//src/dev/oled_ssd130x.h ****     daisy::I2CHandle i2c_;
  59:../../libDaisy//src/dev/oled_ssd130x.h ****     uint8_t          i2c_address_;
  60:../../libDaisy//src/dev/oled_ssd130x.h **** };
  61:../../libDaisy//src/dev/oled_ssd130x.h **** 
  62:../../libDaisy//src/dev/oled_ssd130x.h **** /**
  63:../../libDaisy//src/dev/oled_ssd130x.h ****  * 4 Wire SPI Transport for SSD1306 / SSD1309 OLED display devices
  64:../../libDaisy//src/dev/oled_ssd130x.h ****  */
  65:../../libDaisy//src/dev/oled_ssd130x.h **** class SSD130x4WireSpiTransport
  66:../../libDaisy//src/dev/oled_ssd130x.h **** {
  67:../../libDaisy//src/dev/oled_ssd130x.h ****   public:
  68:../../libDaisy//src/dev/oled_ssd130x.h ****     struct Config
  69:../../libDaisy//src/dev/oled_ssd130x.h ****     {
  70:../../libDaisy//src/dev/oled_ssd130x.h ****         Config()
  71:../../libDaisy//src/dev/oled_ssd130x.h ****         {
  72:../../libDaisy//src/dev/oled_ssd130x.h ****             // Initialize using defaults
  73:../../libDaisy//src/dev/oled_ssd130x.h ****             Defaults();
  74:../../libDaisy//src/dev/oled_ssd130x.h ****         }
  75:../../libDaisy//src/dev/oled_ssd130x.h ****         SpiHandle::Config spi_config;
  76:../../libDaisy//src/dev/oled_ssd130x.h ****         struct
  77:../../libDaisy//src/dev/oled_ssd130x.h ****         {
  78:../../libDaisy//src/dev/oled_ssd130x.h ****             dsy_gpio_pin dc;    /**< & */
  79:../../libDaisy//src/dev/oled_ssd130x.h ****             dsy_gpio_pin reset; /**< & */
  80:../../libDaisy//src/dev/oled_ssd130x.h ****         } pin_config;
  81:../../libDaisy//src/dev/oled_ssd130x.h ****         void Defaults()
  82:../../libDaisy//src/dev/oled_ssd130x.h ****         {
  83:../../libDaisy//src/dev/oled_ssd130x.h ****             // SPI peripheral config
  84:../../libDaisy//src/dev/oled_ssd130x.h ****             spi_config.periph = SpiHandle::Config::Peripheral::SPI_1;
  85:../../libDaisy//src/dev/oled_ssd130x.h ****             spi_config.mode   = SpiHandle::Config::Mode::MASTER;
  86:../../libDaisy//src/dev/oled_ssd130x.h ****             spi_config.direction
  87:../../libDaisy//src/dev/oled_ssd130x.h ****                 = SpiHandle::Config::Direction::TWO_LINES_TX_ONLY;
  88:../../libDaisy//src/dev/oled_ssd130x.h ****             spi_config.datasize       = 8;
  89:../../libDaisy//src/dev/oled_ssd130x.h ****             spi_config.clock_polarity = SpiHandle::Config::ClockPolarity::LOW;
  90:../../libDaisy//src/dev/oled_ssd130x.h ****             spi_config.clock_phase    = SpiHandle::Config::ClockPhase::ONE_EDGE;
  91:../../libDaisy//src/dev/oled_ssd130x.h ****             spi_config.nss            = SpiHandle::Config::NSS::HARD_OUTPUT;
  92:../../libDaisy//src/dev/oled_ssd130x.h ****             spi_config.baud_prescaler = SpiHandle::Config::BaudPrescaler::PS_8;
  93:../../libDaisy//src/dev/oled_ssd130x.h ****             // SPI pin config
  94:../../libDaisy//src/dev/oled_ssd130x.h ****             spi_config.pin_config.sclk = {DSY_GPIOG, 11};
  95:../../libDaisy//src/dev/oled_ssd130x.h ****             spi_config.pin_config.miso = {DSY_GPIOX, 0};
  96:../../libDaisy//src/dev/oled_ssd130x.h ****             spi_config.pin_config.mosi = {DSY_GPIOB, 5};
  97:../../libDaisy//src/dev/oled_ssd130x.h ****             spi_config.pin_config.nss  = {DSY_GPIOG, 10};
  98:../../libDaisy//src/dev/oled_ssd130x.h ****             // SSD130x control pin config
  99:../../libDaisy//src/dev/oled_ssd130x.h ****             pin_config.dc    = {DSY_GPIOB, 4};
 100:../../libDaisy//src/dev/oled_ssd130x.h ****             pin_config.reset = {DSY_GPIOB, 15};
 101:../../libDaisy//src/dev/oled_ssd130x.h ****         }
 102:../../libDaisy//src/dev/oled_ssd130x.h ****     };
 103:../../libDaisy//src/dev/oled_ssd130x.h ****     void Init(const Config& config)
 104:../../libDaisy//src/dev/oled_ssd130x.h ****     {
 105:../../libDaisy//src/dev/oled_ssd130x.h ****         // Initialize both GPIO
 106:../../libDaisy//src/dev/oled_ssd130x.h ****         pin_dc_.mode = DSY_GPIO_MODE_OUTPUT_PP;
 107:../../libDaisy//src/dev/oled_ssd130x.h ****         pin_dc_.pin  = config.pin_config.dc;
 108:../../libDaisy//src/dev/oled_ssd130x.h ****         dsy_gpio_init(&pin_dc_);
 109:../../libDaisy//src/dev/oled_ssd130x.h ****         pin_reset_.mode = DSY_GPIO_MODE_OUTPUT_PP;
 110:../../libDaisy//src/dev/oled_ssd130x.h ****         pin_reset_.pin  = config.pin_config.reset;
 111:../../libDaisy//src/dev/oled_ssd130x.h ****         dsy_gpio_init(&pin_reset_);
 112:../../libDaisy//src/dev/oled_ssd130x.h **** 
ARM GAS  /tmp/ccZePa4k.s 			page 16


 113:../../libDaisy//src/dev/oled_ssd130x.h ****         // Initialize SPI
 114:../../libDaisy//src/dev/oled_ssd130x.h ****         spi_.Init(config.spi_config);
 115:../../libDaisy//src/dev/oled_ssd130x.h **** 
 116:../../libDaisy//src/dev/oled_ssd130x.h ****         // Reset and Configure OLED.
 117:../../libDaisy//src/dev/oled_ssd130x.h ****         dsy_gpio_write(&pin_reset_, 0);
 118:../../libDaisy//src/dev/oled_ssd130x.h ****         System::Delay(10);
 119:../../libDaisy//src/dev/oled_ssd130x.h ****         dsy_gpio_write(&pin_reset_, 1);
 120:../../libDaisy//src/dev/oled_ssd130x.h ****         System::Delay(10);
 121:../../libDaisy//src/dev/oled_ssd130x.h ****     };
 122:../../libDaisy//src/dev/oled_ssd130x.h ****     void SendCommand(uint8_t cmd)
 123:../../libDaisy//src/dev/oled_ssd130x.h ****     {
 124:../../libDaisy//src/dev/oled_ssd130x.h ****         dsy_gpio_write(&pin_dc_, 0);
 125:../../libDaisy//src/dev/oled_ssd130x.h ****         spi_.BlockingTransmit(&cmd, 1);
 126:../../libDaisy//src/dev/oled_ssd130x.h ****     };
 127:../../libDaisy//src/dev/oled_ssd130x.h **** 
 128:../../libDaisy//src/dev/oled_ssd130x.h ****     void SendData(uint8_t* buff, size_t size)
 129:../../libDaisy//src/dev/oled_ssd130x.h ****     {
 130:../../libDaisy//src/dev/oled_ssd130x.h ****         dsy_gpio_write(&pin_dc_, 1);
 131:../../libDaisy//src/dev/oled_ssd130x.h ****         spi_.BlockingTransmit(buff, size);
 132:../../libDaisy//src/dev/oled_ssd130x.h ****     };
 133:../../libDaisy//src/dev/oled_ssd130x.h **** 
 134:../../libDaisy//src/dev/oled_ssd130x.h ****   private:
 135:../../libDaisy//src/dev/oled_ssd130x.h ****     SpiHandle spi_;
 136:../../libDaisy//src/dev/oled_ssd130x.h ****     dsy_gpio  pin_reset_;
 137:../../libDaisy//src/dev/oled_ssd130x.h ****     dsy_gpio  pin_dc_;
 138:../../libDaisy//src/dev/oled_ssd130x.h **** };
 139:../../libDaisy//src/dev/oled_ssd130x.h **** 
 140:../../libDaisy//src/dev/oled_ssd130x.h **** 
 141:../../libDaisy//src/dev/oled_ssd130x.h **** /**
 142:../../libDaisy//src/dev/oled_ssd130x.h ****  * A driver implementation for the SSD1306/SSD1309
 143:../../libDaisy//src/dev/oled_ssd130x.h ****  */
 144:../../libDaisy//src/dev/oled_ssd130x.h **** template <size_t width, size_t height, typename Transport>
 145:../../libDaisy//src/dev/oled_ssd130x.h **** class SSD130xDriver
 146:../../libDaisy//src/dev/oled_ssd130x.h **** {
 147:../../libDaisy//src/dev/oled_ssd130x.h ****   public:
 148:../../libDaisy//src/dev/oled_ssd130x.h ****     struct Config
 149:../../libDaisy//src/dev/oled_ssd130x.h ****     {
 150:../../libDaisy//src/dev/oled_ssd130x.h ****         typename Transport::Config transport_config;
 151:../../libDaisy//src/dev/oled_ssd130x.h ****     };
 152:../../libDaisy//src/dev/oled_ssd130x.h **** 
 153:../../libDaisy//src/dev/oled_ssd130x.h ****     void Init(Config config)
 154:../../libDaisy//src/dev/oled_ssd130x.h ****     {
 155:../../libDaisy//src/dev/oled_ssd130x.h ****         transport_.Init(config.transport_config);
 156:../../libDaisy//src/dev/oled_ssd130x.h **** 
 157:../../libDaisy//src/dev/oled_ssd130x.h ****         // Init routine...
 158:../../libDaisy//src/dev/oled_ssd130x.h **** 
 159:../../libDaisy//src/dev/oled_ssd130x.h ****         // Display Off
 160:../../libDaisy//src/dev/oled_ssd130x.h ****         transport_.SendCommand(0xaE);
 161:../../libDaisy//src/dev/oled_ssd130x.h ****         // Dimension dependent commands...
 162:../../libDaisy//src/dev/oled_ssd130x.h ****         switch(height)
 163:../../libDaisy//src/dev/oled_ssd130x.h ****         {
 164:../../libDaisy//src/dev/oled_ssd130x.h ****             case 16:
 165:../../libDaisy//src/dev/oled_ssd130x.h ****                 // Display Clock Divide Ratio
 166:../../libDaisy//src/dev/oled_ssd130x.h ****                 transport_.SendCommand(0xD5);
 167:../../libDaisy//src/dev/oled_ssd130x.h ****                 transport_.SendCommand(0x60);
 168:../../libDaisy//src/dev/oled_ssd130x.h ****                 // Multiplex Ratio
 169:../../libDaisy//src/dev/oled_ssd130x.h ****                 transport_.SendCommand(0xA8);
ARM GAS  /tmp/ccZePa4k.s 			page 17


 170:../../libDaisy//src/dev/oled_ssd130x.h ****                 transport_.SendCommand(0x0F);
 171:../../libDaisy//src/dev/oled_ssd130x.h ****                 // COM Pins
 172:../../libDaisy//src/dev/oled_ssd130x.h ****                 transport_.SendCommand(0xDA);
 173:../../libDaisy//src/dev/oled_ssd130x.h ****                 transport_.SendCommand(0x02);
 174:../../libDaisy//src/dev/oled_ssd130x.h ****                 break;
 175:../../libDaisy//src/dev/oled_ssd130x.h ****             case 32:
 176:../../libDaisy//src/dev/oled_ssd130x.h ****                 // Display Clock Divide Ratio
 177:../../libDaisy//src/dev/oled_ssd130x.h ****                 transport_.SendCommand(0xD5);
 178:../../libDaisy//src/dev/oled_ssd130x.h ****                 transport_.SendCommand(0x80);
 179:../../libDaisy//src/dev/oled_ssd130x.h ****                 // Multiplex Ratio
 180:../../libDaisy//src/dev/oled_ssd130x.h ****                 transport_.SendCommand(0xA8);
 181:../../libDaisy//src/dev/oled_ssd130x.h ****                 transport_.SendCommand(0x1F);
 182:../../libDaisy//src/dev/oled_ssd130x.h ****                 // COM Pins
 183:../../libDaisy//src/dev/oled_ssd130x.h ****                 transport_.SendCommand(0xDA);
 184:../../libDaisy//src/dev/oled_ssd130x.h ****                 if(width == 64)
 185:../../libDaisy//src/dev/oled_ssd130x.h ****                 {
 186:../../libDaisy//src/dev/oled_ssd130x.h ****                     transport_.SendCommand(0x12);
 187:../../libDaisy//src/dev/oled_ssd130x.h ****                 }
 188:../../libDaisy//src/dev/oled_ssd130x.h ****                 else
 189:../../libDaisy//src/dev/oled_ssd130x.h ****                 {
 190:../../libDaisy//src/dev/oled_ssd130x.h ****                     transport_.SendCommand(0x02);
 191:../../libDaisy//src/dev/oled_ssd130x.h ****                 }
 192:../../libDaisy//src/dev/oled_ssd130x.h **** 
 193:../../libDaisy//src/dev/oled_ssd130x.h ****                 break;
 194:../../libDaisy//src/dev/oled_ssd130x.h ****             case 48:
 195:../../libDaisy//src/dev/oled_ssd130x.h ****                 // Display Clock Divide Ratio
 196:../../libDaisy//src/dev/oled_ssd130x.h ****                 transport_.SendCommand(0xD5);
 197:../../libDaisy//src/dev/oled_ssd130x.h ****                 transport_.SendCommand(0x80);
 198:../../libDaisy//src/dev/oled_ssd130x.h ****                 // Multiplex Ratio
 199:../../libDaisy//src/dev/oled_ssd130x.h ****                 transport_.SendCommand(0xA8);
 200:../../libDaisy//src/dev/oled_ssd130x.h ****                 transport_.SendCommand(0x2F);
 201:../../libDaisy//src/dev/oled_ssd130x.h ****                 // COM Pins
 202:../../libDaisy//src/dev/oled_ssd130x.h ****                 transport_.SendCommand(0xDA);
 203:../../libDaisy//src/dev/oled_ssd130x.h ****                 transport_.SendCommand(0x12);
 204:../../libDaisy//src/dev/oled_ssd130x.h ****                 break;
 205:../../libDaisy//src/dev/oled_ssd130x.h ****             default: // 128
 206:../../libDaisy//src/dev/oled_ssd130x.h ****                 // Display Clock Divide Ratio
 207:../../libDaisy//src/dev/oled_ssd130x.h ****                 transport_.SendCommand(0xD5);
 208:../../libDaisy//src/dev/oled_ssd130x.h ****                 transport_.SendCommand(0x80);
 209:../../libDaisy//src/dev/oled_ssd130x.h ****                 // Multiplex Ratio
 210:../../libDaisy//src/dev/oled_ssd130x.h ****                 transport_.SendCommand(0xA8);
 211:../../libDaisy//src/dev/oled_ssd130x.h ****                 transport_.SendCommand(0x3F);
 212:../../libDaisy//src/dev/oled_ssd130x.h ****                 // COM Pins
 213:../../libDaisy//src/dev/oled_ssd130x.h ****                 transport_.SendCommand(0xDA);
 214:../../libDaisy//src/dev/oled_ssd130x.h ****                 transport_.SendCommand(0x12);
 215:../../libDaisy//src/dev/oled_ssd130x.h ****                 break;
 216:../../libDaisy//src/dev/oled_ssd130x.h ****         }
 217:../../libDaisy//src/dev/oled_ssd130x.h **** 
 218:../../libDaisy//src/dev/oled_ssd130x.h ****         // Display Offset
 219:../../libDaisy//src/dev/oled_ssd130x.h ****         transport_.SendCommand(0xD3);
 220:../../libDaisy//src/dev/oled_ssd130x.h ****         transport_.SendCommand(0x00);
 221:../../libDaisy//src/dev/oled_ssd130x.h ****         // Start Line Address
 222:../../libDaisy//src/dev/oled_ssd130x.h ****         transport_.SendCommand(0x40);
 223:../../libDaisy//src/dev/oled_ssd130x.h ****         // Normal Display
 224:../../libDaisy//src/dev/oled_ssd130x.h ****         transport_.SendCommand(0xA6);
 225:../../libDaisy//src/dev/oled_ssd130x.h ****         // All On Resume
 226:../../libDaisy//src/dev/oled_ssd130x.h ****         transport_.SendCommand(0xA4);
ARM GAS  /tmp/ccZePa4k.s 			page 18


 227:../../libDaisy//src/dev/oled_ssd130x.h ****         // Charge Pump
 228:../../libDaisy//src/dev/oled_ssd130x.h ****         transport_.SendCommand(0x8D);
 229:../../libDaisy//src/dev/oled_ssd130x.h ****         transport_.SendCommand(0x14);
 230:../../libDaisy//src/dev/oled_ssd130x.h ****         // Set Segment Remap
 231:../../libDaisy//src/dev/oled_ssd130x.h ****         transport_.SendCommand(0xA1);
 232:../../libDaisy//src/dev/oled_ssd130x.h ****         // COM Output Scan Direction
 233:../../libDaisy//src/dev/oled_ssd130x.h ****         transport_.SendCommand(0xC8);
 234:../../libDaisy//src/dev/oled_ssd130x.h ****         // Contrast Control
 235:../../libDaisy//src/dev/oled_ssd130x.h ****         transport_.SendCommand(0x81);
 236:../../libDaisy//src/dev/oled_ssd130x.h ****         transport_.SendCommand(0x8F);
 237:../../libDaisy//src/dev/oled_ssd130x.h ****         // Pre Charge
 238:../../libDaisy//src/dev/oled_ssd130x.h ****         transport_.SendCommand(0xD9);
 239:../../libDaisy//src/dev/oled_ssd130x.h ****         transport_.SendCommand(0x25);
 240:../../libDaisy//src/dev/oled_ssd130x.h ****         // VCOM Detect
 241:../../libDaisy//src/dev/oled_ssd130x.h ****         transport_.SendCommand(0xDB);
 242:../../libDaisy//src/dev/oled_ssd130x.h ****         transport_.SendCommand(0x34);
 243:../../libDaisy//src/dev/oled_ssd130x.h **** 
 244:../../libDaisy//src/dev/oled_ssd130x.h **** 
 245:../../libDaisy//src/dev/oled_ssd130x.h ****         // Display On
 246:../../libDaisy//src/dev/oled_ssd130x.h ****         transport_.SendCommand(0xAF); //--turn on oled panel
 247:../../libDaisy//src/dev/oled_ssd130x.h ****     };
 248:../../libDaisy//src/dev/oled_ssd130x.h **** 
 249:../../libDaisy//src/dev/oled_ssd130x.h ****     size_t Width() const { return width; };
 250:../../libDaisy//src/dev/oled_ssd130x.h ****     size_t Height() const { return height; };
 251:../../libDaisy//src/dev/oled_ssd130x.h **** 
 252:../../libDaisy//src/dev/oled_ssd130x.h ****     void DrawPixel(uint_fast8_t x, uint_fast8_t y, bool on)
 253:../../libDaisy//src/dev/oled_ssd130x.h ****     {
 254:../../libDaisy//src/dev/oled_ssd130x.h ****         if(x >= width || y >= height)
 255:../../libDaisy//src/dev/oled_ssd130x.h ****             return;
 256:../../libDaisy//src/dev/oled_ssd130x.h ****         if(on)
 257:../../libDaisy//src/dev/oled_ssd130x.h ****             buffer_[x + (y / 8) * width] |= (1 << (y % 8));
 258:../../libDaisy//src/dev/oled_ssd130x.h ****         else
 259:../../libDaisy//src/dev/oled_ssd130x.h ****             buffer_[x + (y / 8) * width] &= ~(1 << (y % 8));
 260:../../libDaisy//src/dev/oled_ssd130x.h ****     }
 261:../../libDaisy//src/dev/oled_ssd130x.h **** 
 262:../../libDaisy//src/dev/oled_ssd130x.h ****     void Fill(bool on)
 167              		.loc 8 262 10 view .LVU22
 168              	.LBB325:
 263:../../libDaisy//src/dev/oled_ssd130x.h ****     {
 264:../../libDaisy//src/dev/oled_ssd130x.h ****         for(size_t i = 0; i < sizeof(buffer_); i++)
 169              		.loc 8 264 29 view .LVU23
 265:../../libDaisy//src/dev/oled_ssd130x.h ****         {
 266:../../libDaisy//src/dev/oled_ssd130x.h ****             buffer_[i] = on ? 0xff : 0x00;
 170              		.loc 8 266 24 is_stmt 0 view .LVU24
 171 0000 4942     		rsbs	r1, r1, #0
 172              	.LVL7:
 173              		.loc 8 266 24 view .LVU25
 174 0002 4FF48062 		mov	r2, #1024
 175 0006 1430     		adds	r0, r0, #20
 176              	.LVL8:
 177              		.loc 8 266 24 view .LVU26
 178 0008 C9B2     		uxtb	r1, r1
 179 000a FFF7FEBF 		b	memset
 180              	.LVL9:
 181              		.loc 8 266 24 view .LVU27
 182              	.LBE325:
 183              	.LBE324:
ARM GAS  /tmp/ccZePa4k.s 			page 19


 184              		.cfi_endproc
 185              	.LFE2600:
 187 000e 00BF     		.section	.text._ZN5daisy11OledDisplayINS_13SSD130xDriverILj128ELj64ENS_24SSD130x4WireSpiTransportE
 188              		.align	1
 189              		.p2align 2,,3
 190              		.weak	_ZN5daisy11OledDisplayINS_13SSD130xDriverILj128ELj64ENS_24SSD130x4WireSpiTransportEEEED0Ev
 191              		.syntax unified
 192              		.thumb
 193              		.thumb_func
 195              	_ZN5daisy11OledDisplayINS_13SSD130xDriverILj128ELj64ENS_24SSD130x4WireSpiTransportEEEED0Ev:
 196              	.LVL10:
 197              	.LFB2597:
  18:../../libDaisy//src/hid/disp/oled_display.h **** 
 198              		.loc 6 18 13 is_stmt 1 view -0
 199              		.cfi_startproc
 200              		@ args = 0, pretend = 0, frame = 0
 201              		@ frame_needed = 0, uses_anonymous_args = 0
  18:../../libDaisy//src/hid/disp/oled_display.h **** 
 202              		.loc 6 18 13 is_stmt 0 view .LVU29
 203 0000 10B5     		push	{r4, lr}
 204              		.cfi_def_cfa_offset 8
 205              		.cfi_offset 4, -8
 206              		.cfi_offset 14, -4
  18:../../libDaisy//src/hid/disp/oled_display.h **** 
 207              		.loc 6 18 13 view .LVU30
 208 0002 0446     		mov	r4, r0
 209              	.LVL11:
 210              	.LBB326:
 211              	.LBI326:
  18:../../libDaisy//src/hid/disp/oled_display.h **** 
 212              		.loc 6 18 13 is_stmt 1 view .LVU31
 213              	.LBB327:
 214              	.LBI327:
 215              		.loc 7 219 13 view .LVU32
 216              	.LBB328:
 217              	.LBI328:
  23:../../libDaisy//src/hid/disp/display.h **** 
 218              		.loc 7 23 13 view .LVU33
  23:../../libDaisy//src/hid/disp/display.h **** 
 219              		.loc 7 23 13 is_stmt 0 view .LVU34
 220              	.LBE328:
 221              	.LBE327:
 222              	.LBE326:
  18:../../libDaisy//src/hid/disp/oled_display.h **** 
 223              		.loc 6 18 29 view .LVU35
 224 0004 40F21441 		movw	r1, #1044
 225 0008 FFF7FEFF 		bl	_ZdlPvj
 226              	.LVL12:
  18:../../libDaisy//src/hid/disp/oled_display.h **** 
 227              		.loc 6 18 29 view .LVU36
 228 000c 2046     		mov	r0, r4
 229 000e 10BD     		pop	{r4, pc}
  18:../../libDaisy//src/hid/disp/oled_display.h **** 
 230              		.loc 6 18 29 view .LVU37
 231              		.cfi_endproc
 232              	.LFE2597:
 234              		.section	.text._ZN5daisy11OledDisplayINS_13SSD130xDriverILj128ELj64ENS_24SSD130x4WireSpiTransportE
ARM GAS  /tmp/ccZePa4k.s 			page 20


 235              		.align	1
 236              		.p2align 2,,3
 237              		.weak	_ZN5daisy11OledDisplayINS_13SSD130xDriverILj128ELj64ENS_24SSD130x4WireSpiTransportEEEE6Updat
 238              		.syntax unified
 239              		.thumb
 240              		.thumb_func
 242              	_ZN5daisy11OledDisplayINS_13SSD130xDriverILj128ELj64ENS_24SSD130x4WireSpiTransportEEEE6UpdateEv:
 243              	.LVL13:
 244              	.LFB2608:
  35:../../libDaisy//src/hid/disp/oled_display.h **** 
  36:../../libDaisy//src/hid/disp/oled_display.h ****     /**
  37:../../libDaisy//src/hid/disp/oled_display.h ****     Sets the pixel at the specified coordinate to be on/off.
  38:../../libDaisy//src/hid/disp/oled_display.h ****     \param x   x Coordinate
  39:../../libDaisy//src/hid/disp/oled_display.h ****     \param y   y coordinate
  40:../../libDaisy//src/hid/disp/oled_display.h ****     \param on  on or off
  41:../../libDaisy//src/hid/disp/oled_display.h ****     */
  42:../../libDaisy//src/hid/disp/oled_display.h ****     void DrawPixel(uint_fast8_t x, uint_fast8_t y, bool on) override
  43:../../libDaisy//src/hid/disp/oled_display.h ****     {
  44:../../libDaisy//src/hid/disp/oled_display.h ****         driver_.DrawPixel(x, y, on);
  45:../../libDaisy//src/hid/disp/oled_display.h ****     }
  46:../../libDaisy//src/hid/disp/oled_display.h **** 
  47:../../libDaisy//src/hid/disp/oled_display.h ****     /** 
  48:../../libDaisy//src/hid/disp/oled_display.h ****     Writes the current display buffer to the OLED device using SPI or I2C depending on 
  49:../../libDaisy//src/hid/disp/oled_display.h ****     how the object was initialized.
  50:../../libDaisy//src/hid/disp/oled_display.h ****     */
  51:../../libDaisy//src/hid/disp/oled_display.h ****     void Update() override { driver_.Update(); }
 245              		.loc 6 51 10 is_stmt 1 view -0
 246              		.cfi_startproc
 247              		@ args = 0, pretend = 0, frame = 8
 248              		@ frame_needed = 0, uses_anonymous_args = 0
 249              	.LBB339:
 250              	.LBI339:
 267:../../libDaisy//src/dev/oled_ssd130x.h ****         }
 268:../../libDaisy//src/dev/oled_ssd130x.h ****     };
 269:../../libDaisy//src/dev/oled_ssd130x.h **** 
 270:../../libDaisy//src/dev/oled_ssd130x.h ****     /**
 271:../../libDaisy//src/dev/oled_ssd130x.h ****      * Update the display 
 272:../../libDaisy//src/dev/oled_ssd130x.h ****     */
 273:../../libDaisy//src/dev/oled_ssd130x.h ****     void Update()
 251              		.loc 8 273 10 view .LVU39
 252              	.LBB340:
 274:../../libDaisy//src/dev/oled_ssd130x.h ****     {
 275:../../libDaisy//src/dev/oled_ssd130x.h ****         uint8_t i;
 276:../../libDaisy//src/dev/oled_ssd130x.h ****         uint8_t high_column_addr;
 277:../../libDaisy//src/dev/oled_ssd130x.h ****         switch(height)
 278:../../libDaisy//src/dev/oled_ssd130x.h ****         {
 279:../../libDaisy//src/dev/oled_ssd130x.h ****             case 32: high_column_addr = 0x12; break;
 280:../../libDaisy//src/dev/oled_ssd130x.h **** 
 281:../../libDaisy//src/dev/oled_ssd130x.h ****             default: high_column_addr = 0x10; break;
 282:../../libDaisy//src/dev/oled_ssd130x.h ****         }
 283:../../libDaisy//src/dev/oled_ssd130x.h ****         for(i = 0; i < (height / 8); i++)
 253              		.loc 8 283 22 view .LVU40
 254              	.LBE340:
 255              	.LBE339:
 256              		.loc 6 51 10 is_stmt 0 view .LVU41
 257 0000 2DE9F041 		push	{r4, r5, r6, r7, r8, lr}
 258              		.cfi_def_cfa_offset 24
ARM GAS  /tmp/ccZePa4k.s 			page 21


 259              		.cfi_offset 4, -24
 260              		.cfi_offset 5, -20
 261              		.cfi_offset 6, -16
 262              		.cfi_offset 7, -12
 263              		.cfi_offset 8, -8
 264              		.cfi_offset 14, -4
 265              	.LBB362:
 266              	.LBB360:
 267              	.LBB341:
 268              	.LBB342:
 125:../../libDaisy//src/dev/oled_ssd130x.h ****     };
 269              		.loc 8 125 30 view .LVU42
 270 0004 B024     		movs	r4, #176
 271              	.LBE342:
 272              	.LBE341:
 273              	.LBE360:
 274              	.LBE362:
 275              		.loc 6 51 10 view .LVU43
 276 0006 82B0     		sub	sp, sp, #8
 277              		.cfi_def_cfa_offset 32
 278              	.LBB363:
 279              	.LBB361:
 280              	.LBB347:
 281              	.LBB343:
 124:../../libDaisy//src/dev/oled_ssd130x.h ****         spi_.BlockingTransmit(&cmd, 1);
 282              		.loc 8 124 24 view .LVU44
 283 0008 00F10806 		add	r6, r0, #8
 284 000c 00F11005 		add	r5, r0, #16
 285 0010 00F11408 		add	r8, r0, #20
 286              	.LVL14:
 287              	.L10:
 124:../../libDaisy//src/dev/oled_ssd130x.h ****         spi_.BlockingTransmit(&cmd, 1);
 288              		.loc 8 124 24 view .LVU45
 289 0014 0027     		movs	r7, #0
 124:../../libDaisy//src/dev/oled_ssd130x.h ****         spi_.BlockingTransmit(&cmd, 1);
 290              		.loc 8 124 23 view .LVU46
 291 0016 2846     		mov	r0, r5
 292 0018 8DF80740 		strb	r4, [sp, #7]
 293              	.LVL15:
 124:../../libDaisy//src/dev/oled_ssd130x.h ****         spi_.BlockingTransmit(&cmd, 1);
 294              		.loc 8 124 23 view .LVU47
 295              	.LBE343:
 296              	.LBI341:
 122:../../libDaisy//src/dev/oled_ssd130x.h ****     {
 297              		.loc 8 122 10 is_stmt 1 view .LVU48
 298              	.LBB344:
 124:../../libDaisy//src/dev/oled_ssd130x.h ****         spi_.BlockingTransmit(&cmd, 1);
 299              		.loc 8 124 9 view .LVU49
 300              	.LBE344:
 301              	.LBE347:
 302              		.loc 8 283 22 is_stmt 0 view .LVU50
 303 001c 0134     		adds	r4, r4, #1
 304              	.LVL16:
 305              	.LBB348:
 306              	.LBB345:
 124:../../libDaisy//src/dev/oled_ssd130x.h ****         spi_.BlockingTransmit(&cmd, 1);
 307              		.loc 8 124 23 view .LVU51
ARM GAS  /tmp/ccZePa4k.s 			page 22


 308 001e 3946     		mov	r1, r7
 309 0020 FFF7FEFF 		bl	dsy_gpio_write
 310              	.LVL17:
 125:../../libDaisy//src/dev/oled_ssd130x.h ****     };
 311              		.loc 8 125 9 is_stmt 1 view .LVU52
 125:../../libDaisy//src/dev/oled_ssd130x.h ****     };
 312              		.loc 8 125 30 is_stmt 0 view .LVU53
 313 0024 6423     		movs	r3, #100
 314 0026 0122     		movs	r2, #1
 315 0028 0DF10701 		add	r1, sp, #7
 316 002c 3046     		mov	r0, r6
 317              	.LBE345:
 318              	.LBE348:
 319              		.loc 8 283 22 view .LVU54
 320 002e E4B2     		uxtb	r4, r4
 321              	.LBB349:
 322              	.LBB346:
 125:../../libDaisy//src/dev/oled_ssd130x.h ****     };
 323              		.loc 8 125 30 view .LVU55
 324 0030 FFF7FEFF 		bl	_ZN5daisy9SpiHandle16BlockingTransmitEPhjm
 325              	.LVL18:
 125:../../libDaisy//src/dev/oled_ssd130x.h ****     };
 326              		.loc 8 125 30 view .LVU56
 327              	.LBE346:
 328              	.LBE349:
 329              	.LBB350:
 330              	.LBB351:
 124:../../libDaisy//src/dev/oled_ssd130x.h ****         spi_.BlockingTransmit(&cmd, 1);
 331              		.loc 8 124 23 view .LVU57
 332 0034 3946     		mov	r1, r7
 333 0036 2846     		mov	r0, r5
 334 0038 8DF80770 		strb	r7, [sp, #7]
 335              	.LVL19:
 124:../../libDaisy//src/dev/oled_ssd130x.h ****         spi_.BlockingTransmit(&cmd, 1);
 336              		.loc 8 124 23 view .LVU58
 337              	.LBE351:
 338              	.LBI350:
 122:../../libDaisy//src/dev/oled_ssd130x.h ****     {
 339              		.loc 8 122 10 is_stmt 1 view .LVU59
 340              	.LBB352:
 124:../../libDaisy//src/dev/oled_ssd130x.h ****         spi_.BlockingTransmit(&cmd, 1);
 341              		.loc 8 124 9 view .LVU60
 124:../../libDaisy//src/dev/oled_ssd130x.h ****         spi_.BlockingTransmit(&cmd, 1);
 342              		.loc 8 124 23 is_stmt 0 view .LVU61
 343 003c FFF7FEFF 		bl	dsy_gpio_write
 344              	.LVL20:
 125:../../libDaisy//src/dev/oled_ssd130x.h ****     };
 345              		.loc 8 125 9 is_stmt 1 view .LVU62
 125:../../libDaisy//src/dev/oled_ssd130x.h ****     };
 346              		.loc 8 125 30 is_stmt 0 view .LVU63
 347 0040 0122     		movs	r2, #1
 348 0042 6423     		movs	r3, #100
 349 0044 0DF10701 		add	r1, sp, #7
 350 0048 3046     		mov	r0, r6
 351 004a FFF7FEFF 		bl	_ZN5daisy9SpiHandle16BlockingTransmitEPhjm
 352              	.LVL21:
 125:../../libDaisy//src/dev/oled_ssd130x.h ****     };
ARM GAS  /tmp/ccZePa4k.s 			page 23


 353              		.loc 8 125 30 view .LVU64
 354 004e 1023     		movs	r3, #16
 355              	.LBE352:
 356              	.LBE350:
 357              	.LBB353:
 358              	.LBB354:
 124:../../libDaisy//src/dev/oled_ssd130x.h ****         spi_.BlockingTransmit(&cmd, 1);
 359              		.loc 8 124 23 view .LVU65
 360 0050 3946     		mov	r1, r7
 361 0052 2846     		mov	r0, r5
 362 0054 8DF80730 		strb	r3, [sp, #7]
 363              	.LVL22:
 124:../../libDaisy//src/dev/oled_ssd130x.h ****         spi_.BlockingTransmit(&cmd, 1);
 364              		.loc 8 124 23 view .LVU66
 365              	.LBE354:
 366              	.LBI353:
 122:../../libDaisy//src/dev/oled_ssd130x.h ****     {
 367              		.loc 8 122 10 is_stmt 1 view .LVU67
 368              	.LBB355:
 124:../../libDaisy//src/dev/oled_ssd130x.h ****         spi_.BlockingTransmit(&cmd, 1);
 369              		.loc 8 124 9 view .LVU68
 124:../../libDaisy//src/dev/oled_ssd130x.h ****         spi_.BlockingTransmit(&cmd, 1);
 370              		.loc 8 124 23 is_stmt 0 view .LVU69
 371 0058 FFF7FEFF 		bl	dsy_gpio_write
 372              	.LVL23:
 125:../../libDaisy//src/dev/oled_ssd130x.h ****     };
 373              		.loc 8 125 9 is_stmt 1 view .LVU70
 125:../../libDaisy//src/dev/oled_ssd130x.h ****     };
 374              		.loc 8 125 30 is_stmt 0 view .LVU71
 375 005c 6423     		movs	r3, #100
 376 005e 0122     		movs	r2, #1
 377 0060 0DF10701 		add	r1, sp, #7
 378 0064 3046     		mov	r0, r6
 379 0066 FFF7FEFF 		bl	_ZN5daisy9SpiHandle16BlockingTransmitEPhjm
 380              	.LVL24:
 125:../../libDaisy//src/dev/oled_ssd130x.h ****     };
 381              		.loc 8 125 30 view .LVU72
 382              	.LBE355:
 383              	.LBE353:
 384              	.LBB356:
 385              	.LBI356:
 128:../../libDaisy//src/dev/oled_ssd130x.h ****     {
 386              		.loc 8 128 10 is_stmt 1 view .LVU73
 387              	.LBB357:
 130:../../libDaisy//src/dev/oled_ssd130x.h ****         spi_.BlockingTransmit(buff, size);
 388              		.loc 8 130 9 view .LVU74
 130:../../libDaisy//src/dev/oled_ssd130x.h ****         spi_.BlockingTransmit(buff, size);
 389              		.loc 8 130 23 is_stmt 0 view .LVU75
 390 006a 0121     		movs	r1, #1
 391 006c 2846     		mov	r0, r5
 392 006e FFF7FEFF 		bl	dsy_gpio_write
 393              	.LVL25:
 131:../../libDaisy//src/dev/oled_ssd130x.h ****     };
 394              		.loc 8 131 9 is_stmt 1 view .LVU76
 131:../../libDaisy//src/dev/oled_ssd130x.h ****     };
 395              		.loc 8 131 30 is_stmt 0 view .LVU77
 396 0072 8022     		movs	r2, #128
ARM GAS  /tmp/ccZePa4k.s 			page 24


 397 0074 4146     		mov	r1, r8
 398 0076 6423     		movs	r3, #100
 399 0078 3046     		mov	r0, r6
 400              	.LBE357:
 401              	.LBE356:
 402              		.loc 8 283 22 view .LVU78
 403 007a 9044     		add	r8, r8, r2
 404              	.LVL26:
 405              	.LBB359:
 406              	.LBB358:
 131:../../libDaisy//src/dev/oled_ssd130x.h ****     };
 407              		.loc 8 131 30 view .LVU79
 408 007c FFF7FEFF 		bl	_ZN5daisy9SpiHandle16BlockingTransmitEPhjm
 409              	.LVL27:
 131:../../libDaisy//src/dev/oled_ssd130x.h ****     };
 410              		.loc 8 131 30 view .LVU80
 411              	.LBE358:
 412              	.LBE359:
 413              		.loc 8 283 9 is_stmt 1 view .LVU81
 414              		.loc 8 283 22 view .LVU82
 415 0080 B82C     		cmp	r4, #184
 416 0082 C7D1     		bne	.L10
 417              	.LBE361:
 418              	.LBE363:
 419              		.loc 6 51 48 is_stmt 0 view .LVU83
 420 0084 02B0     		add	sp, sp, #8
 421              		.cfi_def_cfa_offset 24
 422              		@ sp needed
 423 0086 BDE8F081 		pop	{r4, r5, r6, r7, r8, pc}
 424              		.loc 6 51 48 view .LVU84
 425              		.cfi_endproc
 426              	.LFE2608:
 428 008a 00BF     		.section	.text._ZN5daisy25OneBitGraphicsDisplayImplINS_11OledDisplayINS_13SSD130xDriverILj128ELj64
 429              		.align	1
 430              		.p2align 2,,3
 431              		.weak	_ZN5daisy25OneBitGraphicsDisplayImplINS_11OledDisplayINS_13SSD130xDriverILj128ELj64ENS_24SSD
 432              		.syntax unified
 433              		.thumb
 434              		.thumb_func
 436              	_ZN5daisy25OneBitGraphicsDisplayImplINS_11OledDisplayINS_13SSD130xDriverILj128ELj64ENS_24SSD130x4Wi
 437              	.LVL28:
 438              	.LFB2606:
 220:../../libDaisy//src/hid/disp/display.h **** 
 221:../../libDaisy//src/hid/disp/display.h ****     void DrawLine(uint_fast8_t x1,
 222:../../libDaisy//src/hid/disp/display.h ****                   uint_fast8_t y1,
 223:../../libDaisy//src/hid/disp/display.h ****                   uint_fast8_t x2,
 224:../../libDaisy//src/hid/disp/display.h ****                   uint_fast8_t y2,
 225:../../libDaisy//src/hid/disp/display.h ****                   bool         on) override
 226:../../libDaisy//src/hid/disp/display.h ****     {
 227:../../libDaisy//src/hid/disp/display.h ****         int_fast16_t deltaX = abs((int_fast16_t)x2 - (int_fast16_t)x1);
 228:../../libDaisy//src/hid/disp/display.h ****         int_fast16_t deltaY = abs((int_fast16_t)y2 - (int_fast16_t)y1);
 229:../../libDaisy//src/hid/disp/display.h ****         int_fast16_t signX  = ((x1 < x2) ? 1 : -1);
 230:../../libDaisy//src/hid/disp/display.h ****         int_fast16_t signY  = ((y1 < y2) ? 1 : -1);
 231:../../libDaisy//src/hid/disp/display.h ****         int_fast16_t error  = deltaX - deltaY;
 232:../../libDaisy//src/hid/disp/display.h ****         int_fast16_t error2;
 233:../../libDaisy//src/hid/disp/display.h **** 
 234:../../libDaisy//src/hid/disp/display.h ****         // If we write "ChildType::DrawPixel(x2, y2, on);", we end up with
ARM GAS  /tmp/ccZePa4k.s 			page 25


 235:../../libDaisy//src/hid/disp/display.h ****         // all sorts of weird compiler errors when the Child class is a template
 236:../../libDaisy//src/hid/disp/display.h ****         // class. The only way around this is to use this very verbose syntax:
 237:../../libDaisy//src/hid/disp/display.h ****         ((ChildType*)(this))->ChildType::DrawPixel(x2, y2, on);
 238:../../libDaisy//src/hid/disp/display.h **** 
 239:../../libDaisy//src/hid/disp/display.h ****         while((x1 != x2) || (y1 != y2))
 240:../../libDaisy//src/hid/disp/display.h ****         {
 241:../../libDaisy//src/hid/disp/display.h ****             ((ChildType*)(this))->ChildType::DrawPixel(x1, y1, on);
 242:../../libDaisy//src/hid/disp/display.h ****             error2 = error * 2;
 243:../../libDaisy//src/hid/disp/display.h ****             if(error2 > -deltaY)
 244:../../libDaisy//src/hid/disp/display.h ****             {
 245:../../libDaisy//src/hid/disp/display.h ****                 error -= deltaY;
 246:../../libDaisy//src/hid/disp/display.h ****                 x1 += signX;
 247:../../libDaisy//src/hid/disp/display.h ****             }
 248:../../libDaisy//src/hid/disp/display.h **** 
 249:../../libDaisy//src/hid/disp/display.h ****             if(error2 < deltaX)
 250:../../libDaisy//src/hid/disp/display.h ****             {
 251:../../libDaisy//src/hid/disp/display.h ****                 error += deltaX;
 252:../../libDaisy//src/hid/disp/display.h ****                 y1 += signY;
 253:../../libDaisy//src/hid/disp/display.h ****             }
 254:../../libDaisy//src/hid/disp/display.h ****         }
 255:../../libDaisy//src/hid/disp/display.h ****     }
 256:../../libDaisy//src/hid/disp/display.h **** 
 257:../../libDaisy//src/hid/disp/display.h ****     void DrawRect(uint_fast8_t x1,
 258:../../libDaisy//src/hid/disp/display.h ****                   uint_fast8_t y1,
 259:../../libDaisy//src/hid/disp/display.h ****                   uint_fast8_t x2,
 260:../../libDaisy//src/hid/disp/display.h ****                   uint_fast8_t y2,
 261:../../libDaisy//src/hid/disp/display.h ****                   bool         on,
 262:../../libDaisy//src/hid/disp/display.h ****                   bool         fill = false) override
 263:../../libDaisy//src/hid/disp/display.h ****     {
 264:../../libDaisy//src/hid/disp/display.h ****         if(fill)
 265:../../libDaisy//src/hid/disp/display.h ****         {
 266:../../libDaisy//src/hid/disp/display.h ****             for(uint_fast8_t x = x1; x <= x2; x++)
 267:../../libDaisy//src/hid/disp/display.h ****             {
 268:../../libDaisy//src/hid/disp/display.h ****                 for(uint_fast8_t y = y1; y <= y2; y++)
 269:../../libDaisy//src/hid/disp/display.h ****                 {
 270:../../libDaisy//src/hid/disp/display.h ****                     ((ChildType*)(this))->ChildType::DrawPixel(x, y, on);
 271:../../libDaisy//src/hid/disp/display.h ****                 }
 272:../../libDaisy//src/hid/disp/display.h ****             }
 273:../../libDaisy//src/hid/disp/display.h ****         }
 274:../../libDaisy//src/hid/disp/display.h ****         else
 275:../../libDaisy//src/hid/disp/display.h ****         {
 276:../../libDaisy//src/hid/disp/display.h ****             ((ChildType*)(this))->ChildType::DrawLine(x1, y1, x2, y1, on);
 277:../../libDaisy//src/hid/disp/display.h ****             ((ChildType*)(this))->ChildType::DrawLine(x2, y1, x2, y2, on);
 278:../../libDaisy//src/hid/disp/display.h ****             ((ChildType*)(this))->ChildType::DrawLine(x2, y2, x1, y2, on);
 279:../../libDaisy//src/hid/disp/display.h ****             ((ChildType*)(this))->ChildType::DrawLine(x1, y2, x1, y1, on);
 280:../../libDaisy//src/hid/disp/display.h ****         }
 281:../../libDaisy//src/hid/disp/display.h ****     }
 282:../../libDaisy//src/hid/disp/display.h **** 
 283:../../libDaisy//src/hid/disp/display.h ****     void DrawArc(uint_fast8_t x,
 284:../../libDaisy//src/hid/disp/display.h ****                  uint_fast8_t y,
 285:../../libDaisy//src/hid/disp/display.h ****                  uint_fast8_t radius,
 286:../../libDaisy//src/hid/disp/display.h ****                  int_fast16_t start_angle,
 287:../../libDaisy//src/hid/disp/display.h ****                  int_fast16_t sweep,
 288:../../libDaisy//src/hid/disp/display.h ****                  bool         on) override
 289:../../libDaisy//src/hid/disp/display.h ****     {
 290:../../libDaisy//src/hid/disp/display.h ****         // Values to calculate the circle
 291:../../libDaisy//src/hid/disp/display.h ****         int_fast16_t t_x, t_y, err, e2;
ARM GAS  /tmp/ccZePa4k.s 			page 26


 292:../../libDaisy//src/hid/disp/display.h **** 
 293:../../libDaisy//src/hid/disp/display.h ****         // Temporary values to speed up comparisons
 294:../../libDaisy//src/hid/disp/display.h ****         float t_sxy, t_syx, t_sxny, t_synx;
 295:../../libDaisy//src/hid/disp/display.h ****         float t_exy, t_eyx, t_exny, t_eynx;
 296:../../libDaisy//src/hid/disp/display.h **** 
 297:../../libDaisy//src/hid/disp/display.h ****         float start_angle_rad, end_angle_rad;
 298:../../libDaisy//src/hid/disp/display.h ****         float start_x, start_y, end_x, end_y;
 299:../../libDaisy//src/hid/disp/display.h **** 
 300:../../libDaisy//src/hid/disp/display.h ****         bool d1, d2, d3, d4;
 301:../../libDaisy//src/hid/disp/display.h **** 
 302:../../libDaisy//src/hid/disp/display.h ****         d1 = d2 = d3 = d4 = true;
 303:../../libDaisy//src/hid/disp/display.h **** 
 304:../../libDaisy//src/hid/disp/display.h ****         bool circle = false;
 305:../../libDaisy//src/hid/disp/display.h **** 
 306:../../libDaisy//src/hid/disp/display.h ****         if(sweep < 0)
 307:../../libDaisy//src/hid/disp/display.h ****         {
 308:../../libDaisy//src/hid/disp/display.h ****             start_angle += sweep;
 309:../../libDaisy//src/hid/disp/display.h ****             sweep = -sweep;
 310:../../libDaisy//src/hid/disp/display.h ****         }
 311:../../libDaisy//src/hid/disp/display.h **** 
 312:../../libDaisy//src/hid/disp/display.h ****         start_angle_rad = deg2rad(start_angle);
 313:../../libDaisy//src/hid/disp/display.h ****         end_angle_rad   = deg2rad(start_angle + sweep);
 314:../../libDaisy//src/hid/disp/display.h **** 
 315:../../libDaisy//src/hid/disp/display.h ****         start_x = cos(start_angle_rad) * radius;
 316:../../libDaisy//src/hid/disp/display.h ****         start_y = -sin(start_angle_rad) * radius;
 317:../../libDaisy//src/hid/disp/display.h ****         end_x   = cos(end_angle_rad) * radius;
 318:../../libDaisy//src/hid/disp/display.h ****         end_y   = -sin(end_angle_rad) * radius;
 319:../../libDaisy//src/hid/disp/display.h **** 
 320:../../libDaisy//src/hid/disp/display.h ****         // Check if start and endpoint are very near
 321:../../libDaisy//src/hid/disp/display.h ****         if((end_x - start_x) * (end_x - start_x)
 322:../../libDaisy//src/hid/disp/display.h ****                + (end_y - start_y) * (end_y - start_y)
 323:../../libDaisy//src/hid/disp/display.h ****            < 2.0f)
 324:../../libDaisy//src/hid/disp/display.h ****         {
 325:../../libDaisy//src/hid/disp/display.h ****             if(sweep > 180)
 326:../../libDaisy//src/hid/disp/display.h ****                 circle = true;
 327:../../libDaisy//src/hid/disp/display.h ****             else
 328:../../libDaisy//src/hid/disp/display.h ****                 // Nothing to draw
 329:../../libDaisy//src/hid/disp/display.h ****                 return;
 330:../../libDaisy//src/hid/disp/display.h ****         }
 331:../../libDaisy//src/hid/disp/display.h **** 
 332:../../libDaisy//src/hid/disp/display.h ****         t_x = -radius;
 333:../../libDaisy//src/hid/disp/display.h ****         t_y = 0;
 334:../../libDaisy//src/hid/disp/display.h ****         err = 2 - 2 * radius;
 335:../../libDaisy//src/hid/disp/display.h **** 
 336:../../libDaisy//src/hid/disp/display.h ****         do
 337:../../libDaisy//src/hid/disp/display.h ****         {
 338:../../libDaisy//src/hid/disp/display.h ****             if(!circle)
 339:../../libDaisy//src/hid/disp/display.h ****             {
 340:../../libDaisy//src/hid/disp/display.h ****                 t_sxy  = start_x * t_y;
 341:../../libDaisy//src/hid/disp/display.h ****                 t_syx  = start_y * t_x;
 342:../../libDaisy//src/hid/disp/display.h ****                 t_sxny = start_x * -t_y;
 343:../../libDaisy//src/hid/disp/display.h ****                 t_synx = start_y * -t_x;
 344:../../libDaisy//src/hid/disp/display.h ****                 t_exy  = end_x * t_y;
 345:../../libDaisy//src/hid/disp/display.h ****                 t_eyx  = end_y * t_x;
 346:../../libDaisy//src/hid/disp/display.h ****                 t_exny = end_x * -t_y;
 347:../../libDaisy//src/hid/disp/display.h ****                 t_eynx = end_y * -t_x;
 348:../../libDaisy//src/hid/disp/display.h **** 
ARM GAS  /tmp/ccZePa4k.s 			page 27


 349:../../libDaisy//src/hid/disp/display.h ****                 if(sweep > 180)
 350:../../libDaisy//src/hid/disp/display.h ****                 {
 351:../../libDaisy//src/hid/disp/display.h ****                     d1 = (t_sxy - t_synx < 0 || t_exy - t_eynx > 0);
 352:../../libDaisy//src/hid/disp/display.h ****                     d2 = (t_sxy - t_syx < 0 || t_exy - t_eyx > 0);
 353:../../libDaisy//src/hid/disp/display.h ****                     d3 = (t_sxny - t_syx < 0 || t_exny - t_eyx > 0);
 354:../../libDaisy//src/hid/disp/display.h ****                     d4 = (t_sxny - t_synx < 0 || t_exny - t_eynx > 0);
 355:../../libDaisy//src/hid/disp/display.h ****                 }
 356:../../libDaisy//src/hid/disp/display.h ****                 else
 357:../../libDaisy//src/hid/disp/display.h ****                 {
 358:../../libDaisy//src/hid/disp/display.h ****                     d1 = (t_sxy - t_synx < 0 && t_exy - t_eynx > 0);
 359:../../libDaisy//src/hid/disp/display.h ****                     d2 = (t_sxy - t_syx < 0 && t_exy - t_eyx > 0);
 360:../../libDaisy//src/hid/disp/display.h ****                     d3 = (t_sxny - t_syx < 0 && t_exny - t_eyx > 0);
 361:../../libDaisy//src/hid/disp/display.h ****                     d4 = (t_sxny - t_synx < 0 && t_exny - t_eynx > 0);
 362:../../libDaisy//src/hid/disp/display.h ****                 }
 363:../../libDaisy//src/hid/disp/display.h ****             }
 364:../../libDaisy//src/hid/disp/display.h **** 
 365:../../libDaisy//src/hid/disp/display.h ****             if(d1)
 366:../../libDaisy//src/hid/disp/display.h ****                 ((ChildType*)(this))
 367:../../libDaisy//src/hid/disp/display.h ****                     ->ChildType::DrawPixel(x - t_x, y + t_y, on);
 368:../../libDaisy//src/hid/disp/display.h ****             if(d2)
 369:../../libDaisy//src/hid/disp/display.h ****                 ((ChildType*)(this))
 370:../../libDaisy//src/hid/disp/display.h ****                     ->ChildType::DrawPixel(x + t_x, y + t_y, on);
 371:../../libDaisy//src/hid/disp/display.h ****             if(d3)
 372:../../libDaisy//src/hid/disp/display.h ****                 ((ChildType*)(this))
 373:../../libDaisy//src/hid/disp/display.h ****                     ->ChildType::DrawPixel(x + t_x, y - t_y, on);
 374:../../libDaisy//src/hid/disp/display.h ****             if(d4)
 375:../../libDaisy//src/hid/disp/display.h ****                 ((ChildType*)(this))
 376:../../libDaisy//src/hid/disp/display.h ****                     ->ChildType::DrawPixel(x - t_x, y - t_y, on);
 377:../../libDaisy//src/hid/disp/display.h **** 
 378:../../libDaisy//src/hid/disp/display.h ****             e2 = err;
 379:../../libDaisy//src/hid/disp/display.h ****             if(e2 <= t_y)
 380:../../libDaisy//src/hid/disp/display.h ****             {
 381:../../libDaisy//src/hid/disp/display.h ****                 t_y++;
 382:../../libDaisy//src/hid/disp/display.h ****                 err = err + (t_y * 2 + 1);
 383:../../libDaisy//src/hid/disp/display.h ****                 if(-t_x == t_y && e2 <= t_x)
 384:../../libDaisy//src/hid/disp/display.h ****                 {
 385:../../libDaisy//src/hid/disp/display.h ****                     e2 = 0;
 386:../../libDaisy//src/hid/disp/display.h ****                 }
 387:../../libDaisy//src/hid/disp/display.h ****             }
 388:../../libDaisy//src/hid/disp/display.h ****             if(e2 > t_x)
 389:../../libDaisy//src/hid/disp/display.h ****             {
 390:../../libDaisy//src/hid/disp/display.h ****                 t_x++;
 391:../../libDaisy//src/hid/disp/display.h ****                 err = err + (t_x * 2 + 1);
 392:../../libDaisy//src/hid/disp/display.h ****             }
 393:../../libDaisy//src/hid/disp/display.h ****         } while(t_x <= 0);
 394:../../libDaisy//src/hid/disp/display.h ****     }
 395:../../libDaisy//src/hid/disp/display.h **** 
 396:../../libDaisy//src/hid/disp/display.h ****     char WriteChar(char ch, FontDef font, bool on) override
 397:../../libDaisy//src/hid/disp/display.h ****     {
 398:../../libDaisy//src/hid/disp/display.h ****         uint32_t i, b, j;
 399:../../libDaisy//src/hid/disp/display.h **** 
 400:../../libDaisy//src/hid/disp/display.h ****         // Check if character is valid
 401:../../libDaisy//src/hid/disp/display.h ****         if(ch < 32 || ch > 126)
 402:../../libDaisy//src/hid/disp/display.h ****             return 0;
 403:../../libDaisy//src/hid/disp/display.h **** 
 404:../../libDaisy//src/hid/disp/display.h ****         // Check remaining space on current line
 405:../../libDaisy//src/hid/disp/display.h ****         if(Width() < (currentX_ + font.FontWidth)
ARM GAS  /tmp/ccZePa4k.s 			page 28


 406:../../libDaisy//src/hid/disp/display.h ****            || Height() < (currentY_ + font.FontHeight))
 407:../../libDaisy//src/hid/disp/display.h ****         {
 408:../../libDaisy//src/hid/disp/display.h ****             // Not enough space on current line
 409:../../libDaisy//src/hid/disp/display.h ****             return 0;
 410:../../libDaisy//src/hid/disp/display.h ****         }
 411:../../libDaisy//src/hid/disp/display.h **** 
 412:../../libDaisy//src/hid/disp/display.h ****         // Use the font to write
 413:../../libDaisy//src/hid/disp/display.h ****         for(i = 0; i < font.FontHeight; i++)
 414:../../libDaisy//src/hid/disp/display.h ****         {
 415:../../libDaisy//src/hid/disp/display.h ****             b = font.data[(ch - 32) * font.FontHeight + i];
 416:../../libDaisy//src/hid/disp/display.h ****             for(j = 0; j < font.FontWidth; j++)
 417:../../libDaisy//src/hid/disp/display.h ****             {
 418:../../libDaisy//src/hid/disp/display.h ****                 if((b << j) & 0x8000)
 419:../../libDaisy//src/hid/disp/display.h ****                 {
 420:../../libDaisy//src/hid/disp/display.h ****                     ((ChildType*)(this))
 421:../../libDaisy//src/hid/disp/display.h ****                         ->ChildType::DrawPixel(
 422:../../libDaisy//src/hid/disp/display.h ****                             currentX_ + j, (currentY_ + i), on);
 423:../../libDaisy//src/hid/disp/display.h ****                 }
 424:../../libDaisy//src/hid/disp/display.h ****                 else
 425:../../libDaisy//src/hid/disp/display.h ****                 {
 426:../../libDaisy//src/hid/disp/display.h ****                     ((ChildType*)(this))
 427:../../libDaisy//src/hid/disp/display.h ****                         ->ChildType::DrawPixel(
 428:../../libDaisy//src/hid/disp/display.h ****                             currentX_ + j, (currentY_ + i), !on);
 429:../../libDaisy//src/hid/disp/display.h ****                 }
 430:../../libDaisy//src/hid/disp/display.h ****             }
 431:../../libDaisy//src/hid/disp/display.h ****         }
 432:../../libDaisy//src/hid/disp/display.h **** 
 433:../../libDaisy//src/hid/disp/display.h ****         // The current space is now taken
 434:../../libDaisy//src/hid/disp/display.h ****         SetCursor(currentX_ + font.FontWidth, currentY_);
 435:../../libDaisy//src/hid/disp/display.h **** 
 436:../../libDaisy//src/hid/disp/display.h ****         // Return written char for validation
 437:../../libDaisy//src/hid/disp/display.h ****         return ch;
 438:../../libDaisy//src/hid/disp/display.h ****     }
 439:../../libDaisy//src/hid/disp/display.h **** 
 440:../../libDaisy//src/hid/disp/display.h ****     char WriteString(const char* str, FontDef font, bool on) override
 439              		.loc 7 440 10 is_stmt 1 view -0
 440              		.cfi_startproc
 441              		@ args = 4, pretend = 0, frame = 32
 442              		@ frame_needed = 0, uses_anonymous_args = 0
 443              		.loc 7 440 10 is_stmt 0 view .LVU86
 444 0000 2DE9F04F 		push	{r4, r5, r6, r7, r8, r9, r10, fp, lr}
 445              		.cfi_def_cfa_offset 36
 446              		.cfi_offset 4, -36
 447              		.cfi_offset 5, -32
 448              		.cfi_offset 6, -28
 449              		.cfi_offset 7, -24
 450              		.cfi_offset 8, -20
 451              		.cfi_offset 9, -16
 452              		.cfi_offset 10, -12
 453              		.cfi_offset 11, -8
 454              		.cfi_offset 14, -4
 455 0004 89B0     		sub	sp, sp, #36
 456              		.cfi_def_cfa_offset 72
 457              		.loc 7 440 10 view .LVU87
 458 0006 08AC     		add	r4, sp, #32
 459 0008 9DF84870 		ldrb	r7, [sp, #72]	@ zero_extendqisi2
 460 000c 0191     		str	r1, [sp, #4]
ARM GAS  /tmp/ccZePa4k.s 			page 29


 461 000e 04E90C00 		stmdb	r4, {r2, r3}
 441:../../libDaisy//src/hid/disp/display.h ****     {
 442:../../libDaisy//src/hid/disp/display.h ****         // Write until null-byte
 443:../../libDaisy//src/hid/disp/display.h ****         while(*str)
 462              		.loc 7 443 9 is_stmt 1 view .LVU88
 463 0012 0B78     		ldrb	r3, [r1]	@ zero_extendqisi2
 464 0014 002B     		cmp	r3, #0
 465 0016 00F0AB80 		beq	.L37
 466 001a 1A46     		mov	r2, r3
 467 001c 9DF81880 		ldrb	r8, [sp, #24]	@ zero_extendqisi2
 468 0020 9DF81930 		ldrb	r3, [sp, #25]	@ zero_extendqisi2
 469 0024 0646     		mov	r6, r0
 470 0026 4546     		mov	r5, r8
 471 0028 9046     		mov	r8, r2
 472 002a 0393     		str	r3, [sp, #12]
 473 002c 079B     		ldr	r3, [sp, #28]
 474 002e 0593     		str	r3, [sp, #20]
 475              	.LVL29:
 476              	.L38:
 477              	.LBB392:
 478              	.LBI392:
 396:../../libDaisy//src/hid/disp/display.h ****     {
 479              		.loc 7 396 10 view .LVU89
 480              	.LBB393:
 401:../../libDaisy//src/hid/disp/display.h ****             return 0;
 481              		.loc 7 401 20 is_stmt 0 view .LVU90
 482 0030 A8F12004 		sub	r4, r8, #32
 401:../../libDaisy//src/hid/disp/display.h ****             return 0;
 483              		.loc 7 401 9 view .LVU91
 484 0034 E3B2     		uxtb	r3, r4
 485 0036 5E2B     		cmp	r3, #94
 486 0038 00F29E80 		bhi	.L19
 405:../../libDaisy//src/hid/disp/display.h ****            || Height() < (currentY_ + font.FontHeight))
 487              		.loc 7 405 17 view .LVU92
 488 003c 3368     		ldr	r3, [r6]
 489 003e 5E4A     		ldr	r2, .L59
 490 0040 DB68     		ldr	r3, [r3, #12]
 491 0042 9342     		cmp	r3, r2
 492 0044 40F09B80 		bne	.L52
 493 0048 8020     		movs	r0, #128
 494              	.L18:
 405:../../libDaisy//src/hid/disp/display.h ****            || Height() < (currentY_ + font.FontHeight))
 495              		.loc 7 405 23 view .LVU93
 496 004a B388     		ldrh	r3, [r6, #4]
 405:../../libDaisy//src/hid/disp/display.h ****            || Height() < (currentY_ + font.FontHeight))
 497              		.loc 7 405 33 view .LVU94
 498 004c 2B44     		add	r3, r3, r5
 406:../../libDaisy//src/hid/disp/display.h ****         {
 499              		.loc 7 406 12 view .LVU95
 500 004e 8342     		cmp	r3, r0
 501 0050 00F39280 		bgt	.L19
 406:../../libDaisy//src/hid/disp/display.h ****         {
 502              		.loc 7 406 21 view .LVU96
 503 0054 3368     		ldr	r3, [r6]
 504 0056 594A     		ldr	r2, .L59+4
 505 0058 9B68     		ldr	r3, [r3, #8]
 506 005a 9342     		cmp	r3, r2
ARM GAS  /tmp/ccZePa4k.s 			page 30


 507 005c 40F09280 		bne	.L53
 508 0060 4020     		movs	r0, #64
 509              	.L20:
 406:../../libDaisy//src/hid/disp/display.h ****         {
 510              		.loc 7 406 27 view .LVU97
 511 0062 F188     		ldrh	r1, [r6, #6]
 406:../../libDaisy//src/hid/disp/display.h ****         {
 512              		.loc 7 406 37 view .LVU98
 513 0064 039A     		ldr	r2, [sp, #12]
 406:../../libDaisy//src/hid/disp/display.h ****         {
 514              		.loc 7 406 27 view .LVU99
 515 0066 0291     		str	r1, [sp, #8]
 406:../../libDaisy//src/hid/disp/display.h ****         {
 516              		.loc 7 406 37 view .LVU100
 517 0068 8B18     		adds	r3, r1, r2
 406:../../libDaisy//src/hid/disp/display.h ****         {
 518              		.loc 7 406 12 view .LVU101
 519 006a 8342     		cmp	r3, r0
 520 006c 00F38480 		bgt	.L19
 521              	.LVL30:
 413:../../libDaisy//src/hid/disp/display.h ****         {
 522              		.loc 7 413 22 is_stmt 1 view .LVU102
 523 0070 002A     		cmp	r2, #0
 524 0072 00F09180 		beq	.L21
 415:../../libDaisy//src/hid/disp/display.h ****             for(j = 0; j < font.FontWidth; j++)
 525              		.loc 7 415 37 is_stmt 0 view .LVU103
 526 0076 02FB04F4 		mul	r4, r2, r4
 527 007a 6FF00049 		mvn	r9, #-2147483648
 528 007e 059B     		ldr	r3, [sp, #20]
 529 0080 A144     		add	r9, r9, r4
 530 0082 1444     		add	r4, r4, r2
 434:../../libDaisy//src/hid/disp/display.h **** 
 531              		.loc 7 434 19 view .LVU104
 532 0084 B6F804B0 		ldrh	fp, [r6, #4]
 533 0088 03EB4909 		add	r9, r3, r9, lsl #1
 534 008c 023B     		subs	r3, r3, #2
 535 008e CDF81080 		str	r8, [sp, #16]
 536 0092 03EB4403 		add	r3, r3, r4, lsl #1
 537 0096 0C46     		mov	r4, r1
 538 0098 9A46     		mov	r10, r3
 539              	.LVL31:
 540              	.L24:
 415:../../libDaisy//src/hid/disp/display.h ****             for(j = 0; j < font.FontWidth; j++)
 541              		.loc 7 415 15 view .LVU105
 542 009a 39F802CF 		ldrh	ip, [r9, #2]!
 543              	.LVL32:
 416:../../libDaisy//src/hid/disp/display.h ****             {
 544              		.loc 7 416 26 is_stmt 1 view .LVU106
 545 009e A5B3     		cbz	r5, .L29
 546              	.LBB394:
 547              	.LBB395:
 548              	.LBB396:
 549              	.LBB397:
 550              	.LBB398:
 259:../../libDaisy//src/dev/oled_ssd130x.h ****     }
 551              		.loc 8 259 55 is_stmt 0 view .LVU107
 552 00a0 04F00703 		and	r3, r4, #7
ARM GAS  /tmp/ccZePa4k.s 			page 31


 259:../../libDaisy//src/dev/oled_ssd130x.h ****     }
 553              		.loc 8 259 49 view .LVU108
 554 00a4 4FF0010E 		mov	lr, #1
 259:../../libDaisy//src/dev/oled_ssd130x.h ****     }
 555              		.loc 8 259 28 view .LVU109
 556 00a8 E208     		lsrs	r2, r4, #3
 557 00aa 5946     		mov	r1, fp
 259:../../libDaisy//src/dev/oled_ssd130x.h ****     }
 558              		.loc 8 259 49 view .LVU110
 559 00ac 0EFA03FE 		lsl	lr, lr, r3
 560 00b0 0BF11403 		add	r3, fp, #20
 259:../../libDaisy//src/dev/oled_ssd130x.h ****     }
 561              		.loc 8 259 42 view .LVU111
 562 00b4 4FFA8EFE 		sxtb	lr, lr
 563 00b8 03EBC212 		add	r2, r3, r2, lsl #7
 564              	.LBE398:
 565              	.LBE397:
 566              	.LBE396:
 567              	.LBE395:
 568              	.LBE394:
 416:../../libDaisy//src/hid/disp/display.h ****             {
 569              		.loc 7 416 19 view .LVU112
 570 00bc 0023     		movs	r3, #0
 571              	.LBB416:
 572              	.LBB411:
 573              	.LBB406:
 574              	.LBB402:
 575              	.LBB399:
 259:../../libDaisy//src/dev/oled_ssd130x.h ****     }
 576              		.loc 8 259 42 view .LVU113
 577 00be 6FEA0E08 		mvn	r8, lr
 578 00c2 3244     		add	r2, r2, r6
 579 00c4 0DE0     		b	.L30
 580              	.LVL33:
 581              	.L54:
 259:../../libDaisy//src/dev/oled_ssd130x.h ****     }
 582              		.loc 8 259 42 view .LVU114
 583              	.LBE399:
 584              	.LBE402:
 585              	.LBE406:
 586              	.LBE411:
 587              	.LBE416:
 588              	.LBB417:
 589              	.LBI417:
  42:../../libDaisy//src/hid/disp/oled_display.h ****     {
 590              		.loc 6 42 10 is_stmt 1 view .LVU115
 591              	.LBB418:
 592              	.LBI418:
 252:../../libDaisy//src/dev/oled_ssd130x.h ****     {
 593              		.loc 8 252 10 view .LVU116
 594              	.LBB419:
 254:../../libDaisy//src/dev/oled_ssd130x.h ****             return;
 595              		.loc 8 254 9 is_stmt 0 view .LVU117
 596 00c6 7F29     		cmp	r1, #127
 597 00c8 06D8     		bhi	.L26
 598 00ca 3F2C     		cmp	r4, #63
 599 00cc 04D8     		bhi	.L26
ARM GAS  /tmp/ccZePa4k.s 			page 32


 257:../../libDaisy//src/dev/oled_ssd130x.h ****         else
 600              		.loc 8 257 42 view .LVU118
 601 00ce 1078     		ldrb	r0, [r2]	@ zero_extendqisi2
 256:../../libDaisy//src/dev/oled_ssd130x.h ****             buffer_[x + (y / 8) * width] |= (1 << (y % 8));
 602              		.loc 8 256 9 view .LVU119
 603 00d0 97B1     		cbz	r7, .L28
 604              	.L51:
 256:../../libDaisy//src/dev/oled_ssd130x.h ****             buffer_[x + (y / 8) * width] |= (1 << (y % 8));
 605              		.loc 8 256 9 view .LVU120
 606              	.LBE419:
 607              	.LBE418:
 608              	.LBE417:
 609              	.LBB420:
 610              	.LBB412:
 611              	.LBB407:
 257:../../libDaisy//src/dev/oled_ssd130x.h ****         else
 612              		.loc 8 257 42 view .LVU121
 613 00d2 4EEA0000 		orr	r0, lr, r0
 614 00d6 1070     		strb	r0, [r2]
 615              	.L26:
 616              	.LBE407:
 617              	.LBE412:
 618              	.LBE420:
 416:../../libDaisy//src/hid/disp/display.h ****             {
 619              		.loc 7 416 13 is_stmt 1 view .LVU122
 620 00d8 0133     		adds	r3, r3, #1
 621              	.LVL34:
 416:../../libDaisy//src/hid/disp/display.h ****             {
 622              		.loc 7 416 26 view .LVU123
 623 00da 0132     		adds	r2, r2, #1
 624 00dc 0131     		adds	r1, r1, #1
 625 00de AB42     		cmp	r3, r5
 626 00e0 13D0     		beq	.L29
 627              	.LVL35:
 628              	.L30:
 418:../../libDaisy//src/hid/disp/display.h ****                 {
 629              		.loc 7 418 23 is_stmt 0 view .LVU124
 630 00e2 0CFA03F0 		lsl	r0, ip, r3
 418:../../libDaisy//src/hid/disp/display.h ****                 {
 631              		.loc 7 418 17 view .LVU125
 632 00e6 0004     		lsls	r0, r0, #16
 633 00e8 EDD4     		bmi	.L54
 634              	.LVL36:
 635              	.LBB421:
 636              	.LBI394:
  42:../../libDaisy//src/hid/disp/oled_display.h ****     {
 637              		.loc 6 42 10 is_stmt 1 view .LVU126
 638              	.LBB413:
 639              	.LBI395:
 252:../../libDaisy//src/dev/oled_ssd130x.h ****     {
 640              		.loc 8 252 10 view .LVU127
 641              	.LBB408:
 254:../../libDaisy//src/dev/oled_ssd130x.h ****             return;
 642              		.loc 8 254 9 is_stmt 0 view .LVU128
 643 00ea 7F29     		cmp	r1, #127
 644 00ec F4D8     		bhi	.L26
 645 00ee 3F2C     		cmp	r4, #63
ARM GAS  /tmp/ccZePa4k.s 			page 33


 646 00f0 F2D8     		bhi	.L26
 257:../../libDaisy//src/dev/oled_ssd130x.h ****         else
 647              		.loc 8 257 42 view .LVU129
 648 00f2 1078     		ldrb	r0, [r2]	@ zero_extendqisi2
 256:../../libDaisy//src/dev/oled_ssd130x.h ****             buffer_[x + (y / 8) * width] |= (1 << (y % 8));
 649              		.loc 8 256 9 view .LVU130
 650 00f4 002F     		cmp	r7, #0
 651 00f6 ECD0     		beq	.L51
 652              	.L28:
 653              	.LVL37:
 654              	.LBB403:
 655              	.LBI397:
 252:../../libDaisy//src/dev/oled_ssd130x.h ****     {
 656              		.loc 8 252 10 is_stmt 1 view .LVU131
 252:../../libDaisy//src/dev/oled_ssd130x.h ****     {
 657              		.loc 8 252 10 is_stmt 0 view .LVU132
 658              	.LBE403:
 659              	.LBE408:
 660              	.LBE413:
 661              	.LBE421:
 416:../../libDaisy//src/hid/disp/display.h ****             {
 662              		.loc 7 416 13 view .LVU133
 663 00f8 0133     		adds	r3, r3, #1
 664              	.LVL38:
 665              	.LBB422:
 666              	.LBB414:
 667              	.LBB409:
 668              	.LBB404:
 669              	.LBB400:
 259:../../libDaisy//src/dev/oled_ssd130x.h ****     }
 670              		.loc 8 259 42 view .LVU134
 671 00fa 08EA0000 		and	r0, r8, r0
 672              	.LBE400:
 673              	.LBE404:
 674              	.LBE409:
 675              	.LBE414:
 676              	.LBE422:
 416:../../libDaisy//src/hid/disp/display.h ****             {
 677              		.loc 7 416 26 view .LVU135
 678 00fe 0132     		adds	r2, r2, #1
 679 0100 0131     		adds	r1, r1, #1
 680 0102 AB42     		cmp	r3, r5
 681              	.LBB423:
 682              	.LBB415:
 683              	.LBB410:
 684              	.LBB405:
 685              	.LBB401:
 259:../../libDaisy//src/dev/oled_ssd130x.h ****     }
 686              		.loc 8 259 42 view .LVU136
 687 0104 02F8010C 		strb	r0, [r2, #-1]
 259:../../libDaisy//src/dev/oled_ssd130x.h ****     }
 688              		.loc 8 259 42 view .LVU137
 689              	.LBE401:
 690              	.LBE405:
 691              	.LBE410:
 692              	.LBE415:
 693              	.LBE423:
ARM GAS  /tmp/ccZePa4k.s 			page 34


 416:../../libDaisy//src/hid/disp/display.h ****             {
 694              		.loc 7 416 13 is_stmt 1 view .LVU138
 695              	.LVL39:
 416:../../libDaisy//src/hid/disp/display.h ****             {
 696              		.loc 7 416 26 view .LVU139
 697 0108 EBD1     		bne	.L30
 698              	.LVL40:
 699              	.L29:
 413:../../libDaisy//src/hid/disp/display.h ****         {
 700              		.loc 7 413 9 view .LVU140
 413:../../libDaisy//src/hid/disp/display.h ****         {
 701              		.loc 7 413 22 view .LVU141
 702 010a D145     		cmp	r9, r10
 703 010c 04F10104 		add	r4, r4, #1
 704 0110 C3D1     		bne	.L24
 705 0112 DDF81080 		ldr	r8, [sp, #16]
 706              	.LVL41:
 707              	.L23:
 708              	.LBB424:
 709              	.LBB425:
 173:../../libDaisy//src/hid/disp/display.h ****         currentY_ = (y >= Height()) ? Height() - 1 : y;
 710              		.loc 7 173 33 is_stmt 0 view .LVU142
 711 0116 3268     		ldr	r2, [r6]
 712              	.LBE425:
 713              	.LBE424:
 434:../../libDaisy//src/hid/disp/display.h **** 
 714              		.loc 7 434 18 view .LVU143
 715 0118 0BEB0504 		add	r4, fp, r5
 716 011c 2649     		ldr	r1, .L59
 717              	.LBB430:
 718              	.LBB426:
 173:../../libDaisy//src/hid/disp/display.h ****         currentY_ = (y >= Height()) ? Height() - 1 : y;
 719              		.loc 7 173 33 view .LVU144
 720 011e D368     		ldr	r3, [r2, #12]
 721              	.LBE426:
 722              	.LBE430:
 434:../../libDaisy//src/hid/disp/display.h **** 
 723              		.loc 7 434 18 view .LVU145
 724 0120 A4B2     		uxth	r4, r4
 725              	.LVL42:
 726              	.LBB431:
 727              	.LBI424:
 171:../../libDaisy//src/hid/disp/display.h ****     {
 728              		.loc 7 171 10 is_stmt 1 view .LVU146
 729              	.LBB427:
 173:../../libDaisy//src/hid/disp/display.h ****         currentY_ = (y >= Height()) ? Height() - 1 : y;
 730              		.loc 7 173 9 view .LVU147
 731 0122 8B42     		cmp	r3, r1
 732 0124 34D1     		bne	.L55
 173:../../libDaisy//src/hid/disp/display.h ****         currentY_ = (y >= Height()) ? Height() - 1 : y;
 733              		.loc 7 173 33 is_stmt 0 view .LVU148
 734 0126 8020     		movs	r0, #128
 735              	.L31:
 173:../../libDaisy//src/hid/disp/display.h ****         currentY_ = (y >= Height()) ? Height() - 1 : y;
 736              		.loc 7 173 19 view .LVU149
 737 0128 8442     		cmp	r4, r0
 738 012a 04D3     		bcc	.L32
ARM GAS  /tmp/ccZePa4k.s 			page 35


 173:../../libDaisy//src/hid/disp/display.h ****         currentY_ = (y >= Height()) ? Height() - 1 : y;
 739              		.loc 7 173 44 view .LVU150
 740 012c D368     		ldr	r3, [r2, #12]
 741 012e 2249     		ldr	r1, .L59
 742 0130 8B42     		cmp	r3, r1
 743 0132 3AD1     		bne	.L56
 744 0134 7F24     		movs	r4, #127
 745              	.LVL43:
 746              	.L32:
 174:../../libDaisy//src/hid/disp/display.h ****     }
 747              		.loc 7 174 34 view .LVU151
 748 0136 9368     		ldr	r3, [r2, #8]
 749 0138 204A     		ldr	r2, .L59+4
 173:../../libDaisy//src/hid/disp/display.h ****         currentY_ = (y >= Height()) ? Height() - 1 : y;
 750              		.loc 7 173 19 view .LVU152
 751 013a B480     		strh	r4, [r6, #4]	@ movhi
 174:../../libDaisy//src/hid/disp/display.h ****     }
 752              		.loc 7 174 9 is_stmt 1 view .LVU153
 753 013c 9342     		cmp	r3, r2
 754 013e 24D1     		bne	.L57
 174:../../libDaisy//src/hid/disp/display.h ****     }
 755              		.loc 7 174 34 is_stmt 0 view .LVU154
 756 0140 4020     		movs	r0, #64
 757              	.L34:
 174:../../libDaisy//src/hid/disp/display.h ****     }
 758              		.loc 7 174 19 view .LVU155
 759 0142 029B     		ldr	r3, [sp, #8]
 760 0144 8342     		cmp	r3, r0
 761 0146 06D3     		bcc	.L35
 174:../../libDaisy//src/hid/disp/display.h ****     }
 762              		.loc 7 174 46 view .LVU156
 763 0148 3368     		ldr	r3, [r6]
 764 014a 1C4A     		ldr	r2, .L59+4
 765 014c 9B68     		ldr	r3, [r3, #8]
 766 014e 9342     		cmp	r3, r2
 767 0150 25D1     		bne	.L58
 768 0152 3F23     		movs	r3, #63
 769 0154 0293     		str	r3, [sp, #8]
 770              	.LVL44:
 771              	.L35:
 174:../../libDaisy//src/hid/disp/display.h ****     }
 772              		.loc 7 174 19 view .LVU157
 773 0156 029B     		ldr	r3, [sp, #8]
 774 0158 F380     		strh	r3, [r6, #6]	@ movhi
 775              	.LVL45:
 776              	.L17:
 174:../../libDaisy//src/hid/disp/display.h ****     }
 777              		.loc 7 174 19 view .LVU158
 778              	.LBE427:
 779              	.LBE431:
 780              	.LBE393:
 781              	.LBE392:
 444:../../libDaisy//src/hid/disp/display.h ****         {
 445:../../libDaisy//src/hid/disp/display.h ****             if(((ChildType*)(this))->ChildType::WriteChar(*str, font, on)
 446:../../libDaisy//src/hid/disp/display.h ****                != *str)
 782              		.loc 7 446 16 view .LVU159
 783 015a 019B     		ldr	r3, [sp, #4]
ARM GAS  /tmp/ccZePa4k.s 			page 36


 784 015c 1878     		ldrb	r0, [r3]	@ zero_extendqisi2
 445:../../libDaisy//src/hid/disp/display.h ****                != *str)
 785              		.loc 7 445 13 view .LVU160
 786 015e 4045     		cmp	r0, r8
 787 0160 07D1     		bne	.L15
 788              	.LVL46:
 443:../../libDaisy//src/hid/disp/display.h ****         {
 789              		.loc 7 443 9 is_stmt 1 view .LVU161
 790 0162 13F8018F 		ldrb	r8, [r3, #1]!	@ zero_extendqisi2
 791              	.LVL47:
 443:../../libDaisy//src/hid/disp/display.h ****         {
 792              		.loc 7 443 9 is_stmt 0 view .LVU162
 793 0166 0193     		str	r3, [sp, #4]
 794 0168 B8F1000F 		cmp	r8, #0
 795 016c 7FF460AF 		bne	.L38
 796              	.LVL48:
 797              	.L37:
 798              	.LBB436:
 799              	.LBB434:
 402:../../libDaisy//src/hid/disp/display.h **** 
 800              		.loc 7 402 20 view .LVU163
 801 0170 0020     		movs	r0, #0
 802              	.L15:
 803              	.LBE434:
 804              	.LBE436:
 447:../../libDaisy//src/hid/disp/display.h ****             {
 448:../../libDaisy//src/hid/disp/display.h ****                 // Char could not be written
 449:../../libDaisy//src/hid/disp/display.h ****                 return *str;
 450:../../libDaisy//src/hid/disp/display.h ****             }
 451:../../libDaisy//src/hid/disp/display.h **** 
 452:../../libDaisy//src/hid/disp/display.h ****             // Next char
 453:../../libDaisy//src/hid/disp/display.h ****             str++;
 454:../../libDaisy//src/hid/disp/display.h ****         }
 455:../../libDaisy//src/hid/disp/display.h **** 
 456:../../libDaisy//src/hid/disp/display.h ****         // Everything ok
 457:../../libDaisy//src/hid/disp/display.h ****         return *str;
 458:../../libDaisy//src/hid/disp/display.h ****     }
 805              		.loc 7 458 5 view .LVU164
 806 0172 09B0     		add	sp, sp, #36
 807              		.cfi_remember_state
 808              		.cfi_def_cfa_offset 36
 809              		@ sp needed
 810 0174 BDE8F08F 		pop	{r4, r5, r6, r7, r8, r9, r10, fp, pc}
 811              	.LVL49:
 812              	.L19:
 813              		.cfi_restore_state
 814              	.LBB437:
 815              	.LBB435:
 402:../../libDaisy//src/hid/disp/display.h **** 
 816              		.loc 7 402 20 view .LVU165
 817 0178 4FF00008 		mov	r8, #0
 818              	.LVL50:
 402:../../libDaisy//src/hid/disp/display.h **** 
 819              		.loc 7 402 20 view .LVU166
 820 017c EDE7     		b	.L17
 821              	.LVL51:
 822              	.L52:
ARM GAS  /tmp/ccZePa4k.s 			page 37


 405:../../libDaisy//src/hid/disp/display.h ****            || Height() < (currentY_ + font.FontHeight))
 823              		.loc 7 405 17 view .LVU167
 824 017e 3046     		mov	r0, r6
 825 0180 9847     		blx	r3
 826              	.LVL52:
 827 0182 62E7     		b	.L18
 828              	.L53:
 406:../../libDaisy//src/hid/disp/display.h ****         {
 829              		.loc 7 406 21 view .LVU168
 830 0184 3046     		mov	r0, r6
 831 0186 9847     		blx	r3
 832              	.LVL53:
 833 0188 6BE7     		b	.L20
 834              	.LVL54:
 835              	.L57:
 836              	.LBB432:
 837              	.LBB428:
 174:../../libDaisy//src/hid/disp/display.h ****     }
 838              		.loc 7 174 33 view .LVU169
 839 018a 3046     		mov	r0, r6
 840 018c 9847     		blx	r3
 841              	.LVL55:
 842 018e D8E7     		b	.L34
 843              	.LVL56:
 844              	.L55:
 173:../../libDaisy//src/hid/disp/display.h ****         currentY_ = (y >= Height()) ? Height() - 1 : y;
 845              		.loc 7 173 32 view .LVU170
 846 0190 3046     		mov	r0, r6
 847 0192 9847     		blx	r3
 848              	.LVL57:
 173:../../libDaisy//src/hid/disp/display.h ****         currentY_ = (y >= Height()) ? Height() - 1 : y;
 849              		.loc 7 173 44 view .LVU171
 850 0194 3268     		ldr	r2, [r6]
 851 0196 C7E7     		b	.L31
 852              	.LVL58:
 853              	.L21:
 173:../../libDaisy//src/hid/disp/display.h ****         currentY_ = (y >= Height()) ? Height() - 1 : y;
 854              		.loc 7 173 44 view .LVU172
 855              	.LBE428:
 856              	.LBE432:
 434:../../libDaisy//src/hid/disp/display.h **** 
 857              		.loc 7 434 19 view .LVU173
 858 0198 B6F804B0 		ldrh	fp, [r6, #4]
 859 019c BBE7     		b	.L23
 860              	.LVL59:
 861              	.L58:
 862              	.LBB433:
 863              	.LBB429:
 174:../../libDaisy//src/hid/disp/display.h ****     }
 864              		.loc 7 174 45 view .LVU174
 865 019e 3046     		mov	r0, r6
 866 01a0 9847     		blx	r3
 867              	.LVL60:
 174:../../libDaisy//src/hid/disp/display.h ****     }
 868              		.loc 7 174 19 view .LVU175
 869 01a2 0138     		subs	r0, r0, #1
 870 01a4 83B2     		uxth	r3, r0
ARM GAS  /tmp/ccZePa4k.s 			page 38


 871 01a6 0293     		str	r3, [sp, #8]
 872              	.LVL61:
 174:../../libDaisy//src/hid/disp/display.h ****     }
 873              		.loc 7 174 19 view .LVU176
 874 01a8 D5E7     		b	.L35
 875              	.LVL62:
 876              	.L56:
 173:../../libDaisy//src/hid/disp/display.h ****         currentY_ = (y >= Height()) ? Height() - 1 : y;
 877              		.loc 7 173 43 view .LVU177
 878 01aa 3046     		mov	r0, r6
 879 01ac 9847     		blx	r3
 880              	.LVL63:
 173:../../libDaisy//src/hid/disp/display.h ****         currentY_ = (y >= Height()) ? Height() - 1 : y;
 881              		.loc 7 173 19 view .LVU178
 882 01ae 0138     		subs	r0, r0, #1
 174:../../libDaisy//src/hid/disp/display.h ****     }
 883              		.loc 7 174 34 view .LVU179
 884 01b0 3268     		ldr	r2, [r6]
 173:../../libDaisy//src/hid/disp/display.h ****         currentY_ = (y >= Height()) ? Height() - 1 : y;
 885              		.loc 7 173 19 view .LVU180
 886 01b2 84B2     		uxth	r4, r0
 887              	.LVL64:
 173:../../libDaisy//src/hid/disp/display.h ****         currentY_ = (y >= Height()) ? Height() - 1 : y;
 888              		.loc 7 173 19 view .LVU181
 889 01b4 BFE7     		b	.L32
 890              	.L60:
 891 01b6 00BF     		.align	2
 892              	.L59:
 893 01b8 00000000 		.word	_ZNK5daisy11OledDisplayINS_13SSD130xDriverILj128ELj64ENS_24SSD130x4WireSpiTransportEEEE5Widt
 894 01bc 00000000 		.word	_ZNK5daisy11OledDisplayINS_13SSD130xDriverILj128ELj64ENS_24SSD130x4WireSpiTransportEEEE6Heig
 895              	.LBE429:
 896              	.LBE433:
 897              	.LBE435:
 898              	.LBE437:
 899              		.cfi_endproc
 900              	.LFE2606:
 902              		.section	.text._ZN5daisy25OneBitGraphicsDisplayImplINS_11OledDisplayINS_13SSD130xDriverILj128ELj64
 903              		.align	1
 904              		.p2align 2,,3
 905              		.weak	_ZN5daisy25OneBitGraphicsDisplayImplINS_11OledDisplayINS_13SSD130xDriverILj128ELj64ENS_24SSD
 906              		.syntax unified
 907              		.thumb
 908              		.thumb_func
 910              	_ZN5daisy25OneBitGraphicsDisplayImplINS_11OledDisplayINS_13SSD130xDriverILj128ELj64ENS_24SSD130x4Wi
 911              	.LVL65:
 912              	.LFB2605:
 396:../../libDaisy//src/hid/disp/display.h ****     {
 913              		.loc 7 396 10 is_stmt 1 view -0
 914              		.cfi_startproc
 915              		@ args = 4, pretend = 0, frame = 16
 916              		@ frame_needed = 0, uses_anonymous_args = 0
 396:../../libDaisy//src/hid/disp/display.h ****     {
 917              		.loc 7 396 10 is_stmt 0 view .LVU183
 918 0000 2DE9F04F 		push	{r4, r5, r6, r7, r8, r9, r10, fp, lr}
 919              		.cfi_def_cfa_offset 36
 920              		.cfi_offset 4, -36
 921              		.cfi_offset 5, -32
ARM GAS  /tmp/ccZePa4k.s 			page 39


 922              		.cfi_offset 6, -28
 923              		.cfi_offset 7, -24
 924              		.cfi_offset 8, -20
 925              		.cfi_offset 9, -16
 926              		.cfi_offset 10, -12
 927              		.cfi_offset 11, -8
 928              		.cfi_offset 14, -4
 929 0004 85B0     		sub	sp, sp, #20
 930              		.cfi_def_cfa_offset 56
 931              	.LVL66:
 401:../../libDaisy//src/hid/disp/display.h ****             return 0;
 932              		.loc 7 401 20 view .LVU184
 933 0006 A1F12005 		sub	r5, r1, #32
 396:../../libDaisy//src/hid/disp/display.h ****     {
 934              		.loc 7 396 10 view .LVU185
 935 000a 04AC     		add	r4, sp, #16
 936 000c 9DF83870 		ldrb	r7, [sp, #56]	@ zero_extendqisi2
 937 0010 0091     		str	r1, [sp]
 938 0012 04E90C00 		stmdb	r4, {r2, r3}
 939              	.LVL67:
 401:../../libDaisy//src/hid/disp/display.h ****             return 0;
 940              		.loc 7 401 9 view .LVU186
 941 0016 EBB2     		uxtb	r3, r5
 942 0018 5E2B     		cmp	r3, #94
 943 001a 00F29580 		bhi	.L65
 405:../../libDaisy//src/hid/disp/display.h ****            || Height() < (currentY_ + font.FontHeight))
 944              		.loc 7 405 17 view .LVU187
 945 001e 0368     		ldr	r3, [r0]
 946 0020 8046     		mov	r8, r0
 947 0022 5D4A     		ldr	r2, .L100
 948 0024 DB68     		ldr	r3, [r3, #12]
 949 0026 9DF80840 		ldrb	r4, [sp, #8]	@ zero_extendqisi2
 950 002a 9342     		cmp	r3, r2
 951 002c 9DF80960 		ldrb	r6, [sp, #9]	@ zero_extendqisi2
 952 0030 40F09480 		bne	.L92
 953 0034 8020     		movs	r0, #128
 954              	.LVL68:
 955              	.L64:
 405:../../libDaisy//src/hid/disp/display.h ****            || Height() < (currentY_ + font.FontHeight))
 956              		.loc 7 405 23 view .LVU188
 957 0036 B8F80430 		ldrh	r3, [r8, #4]
 405:../../libDaisy//src/hid/disp/display.h ****            || Height() < (currentY_ + font.FontHeight))
 958              		.loc 7 405 33 view .LVU189
 959 003a 2344     		add	r3, r3, r4
 406:../../libDaisy//src/hid/disp/display.h ****         {
 960              		.loc 7 406 12 view .LVU190
 961 003c 8342     		cmp	r3, r0
 962 003e 00F38380 		bgt	.L65
 406:../../libDaisy//src/hid/disp/display.h ****         {
 963              		.loc 7 406 21 discriminator 2 view .LVU191
 964 0042 D8F80030 		ldr	r3, [r8]
 965 0046 554A     		ldr	r2, .L100+4
 966 0048 9B68     		ldr	r3, [r3, #8]
 967 004a 9342     		cmp	r3, r2
 968 004c 40F08880 		bne	.L93
 406:../../libDaisy//src/hid/disp/display.h ****         {
 969              		.loc 7 406 21 view .LVU192
ARM GAS  /tmp/ccZePa4k.s 			page 40


 970 0050 4020     		movs	r0, #64
 971              	.L66:
 406:../../libDaisy//src/hid/disp/display.h ****         {
 972              		.loc 7 406 27 discriminator 2 view .LVU193
 973 0052 B8F80620 		ldrh	r2, [r8, #6]
 406:../../libDaisy//src/hid/disp/display.h ****         {
 974              		.loc 7 406 37 discriminator 2 view .LVU194
 975 0056 9319     		adds	r3, r2, r6
 406:../../libDaisy//src/hid/disp/display.h ****         {
 976              		.loc 7 406 27 discriminator 2 view .LVU195
 977 0058 0192     		str	r2, [sp, #4]
 406:../../libDaisy//src/hid/disp/display.h ****         {
 978              		.loc 7 406 12 discriminator 2 view .LVU196
 979 005a 8342     		cmp	r3, r0
 980 005c 74DC     		bgt	.L65
 981              	.LVL69:
 413:../../libDaisy//src/hid/disp/display.h ****         {
 982              		.loc 7 413 22 is_stmt 1 view .LVU197
 983 005e 002E     		cmp	r6, #0
 984 0060 00F08980 		beq	.L67
 415:../../libDaisy//src/hid/disp/display.h ****             for(j = 0; j < font.FontWidth; j++)
 985              		.loc 7 415 37 is_stmt 0 view .LVU198
 986 0064 06FB05F5 		mul	r5, r6, r5
 987 0068 6FF00040 		mvn	r0, #-2147483648
 415:../../libDaisy//src/hid/disp/display.h ****             for(j = 0; j < font.FontWidth; j++)
 988              		.loc 7 415 22 view .LVU199
 989 006c 039B     		ldr	r3, [sp, #12]
 990 006e 9646     		mov	lr, r2
 991 0070 2844     		add	r0, r0, r5
 992 0072 2E44     		add	r6, r6, r5
 434:../../libDaisy//src/hid/disp/display.h **** 
 993              		.loc 7 434 19 view .LVU200
 994 0074 B8F804A0 		ldrh	r10, [r8, #4]
 995 0078 03EB4000 		add	r0, r3, r0, lsl #1
 996 007c 023B     		subs	r3, r3, #2
 997 007e 03EB460B 		add	fp, r3, r6, lsl #1
 998              	.LVL70:
 999              	.L70:
 415:../../libDaisy//src/hid/disp/display.h ****             for(j = 0; j < font.FontWidth; j++)
 1000              		.loc 7 415 15 view .LVU201
 1001 0082 30F8026F 		ldrh	r6, [r0, #2]!
 1002              	.LVL71:
 416:../../libDaisy//src/hid/disp/display.h ****             {
 1003              		.loc 7 416 26 is_stmt 1 view .LVU202
 1004 0086 BCB3     		cbz	r4, .L75
 1005              	.LBB468:
 1006              	.LBB469:
 1007              	.LBB470:
 1008              	.LBB471:
 1009              	.LBB472:
 259:../../libDaisy//src/dev/oled_ssd130x.h ****     }
 1010              		.loc 8 259 55 is_stmt 0 view .LVU203
 1011 0088 0EF00703 		and	r3, lr, #7
 259:../../libDaisy//src/dev/oled_ssd130x.h ****     }
 1012              		.loc 8 259 49 view .LVU204
 1013 008c 4FF0010C 		mov	ip, #1
 259:../../libDaisy//src/dev/oled_ssd130x.h ****     }
ARM GAS  /tmp/ccZePa4k.s 			page 41


 1014              		.loc 8 259 28 view .LVU205
 1015 0090 4FEADE02 		lsr	r2, lr, #3
 1016 0094 5146     		mov	r1, r10
 259:../../libDaisy//src/dev/oled_ssd130x.h ****     }
 1017              		.loc 8 259 49 view .LVU206
 1018 0096 0CFA03FC 		lsl	ip, ip, r3
 1019 009a 0AF11403 		add	r3, r10, #20
 259:../../libDaisy//src/dev/oled_ssd130x.h ****     }
 1020              		.loc 8 259 42 view .LVU207
 1021 009e 4FFA8CFC 		sxtb	ip, ip
 1022 00a2 03EBC212 		add	r2, r3, r2, lsl #7
 1023              	.LBE472:
 1024              	.LBE471:
 1025              	.LBE470:
 1026              	.LBE469:
 1027              	.LBE468:
 416:../../libDaisy//src/hid/disp/display.h ****             {
 1028              		.loc 7 416 19 view .LVU208
 1029 00a6 0023     		movs	r3, #0
 1030              	.LBB490:
 1031              	.LBB485:
 1032              	.LBB480:
 1033              	.LBB476:
 1034              	.LBB473:
 259:../../libDaisy//src/dev/oled_ssd130x.h ****     }
 1035              		.loc 8 259 42 view .LVU209
 1036 00a8 6FEA0C09 		mvn	r9, ip
 1037 00ac 4244     		add	r2, r2, r8
 1038 00ae 0EE0     		b	.L76
 1039              	.LVL72:
 1040              	.L94:
 259:../../libDaisy//src/dev/oled_ssd130x.h ****     }
 1041              		.loc 8 259 42 view .LVU210
 1042              	.LBE473:
 1043              	.LBE476:
 1044              	.LBE480:
 1045              	.LBE485:
 1046              	.LBE490:
 1047              	.LBB491:
 1048              	.LBI491:
  42:../../libDaisy//src/hid/disp/oled_display.h ****     {
 1049              		.loc 6 42 10 is_stmt 1 view .LVU211
 1050              	.LBB492:
 1051              	.LBI492:
 252:../../libDaisy//src/dev/oled_ssd130x.h ****     {
 1052              		.loc 8 252 10 view .LVU212
 1053              	.LBB493:
 254:../../libDaisy//src/dev/oled_ssd130x.h ****             return;
 1054              		.loc 8 254 9 is_stmt 0 view .LVU213
 1055 00b0 7F29     		cmp	r1, #127
 1056 00b2 07D8     		bhi	.L72
 1057 00b4 BEF13F0F 		cmp	lr, #63
 1058 00b8 04D8     		bhi	.L72
 257:../../libDaisy//src/dev/oled_ssd130x.h ****         else
 1059              		.loc 8 257 42 view .LVU214
 1060 00ba 1578     		ldrb	r5, [r2]	@ zero_extendqisi2
 256:../../libDaisy//src/dev/oled_ssd130x.h ****             buffer_[x + (y / 8) * width] |= (1 << (y % 8));
ARM GAS  /tmp/ccZePa4k.s 			page 42


 1061              		.loc 8 256 9 view .LVU215
 1062 00bc 9FB1     		cbz	r7, .L74
 1063              	.L91:
 256:../../libDaisy//src/dev/oled_ssd130x.h ****             buffer_[x + (y / 8) * width] |= (1 << (y % 8));
 1064              		.loc 8 256 9 view .LVU216
 1065              	.LBE493:
 1066              	.LBE492:
 1067              	.LBE491:
 1068              	.LBB494:
 1069              	.LBB486:
 1070              	.LBB481:
 257:../../libDaisy//src/dev/oled_ssd130x.h ****         else
 1071              		.loc 8 257 42 view .LVU217
 1072 00be 4CEA0505 		orr	r5, ip, r5
 1073 00c2 1570     		strb	r5, [r2]
 1074              	.L72:
 1075              	.LBE481:
 1076              	.LBE486:
 1077              	.LBE494:
 416:../../libDaisy//src/hid/disp/display.h ****             {
 1078              		.loc 7 416 13 is_stmt 1 discriminator 2 view .LVU218
 1079 00c4 0133     		adds	r3, r3, #1
 1080              	.LVL73:
 416:../../libDaisy//src/hid/disp/display.h ****             {
 1081              		.loc 7 416 26 discriminator 2 view .LVU219
 1082 00c6 0132     		adds	r2, r2, #1
 1083 00c8 0131     		adds	r1, r1, #1
 1084 00ca 9C42     		cmp	r4, r3
 1085 00cc 14D0     		beq	.L75
 1086              	.LVL74:
 1087              	.L76:
 418:../../libDaisy//src/hid/disp/display.h ****                 {
 1088              		.loc 7 418 23 is_stmt 0 view .LVU220
 1089 00ce 06FA03F5 		lsl	r5, r6, r3
 418:../../libDaisy//src/hid/disp/display.h ****                 {
 1090              		.loc 7 418 17 view .LVU221
 1091 00d2 2D04     		lsls	r5, r5, #16
 1092 00d4 ECD4     		bmi	.L94
 1093              	.LVL75:
 1094              	.LBB495:
 1095              	.LBI468:
  42:../../libDaisy//src/hid/disp/oled_display.h ****     {
 1096              		.loc 6 42 10 is_stmt 1 view .LVU222
 1097              	.LBB487:
 1098              	.LBI469:
 252:../../libDaisy//src/dev/oled_ssd130x.h ****     {
 1099              		.loc 8 252 10 view .LVU223
 1100              	.LBB482:
 254:../../libDaisy//src/dev/oled_ssd130x.h ****             return;
 1101              		.loc 8 254 9 is_stmt 0 view .LVU224
 1102 00d6 7F29     		cmp	r1, #127
 1103 00d8 F4D8     		bhi	.L72
 1104 00da BEF13F0F 		cmp	lr, #63
 1105 00de F1D8     		bhi	.L72
 257:../../libDaisy//src/dev/oled_ssd130x.h ****         else
 1106              		.loc 8 257 42 view .LVU225
 1107 00e0 1578     		ldrb	r5, [r2]	@ zero_extendqisi2
ARM GAS  /tmp/ccZePa4k.s 			page 43


 256:../../libDaisy//src/dev/oled_ssd130x.h ****             buffer_[x + (y / 8) * width] |= (1 << (y % 8));
 1108              		.loc 8 256 9 view .LVU226
 1109 00e2 002F     		cmp	r7, #0
 1110 00e4 EBD0     		beq	.L91
 1111              	.L74:
 1112              	.LVL76:
 1113              	.LBB477:
 1114              	.LBI471:
 252:../../libDaisy//src/dev/oled_ssd130x.h ****     {
 1115              		.loc 8 252 10 is_stmt 1 view .LVU227
 252:../../libDaisy//src/dev/oled_ssd130x.h ****     {
 1116              		.loc 8 252 10 is_stmt 0 view .LVU228
 1117              	.LBE477:
 1118              	.LBE482:
 1119              	.LBE487:
 1120              	.LBE495:
 416:../../libDaisy//src/hid/disp/display.h ****             {
 1121              		.loc 7 416 13 view .LVU229
 1122 00e6 0133     		adds	r3, r3, #1
 1123              	.LVL77:
 1124              	.LBB496:
 1125              	.LBB488:
 1126              	.LBB483:
 1127              	.LBB478:
 1128              	.LBB474:
 259:../../libDaisy//src/dev/oled_ssd130x.h ****     }
 1129              		.loc 8 259 42 view .LVU230
 1130 00e8 09EA0505 		and	r5, r9, r5
 1131              	.LBE474:
 1132              	.LBE478:
 1133              	.LBE483:
 1134              	.LBE488:
 1135              	.LBE496:
 416:../../libDaisy//src/hid/disp/display.h ****             {
 1136              		.loc 7 416 26 view .LVU231
 1137 00ec 0132     		adds	r2, r2, #1
 1138 00ee 0131     		adds	r1, r1, #1
 1139 00f0 9C42     		cmp	r4, r3
 1140              	.LBB497:
 1141              	.LBB489:
 1142              	.LBB484:
 1143              	.LBB479:
 1144              	.LBB475:
 259:../../libDaisy//src/dev/oled_ssd130x.h ****     }
 1145              		.loc 8 259 42 view .LVU232
 1146 00f2 02F8015C 		strb	r5, [r2, #-1]
 259:../../libDaisy//src/dev/oled_ssd130x.h ****     }
 1147              		.loc 8 259 42 view .LVU233
 1148              	.LBE475:
 1149              	.LBE479:
 1150              	.LBE484:
 1151              	.LBE489:
 1152              	.LBE497:
 416:../../libDaisy//src/hid/disp/display.h ****             {
 1153              		.loc 7 416 13 is_stmt 1 view .LVU234
 1154              	.LVL78:
 416:../../libDaisy//src/hid/disp/display.h ****             {
ARM GAS  /tmp/ccZePa4k.s 			page 44


 1155              		.loc 7 416 26 view .LVU235
 1156 00f6 EAD1     		bne	.L76
 1157              	.LVL79:
 1158              	.L75:
 413:../../libDaisy//src/hid/disp/display.h ****         {
 1159              		.loc 7 413 9 view .LVU236
 413:../../libDaisy//src/hid/disp/display.h ****         {
 1160              		.loc 7 413 22 view .LVU237
 1161 00f8 5845     		cmp	r0, fp
 1162 00fa 0EF1010E 		add	lr, lr, #1
 1163 00fe C0D1     		bne	.L70
 1164              	.LVL80:
 1165              	.L69:
 1166              	.LBB498:
 1167              	.LBB499:
 173:../../libDaisy//src/hid/disp/display.h ****         currentY_ = (y >= Height()) ? Height() - 1 : y;
 1168              		.loc 7 173 33 is_stmt 0 view .LVU238
 1169 0100 D8F80030 		ldr	r3, [r8]
 1170              	.LBE499:
 1171              	.LBE498:
 434:../../libDaisy//src/hid/disp/display.h **** 
 1172              		.loc 7 434 18 view .LVU239
 1173 0104 5444     		add	r4, r4, r10
 1174 0106 2449     		ldr	r1, .L100
 1175              	.LBB505:
 1176              	.LBB500:
 173:../../libDaisy//src/hid/disp/display.h ****         currentY_ = (y >= Height()) ? Height() - 1 : y;
 1177              		.loc 7 173 33 view .LVU240
 1178 0108 DA68     		ldr	r2, [r3, #12]
 1179              	.LBE500:
 1180              	.LBE505:
 434:../../libDaisy//src/hid/disp/display.h **** 
 1181              		.loc 7 434 18 view .LVU241
 1182 010a A4B2     		uxth	r4, r4
 1183              	.LVL81:
 1184              	.LBB506:
 1185              	.LBI498:
 171:../../libDaisy//src/hid/disp/display.h ****     {
 1186              		.loc 7 171 10 is_stmt 1 view .LVU242
 1187              	.LBB501:
 173:../../libDaisy//src/hid/disp/display.h ****         currentY_ = (y >= Height()) ? Height() - 1 : y;
 1188              		.loc 7 173 9 view .LVU243
 1189 010c 8A42     		cmp	r2, r1
 1190 010e 2DD1     		bne	.L95
 173:../../libDaisy//src/hid/disp/display.h ****         currentY_ = (y >= Height()) ? Height() - 1 : y;
 1191              		.loc 7 173 33 is_stmt 0 view .LVU244
 1192 0110 8020     		movs	r0, #128
 1193              	.L77:
 173:../../libDaisy//src/hid/disp/display.h ****         currentY_ = (y >= Height()) ? Height() - 1 : y;
 1194              		.loc 7 173 19 view .LVU245
 1195 0112 8442     		cmp	r4, r0
 1196 0114 1CD2     		bcs	.L96
 1197              	.LVL82:
 1198              	.L78:
 174:../../libDaisy//src/hid/disp/display.h ****     }
 1199              		.loc 7 174 34 view .LVU246
 1200 0116 9B68     		ldr	r3, [r3, #8]
ARM GAS  /tmp/ccZePa4k.s 			page 45


 1201 0118 204A     		ldr	r2, .L100+4
 173:../../libDaisy//src/hid/disp/display.h ****         currentY_ = (y >= Height()) ? Height() - 1 : y;
 1202              		.loc 7 173 19 view .LVU247
 1203 011a A8F80440 		strh	r4, [r8, #4]	@ movhi
 174:../../libDaisy//src/hid/disp/display.h ****     }
 1204              		.loc 7 174 9 is_stmt 1 view .LVU248
 1205 011e 9342     		cmp	r3, r2
 1206 0120 21D1     		bne	.L97
 174:../../libDaisy//src/hid/disp/display.h ****     }
 1207              		.loc 7 174 34 is_stmt 0 view .LVU249
 1208 0122 4020     		movs	r0, #64
 1209              	.L80:
 174:../../libDaisy//src/hid/disp/display.h ****     }
 1210              		.loc 7 174 19 view .LVU250
 1211 0124 019B     		ldr	r3, [sp, #4]
 1212 0126 8342     		cmp	r3, r0
 1213 0128 07D3     		bcc	.L81
 174:../../libDaisy//src/hid/disp/display.h ****     }
 1214              		.loc 7 174 46 view .LVU251
 1215 012a D8F80030 		ldr	r3, [r8]
 1216 012e 1B4A     		ldr	r2, .L100+4
 1217 0130 9B68     		ldr	r3, [r3, #8]
 1218 0132 9342     		cmp	r3, r2
 1219 0134 29D1     		bne	.L98
 1220 0136 3F23     		movs	r3, #63
 1221 0138 0193     		str	r3, [sp, #4]
 1222              	.LVL83:
 1223              	.L81:
 174:../../libDaisy//src/hid/disp/display.h ****     }
 1224              		.loc 7 174 19 view .LVU252
 1225 013a DDE90003 		ldrd	r0, r3, [sp]
 1226 013e A8F80630 		strh	r3, [r8, #6]	@ movhi
 1227              	.LVL84:
 174:../../libDaisy//src/hid/disp/display.h ****     }
 1228              		.loc 7 174 19 view .LVU253
 1229              	.LBE501:
 1230              	.LBE506:
 438:../../libDaisy//src/hid/disp/display.h **** 
 1231              		.loc 7 438 5 view .LVU254
 1232 0142 05B0     		add	sp, sp, #20
 1233              		.cfi_remember_state
 1234              		.cfi_def_cfa_offset 36
 1235              		@ sp needed
 1236 0144 BDE8F08F 		pop	{r4, r5, r6, r7, r8, r9, r10, fp, pc}
 1237              	.LVL85:
 1238              	.L65:
 1239              		.cfi_restore_state
 402:../../libDaisy//src/hid/disp/display.h **** 
 1240              		.loc 7 402 20 view .LVU255
 1241 0148 0020     		movs	r0, #0
 438:../../libDaisy//src/hid/disp/display.h **** 
 1242              		.loc 7 438 5 view .LVU256
 1243 014a 05B0     		add	sp, sp, #20
 1244              		.cfi_remember_state
 1245              		.cfi_def_cfa_offset 36
 1246              		@ sp needed
 1247 014c BDE8F08F 		pop	{r4, r5, r6, r7, r8, r9, r10, fp, pc}
ARM GAS  /tmp/ccZePa4k.s 			page 46


 1248              	.LVL86:
 1249              	.L96:
 1250              		.cfi_restore_state
 1251              	.LBB507:
 1252              	.LBB502:
 173:../../libDaisy//src/hid/disp/display.h ****         currentY_ = (y >= Height()) ? Height() - 1 : y;
 1253              		.loc 7 173 44 view .LVU257
 1254 0150 DA68     		ldr	r2, [r3, #12]
 1255 0152 1149     		ldr	r1, .L100
 1256 0154 8A42     		cmp	r2, r1
 1257 0156 11D1     		bne	.L99
 1258 0158 7F24     		movs	r4, #127
 1259              	.LVL87:
 173:../../libDaisy//src/hid/disp/display.h ****         currentY_ = (y >= Height()) ? Height() - 1 : y;
 1260              		.loc 7 173 44 view .LVU258
 1261 015a DCE7     		b	.L78
 1262              	.LVL88:
 1263              	.L92:
 173:../../libDaisy//src/hid/disp/display.h ****         currentY_ = (y >= Height()) ? Height() - 1 : y;
 1264              		.loc 7 173 44 view .LVU259
 1265              	.LBE502:
 1266              	.LBE507:
 405:../../libDaisy//src/hid/disp/display.h ****            || Height() < (currentY_ + font.FontHeight))
 1267              		.loc 7 405 17 view .LVU260
 1268 015c 9847     		blx	r3
 1269              	.LVL89:
 405:../../libDaisy//src/hid/disp/display.h ****            || Height() < (currentY_ + font.FontHeight))
 1270              		.loc 7 405 17 view .LVU261
 1271 015e 6AE7     		b	.L64
 1272              	.L93:
 406:../../libDaisy//src/hid/disp/display.h ****         {
 1273              		.loc 7 406 21 discriminator 2 view .LVU262
 1274 0160 4046     		mov	r0, r8
 1275 0162 9847     		blx	r3
 1276              	.LVL90:
 1277 0164 75E7     		b	.L66
 1278              	.LVL91:
 1279              	.L97:
 1280              	.LBB508:
 1281              	.LBB503:
 174:../../libDaisy//src/hid/disp/display.h ****     }
 1282              		.loc 7 174 33 view .LVU263
 1283 0166 4046     		mov	r0, r8
 1284 0168 9847     		blx	r3
 1285              	.LVL92:
 1286 016a DBE7     		b	.L80
 1287              	.LVL93:
 1288              	.L95:
 173:../../libDaisy//src/hid/disp/display.h ****         currentY_ = (y >= Height()) ? Height() - 1 : y;
 1289              		.loc 7 173 32 view .LVU264
 1290 016c 4046     		mov	r0, r8
 1291 016e 9047     		blx	r2
 1292              	.LVL94:
 173:../../libDaisy//src/hid/disp/display.h ****         currentY_ = (y >= Height()) ? Height() - 1 : y;
 1293              		.loc 7 173 44 view .LVU265
 1294 0170 D8F80030 		ldr	r3, [r8]
 1295 0174 CDE7     		b	.L77
ARM GAS  /tmp/ccZePa4k.s 			page 47


 1296              	.LVL95:
 1297              	.L67:
 173:../../libDaisy//src/hid/disp/display.h ****         currentY_ = (y >= Height()) ? Height() - 1 : y;
 1298              		.loc 7 173 44 view .LVU266
 1299              	.LBE503:
 1300              	.LBE508:
 434:../../libDaisy//src/hid/disp/display.h **** 
 1301              		.loc 7 434 19 view .LVU267
 1302 0176 B8F804A0 		ldrh	r10, [r8, #4]
 1303 017a C1E7     		b	.L69
 1304              	.LVL96:
 1305              	.L99:
 1306              	.LBB509:
 1307              	.LBB504:
 173:../../libDaisy//src/hid/disp/display.h ****         currentY_ = (y >= Height()) ? Height() - 1 : y;
 1308              		.loc 7 173 43 view .LVU268
 1309 017c 4046     		mov	r0, r8
 1310 017e 9047     		blx	r2
 1311              	.LVL97:
 173:../../libDaisy//src/hid/disp/display.h ****         currentY_ = (y >= Height()) ? Height() - 1 : y;
 1312              		.loc 7 173 19 view .LVU269
 1313 0180 0138     		subs	r0, r0, #1
 174:../../libDaisy//src/hid/disp/display.h ****     }
 1314              		.loc 7 174 34 view .LVU270
 1315 0182 D8F80030 		ldr	r3, [r8]
 173:../../libDaisy//src/hid/disp/display.h ****         currentY_ = (y >= Height()) ? Height() - 1 : y;
 1316              		.loc 7 173 19 view .LVU271
 1317 0186 84B2     		uxth	r4, r0
 1318              	.LVL98:
 173:../../libDaisy//src/hid/disp/display.h ****         currentY_ = (y >= Height()) ? Height() - 1 : y;
 1319              		.loc 7 173 19 view .LVU272
 1320 0188 C5E7     		b	.L78
 1321              	.L98:
 174:../../libDaisy//src/hid/disp/display.h ****     }
 1322              		.loc 7 174 45 view .LVU273
 1323 018a 4046     		mov	r0, r8
 1324 018c 9847     		blx	r3
 1325              	.LVL99:
 174:../../libDaisy//src/hid/disp/display.h ****     }
 1326              		.loc 7 174 19 view .LVU274
 1327 018e 0138     		subs	r0, r0, #1
 1328 0190 83B2     		uxth	r3, r0
 1329 0192 0193     		str	r3, [sp, #4]
 1330              	.LVL100:
 174:../../libDaisy//src/hid/disp/display.h ****     }
 1331              		.loc 7 174 19 view .LVU275
 1332 0194 D1E7     		b	.L81
 1333              	.L101:
 1334 0196 00BF     		.align	2
 1335              	.L100:
 1336 0198 00000000 		.word	_ZNK5daisy11OledDisplayINS_13SSD130xDriverILj128ELj64ENS_24SSD130x4WireSpiTransportEEEE5Widt
 1337 019c 00000000 		.word	_ZNK5daisy11OledDisplayINS_13SSD130xDriverILj128ELj64ENS_24SSD130x4WireSpiTransportEEEE6Heig
 1338              	.LBE504:
 1339              	.LBE509:
 1340              		.cfi_endproc
 1341              	.LFE2605:
 1343              		.section	.text._ZN5daisy25OneBitGraphicsDisplayImplINS_11OledDisplayINS_13SSD130xDriverILj128ELj64
ARM GAS  /tmp/ccZePa4k.s 			page 48


 1344              		.align	1
 1345              		.p2align 2,,3
 1346              		.weak	_ZN5daisy25OneBitGraphicsDisplayImplINS_11OledDisplayINS_13SSD130xDriverILj128ELj64ENS_24SSD
 1347              		.syntax unified
 1348              		.thumb
 1349              		.thumb_func
 1351              	_ZN5daisy25OneBitGraphicsDisplayImplINS_11OledDisplayINS_13SSD130xDriverILj128ELj64ENS_24SSD130x4Wi
 1352              	.LVL101:
 1353              	.LFB2607:
 459:../../libDaisy//src/hid/disp/display.h **** 
 460:../../libDaisy//src/hid/disp/display.h ****     Rectangle WriteStringAligned(const char*    str,
 1354              		.loc 7 460 15 is_stmt 1 view -0
 1355              		.cfi_startproc
 1356              		@ args = 12, pretend = 0, frame = 32
 1357              		@ frame_needed = 0, uses_anonymous_args = 0
 1358              		.loc 7 460 15 is_stmt 0 view .LVU277
 1359 0000 2DE9F04F 		push	{r4, r5, r6, r7, r8, r9, r10, fp, lr}
 1360              		.cfi_def_cfa_offset 36
 1361              		.cfi_offset 4, -36
 1362              		.cfi_offset 5, -32
 1363              		.cfi_offset 6, -28
 1364              		.cfi_offset 7, -24
 1365              		.cfi_offset 8, -20
 1366              		.cfi_offset 9, -16
 1367              		.cfi_offset 10, -12
 1368              		.cfi_offset 11, -8
 1369              		.cfi_offset 14, -4
 1370 0004 89B0     		sub	sp, sp, #36
 1371              		.cfi_def_cfa_offset 72
 1372              		.loc 7 460 15 view .LVU278
 1373 0006 1D46     		mov	r5, r3
 1374 0008 8846     		mov	r8, r1
 1375              	.LVL102:
 1376              	.LBB648:
 1377              	.LBI648:
 461:../../libDaisy//src/hid/disp/display.h ****                                  const FontDef& font,
 462:../../libDaisy//src/hid/disp/display.h ****                                  Rectangle      boundingBox,
 463:../../libDaisy//src/hid/disp/display.h ****                                  Alignment      alignment,
 464:../../libDaisy//src/hid/disp/display.h ****                                  bool           on) override
 465:../../libDaisy//src/hid/disp/display.h ****     {
 466:../../libDaisy//src/hid/disp/display.h ****         const auto alignedRect
 467:../../libDaisy//src/hid/disp/display.h ****             = GetTextRect(str, font).AlignedWithin(boundingBox, alignment);
 468:../../libDaisy//src/hid/disp/display.h ****         SetCursor(alignedRect.GetX(), alignedRect.GetY());
 469:../../libDaisy//src/hid/disp/display.h ****         ((ChildType*)(this))->ChildType::WriteString(str, font, on);
 470:../../libDaisy//src/hid/disp/display.h ****         return alignedRect;
 471:../../libDaisy//src/hid/disp/display.h ****     }
 472:../../libDaisy//src/hid/disp/display.h **** 
 473:../../libDaisy//src/hid/disp/display.h ****   private:
 474:../../libDaisy//src/hid/disp/display.h ****     uint32_t strlen(const char* string)
 475:../../libDaisy//src/hid/disp/display.h ****     {
 476:../../libDaisy//src/hid/disp/display.h ****         uint32_t result = 0;
 477:../../libDaisy//src/hid/disp/display.h ****         while(*string++ != '\0')
 478:../../libDaisy//src/hid/disp/display.h ****             result++;
 479:../../libDaisy//src/hid/disp/display.h ****         return result;
 480:../../libDaisy//src/hid/disp/display.h ****     }
 481:../../libDaisy//src/hid/disp/display.h **** 
 482:../../libDaisy//src/hid/disp/display.h ****     Rectangle GetTextRect(const char* text, const FontDef& font)
ARM GAS  /tmp/ccZePa4k.s 			page 49


 1378              		.loc 7 482 15 is_stmt 1 view .LVU279
 1379              	.LBB649:
 1380              	.LBB650:
 1381              	.LBI650:
 474:../../libDaisy//src/hid/disp/display.h ****     {
 1382              		.loc 7 474 14 view .LVU280
 1383              	.LBB651:
 477:../../libDaisy//src/hid/disp/display.h ****             result++;
 1384              		.loc 7 477 25 view .LVU281
 1385              	.LBE651:
 1386              	.LBE650:
 1387              	.LBE649:
 1388              	.LBE648:
 460:../../libDaisy//src/hid/disp/display.h ****                                  const FontDef& font,
 1389              		.loc 7 460 15 is_stmt 0 view .LVU282
 1390 000a 0690     		str	r0, [sp, #24]
 1391              	.LBB666:
 1392              	.LBB662:
 1393              	.LBB655:
 1394              	.LBB652:
 477:../../libDaisy//src/hid/disp/display.h ****             result++;
 1395              		.loc 7 477 25 view .LVU283
 1396 000c 1046     		mov	r0, r2
 1397              	.LVL103:
 477:../../libDaisy//src/hid/disp/display.h ****             result++;
 1398              		.loc 7 477 25 view .LVU284
 1399              	.LBE652:
 1400              	.LBE655:
 1401              	.LBE662:
 1402              	.LBE666:
 460:../../libDaisy//src/hid/disp/display.h ****                                  const FontDef& font,
 1403              		.loc 7 460 15 view .LVU285
 1404 000e 129C     		ldr	r4, [sp, #72]
 1405              	.LBB667:
 1406              	.LBB663:
 1407              	.LBB656:
 1408              	.LBB653:
 477:../../libDaisy//src/hid/disp/display.h ****             result++;
 1409              		.loc 7 477 25 view .LVU286
 1410 0010 10F8013B 		ldrb	r3, [r0], #1	@ zero_extendqisi2
 1411              	.LVL104:
 477:../../libDaisy//src/hid/disp/display.h ****             result++;
 1412              		.loc 7 477 25 view .LVU287
 1413              	.LBE653:
 1414              	.LBE656:
 1415              	.LBE663:
 1416              	.LBE667:
 460:../../libDaisy//src/hid/disp/display.h ****                                  const FontDef& font,
 1417              		.loc 7 460 15 view .LVU288
 1418 0014 1399     		ldr	r1, [sp, #76]
 1419              	.LVL105:
 460:../../libDaisy//src/hid/disp/display.h ****                                  const FontDef& font,
 1420              		.loc 7 460 15 view .LVU289
 1421 0016 9DF85060 		ldrb	r6, [sp, #80]	@ zero_extendqisi2
 1422 001a 0092     		str	r2, [sp]
 1423              	.LBB668:
 1424              	.LBB664:
ARM GAS  /tmp/ccZePa4k.s 			page 50


 1425              	.LBB657:
 1426              	.LBB654:
 477:../../libDaisy//src/hid/disp/display.h ****             result++;
 1427              		.loc 7 477 25 view .LVU290
 1428 001c 33B1     		cbz	r3, .L103
 476:../../libDaisy//src/hid/disp/display.h ****         while(*string++ != '\0')
 1429              		.loc 7 476 18 view .LVU291
 1430 001e 0022     		movs	r2, #0
 1431              	.LVL106:
 1432              	.L104:
 477:../../libDaisy//src/hid/disp/display.h ****             result++;
 1433              		.loc 7 477 25 view .LVU292
 1434 0020 10F8013B 		ldrb	r3, [r0], #1	@ zero_extendqisi2
 1435              	.LVL107:
 478:../../libDaisy//src/hid/disp/display.h ****         return result;
 1436              		.loc 7 478 13 view .LVU293
 1437 0024 0132     		adds	r2, r2, #1
 1438              	.LVL108:
 477:../../libDaisy//src/hid/disp/display.h ****             result++;
 1439              		.loc 7 477 25 is_stmt 1 view .LVU294
 1440 0026 002B     		cmp	r3, #0
 1441 0028 FAD1     		bne	.L104
 1442              	.LBE654:
 1443              	.LBE657:
 483:../../libDaisy//src/hid/disp/display.h ****     {
 484:../../libDaisy//src/hid/disp/display.h ****         const auto numChars = strlen(text);
 485:../../libDaisy//src/hid/disp/display.h ****         return {int16_t(numChars * font.FontWidth), font.FontHeight};
 1444              		.loc 7 485 68 is_stmt 0 view .LVU295
 1445 002a 93B2     		uxth	r3, r2
 1446              	.LVL109:
 1447              	.L103:
 1448              		.loc 7 485 68 view .LVU296
 1449 002c 2A78     		ldrb	r2, [r5]	@ zero_extendqisi2
 1450              		.loc 7 485 58 view .LVU297
 1451 002e 6878     		ldrb	r0, [r5, #1]	@ zero_extendqisi2
 1452              		.loc 7 485 68 view .LVU298
 1453 0030 12FB03F3 		smulbb	r3, r2, r3
 1454 0034 02B2     		sxth	r2, r0
 1455              	.LVL110:
 1456              	.LBB658:
 1457              	.LBI658:
 1458              		.file 9 "../../libDaisy//src/hid/disp/graphics_common.h"
   1:../../libDaisy//src/hid/disp/graphics_common.h **** #pragma once
   2:../../libDaisy//src/hid/disp/graphics_common.h **** 
   3:../../libDaisy//src/hid/disp/graphics_common.h **** #include <cstdint>
   4:../../libDaisy//src/hid/disp/graphics_common.h **** 
   5:../../libDaisy//src/hid/disp/graphics_common.h **** namespace daisy
   6:../../libDaisy//src/hid/disp/graphics_common.h **** {
   7:../../libDaisy//src/hid/disp/graphics_common.h **** /** Justifications */
   8:../../libDaisy//src/hid/disp/graphics_common.h **** enum class Alignment
   9:../../libDaisy//src/hid/disp/graphics_common.h **** {
  10:../../libDaisy//src/hid/disp/graphics_common.h ****     centered,
  11:../../libDaisy//src/hid/disp/graphics_common.h ****     topLeft,
  12:../../libDaisy//src/hid/disp/graphics_common.h ****     topCentered,
  13:../../libDaisy//src/hid/disp/graphics_common.h ****     topRight,
  14:../../libDaisy//src/hid/disp/graphics_common.h ****     bottomLeft,
  15:../../libDaisy//src/hid/disp/graphics_common.h ****     bottomCentered,
ARM GAS  /tmp/ccZePa4k.s 			page 51


  16:../../libDaisy//src/hid/disp/graphics_common.h ****     bottomRight,
  17:../../libDaisy//src/hid/disp/graphics_common.h ****     centeredLeft,
  18:../../libDaisy//src/hid/disp/graphics_common.h ****     centeredRight
  19:../../libDaisy//src/hid/disp/graphics_common.h **** };
  20:../../libDaisy//src/hid/disp/graphics_common.h **** 
  21:../../libDaisy//src/hid/disp/graphics_common.h **** class Rectangle
  22:../../libDaisy//src/hid/disp/graphics_common.h **** {
  23:../../libDaisy//src/hid/disp/graphics_common.h ****   public:
  24:../../libDaisy//src/hid/disp/graphics_common.h ****     Rectangle() : x_(0), y_(0), width_(0), height_(0) {}
  25:../../libDaisy//src/hid/disp/graphics_common.h **** 
  26:../../libDaisy//src/hid/disp/graphics_common.h ****     Rectangle(int16_t width, int16_t height)
 1459              		.loc 9 26 5 is_stmt 1 view .LVU299
 1460              	.LBB659:
 1461              	.LBI659:
  27:../../libDaisy//src/hid/disp/graphics_common.h ****     : x_(0), y_(0), width_(max(0, width)), height_(max(0, height))
  28:../../libDaisy//src/hid/disp/graphics_common.h ****     {
  29:../../libDaisy//src/hid/disp/graphics_common.h ****     }
  30:../../libDaisy//src/hid/disp/graphics_common.h **** 
  31:../../libDaisy//src/hid/disp/graphics_common.h ****     Rectangle(int16_t x, int16_t y, int16_t width, int16_t height)
  32:../../libDaisy//src/hid/disp/graphics_common.h ****     : x_(x), y_(y), width_(max(0, width)), height_(max(0, height))
  33:../../libDaisy//src/hid/disp/graphics_common.h ****     {
  34:../../libDaisy//src/hid/disp/graphics_common.h ****     }
  35:../../libDaisy//src/hid/disp/graphics_common.h **** 
  36:../../libDaisy//src/hid/disp/graphics_common.h ****     Rectangle(const Rectangle& other) { *this = other; }
  37:../../libDaisy//src/hid/disp/graphics_common.h **** 
  38:../../libDaisy//src/hid/disp/graphics_common.h ****     Rectangle& operator=(const Rectangle& other)
  39:../../libDaisy//src/hid/disp/graphics_common.h ****     {
  40:../../libDaisy//src/hid/disp/graphics_common.h ****         x_      = other.x_;
  41:../../libDaisy//src/hid/disp/graphics_common.h ****         y_      = other.y_;
  42:../../libDaisy//src/hid/disp/graphics_common.h ****         width_  = other.width_;
  43:../../libDaisy//src/hid/disp/graphics_common.h ****         height_ = other.height_;
  44:../../libDaisy//src/hid/disp/graphics_common.h ****         return *this;
  45:../../libDaisy//src/hid/disp/graphics_common.h ****     }
  46:../../libDaisy//src/hid/disp/graphics_common.h **** 
  47:../../libDaisy//src/hid/disp/graphics_common.h ****     bool operator==(const Rectangle& other) const
  48:../../libDaisy//src/hid/disp/graphics_common.h ****     {
  49:../../libDaisy//src/hid/disp/graphics_common.h ****         return (x_ == other.x_) && (y_ == other.y_) && (width_ == other.width_)
  50:../../libDaisy//src/hid/disp/graphics_common.h ****                && (height_ == other.height_);
  51:../../libDaisy//src/hid/disp/graphics_common.h ****     }
  52:../../libDaisy//src/hid/disp/graphics_common.h ****     bool operator!=(const Rectangle& other) const { return !(*this == other); }
  53:../../libDaisy//src/hid/disp/graphics_common.h **** 
  54:../../libDaisy//src/hid/disp/graphics_common.h ****     bool IsEmpty() const { return (width_ <= 0) || (height_ <= 0); }
  55:../../libDaisy//src/hid/disp/graphics_common.h **** 
  56:../../libDaisy//src/hid/disp/graphics_common.h ****     int16_t GetX() const { return x_; }
  57:../../libDaisy//src/hid/disp/graphics_common.h ****     int16_t GetY() const { return y_; }
  58:../../libDaisy//src/hid/disp/graphics_common.h ****     int16_t GetWidth() const { return width_; }
  59:../../libDaisy//src/hid/disp/graphics_common.h ****     int16_t GetHeight() const { return height_; }
  60:../../libDaisy//src/hid/disp/graphics_common.h ****     int16_t GetRight() const { return x_ + width_; }
  61:../../libDaisy//src/hid/disp/graphics_common.h ****     int16_t GetBottom() const { return y_ + height_; }
  62:../../libDaisy//src/hid/disp/graphics_common.h ****     int16_t GetCenterX() const { return x_ + width_ / 2; }
  63:../../libDaisy//src/hid/disp/graphics_common.h ****     int16_t GetCenterY() const { return y_ + height_ / 2; }
  64:../../libDaisy//src/hid/disp/graphics_common.h **** 
  65:../../libDaisy//src/hid/disp/graphics_common.h ****     Rectangle WithX(int16_t x) const { return {x, y_, width_, height_}; }
  66:../../libDaisy//src/hid/disp/graphics_common.h ****     Rectangle WithY(int16_t y) const { return {x_, y, width_, height_}; }
  67:../../libDaisy//src/hid/disp/graphics_common.h ****     Rectangle WithWidth(int16_t width) const
  68:../../libDaisy//src/hid/disp/graphics_common.h ****     {
  69:../../libDaisy//src/hid/disp/graphics_common.h ****         return {x_, y_, width, height_};
ARM GAS  /tmp/ccZePa4k.s 			page 52


  70:../../libDaisy//src/hid/disp/graphics_common.h ****     }
  71:../../libDaisy//src/hid/disp/graphics_common.h ****     Rectangle WithHeight(int16_t height) const
  72:../../libDaisy//src/hid/disp/graphics_common.h ****     {
  73:../../libDaisy//src/hid/disp/graphics_common.h ****         return {x_, y_, width_, height};
  74:../../libDaisy//src/hid/disp/graphics_common.h ****     }
  75:../../libDaisy//src/hid/disp/graphics_common.h ****     Rectangle WithSize(int16_t width, int16_t height) const
  76:../../libDaisy//src/hid/disp/graphics_common.h ****     {
  77:../../libDaisy//src/hid/disp/graphics_common.h ****         return {x_, y_, width, height};
  78:../../libDaisy//src/hid/disp/graphics_common.h ****     }
  79:../../libDaisy//src/hid/disp/graphics_common.h ****     Rectangle WithWidthKeepingCenter(int16_t width) const
  80:../../libDaisy//src/hid/disp/graphics_common.h ****     {
  81:../../libDaisy//src/hid/disp/graphics_common.h ****         return Rectangle(x_, y_, width, height_)
  82:../../libDaisy//src/hid/disp/graphics_common.h ****             .WithCenter(GetCenterX(), GetCenterY());
  83:../../libDaisy//src/hid/disp/graphics_common.h ****     }
  84:../../libDaisy//src/hid/disp/graphics_common.h ****     Rectangle WithHeightKeepingCenter(int16_t height) const
  85:../../libDaisy//src/hid/disp/graphics_common.h ****     {
  86:../../libDaisy//src/hid/disp/graphics_common.h ****         return Rectangle(x_, y_, width_, height)
  87:../../libDaisy//src/hid/disp/graphics_common.h ****             .WithCenter(GetCenterX(), GetCenterY());
  88:../../libDaisy//src/hid/disp/graphics_common.h ****     }
  89:../../libDaisy//src/hid/disp/graphics_common.h ****     Rectangle WithSizeKeepingCenter(int16_t width, int16_t height) const
  90:../../libDaisy//src/hid/disp/graphics_common.h ****     {
  91:../../libDaisy//src/hid/disp/graphics_common.h ****         return Rectangle(x_, y_, width, height)
  92:../../libDaisy//src/hid/disp/graphics_common.h ****             .WithCenter(GetCenterX(), GetCenterY());
  93:../../libDaisy//src/hid/disp/graphics_common.h ****     }
  94:../../libDaisy//src/hid/disp/graphics_common.h **** 
  95:../../libDaisy//src/hid/disp/graphics_common.h ****     Rectangle Reduced(int16_t sizeToReduce) const
  96:../../libDaisy//src/hid/disp/graphics_common.h ****     {
  97:../../libDaisy//src/hid/disp/graphics_common.h ****         return {int16_t(x_ + sizeToReduce),
  98:../../libDaisy//src/hid/disp/graphics_common.h ****                 int16_t(y_ + sizeToReduce),
  99:../../libDaisy//src/hid/disp/graphics_common.h ****                 int16_t(width_ - 2 * sizeToReduce),
 100:../../libDaisy//src/hid/disp/graphics_common.h ****                 int16_t(height_ - 2 * sizeToReduce)};
 101:../../libDaisy//src/hid/disp/graphics_common.h ****     }
 102:../../libDaisy//src/hid/disp/graphics_common.h ****     Rectangle Reduced(int16_t xToReduce, int16_t yToReduce) const
 103:../../libDaisy//src/hid/disp/graphics_common.h ****     {
 104:../../libDaisy//src/hid/disp/graphics_common.h ****         return {int16_t(x_ + xToReduce),
 105:../../libDaisy//src/hid/disp/graphics_common.h ****                 int16_t(y_ + yToReduce),
 106:../../libDaisy//src/hid/disp/graphics_common.h ****                 int16_t(width_ - 2 * xToReduce),
 107:../../libDaisy//src/hid/disp/graphics_common.h ****                 int16_t(height_ - 2 * yToReduce)};
 108:../../libDaisy//src/hid/disp/graphics_common.h ****     }
 109:../../libDaisy//src/hid/disp/graphics_common.h **** 
 110:../../libDaisy//src/hid/disp/graphics_common.h ****     Rectangle Translated(int16_t x, int16_t y) const
 111:../../libDaisy//src/hid/disp/graphics_common.h ****     {
 112:../../libDaisy//src/hid/disp/graphics_common.h ****         return {int16_t(x_ + x), int16_t(y_ + y), width_, height_};
 113:../../libDaisy//src/hid/disp/graphics_common.h ****     }
 114:../../libDaisy//src/hid/disp/graphics_common.h **** 
 115:../../libDaisy//src/hid/disp/graphics_common.h ****     Rectangle WithLeft(int16_t left) const
 116:../../libDaisy//src/hid/disp/graphics_common.h ****     {
 117:../../libDaisy//src/hid/disp/graphics_common.h ****         const auto newWidth = int16_t((x_ - left) + width_);
 118:../../libDaisy//src/hid/disp/graphics_common.h ****         return {left, y_, newWidth, height_};
 119:../../libDaisy//src/hid/disp/graphics_common.h ****     }
 120:../../libDaisy//src/hid/disp/graphics_common.h **** 
 121:../../libDaisy//src/hid/disp/graphics_common.h ****     Rectangle WithRight(int16_t right) const
 122:../../libDaisy//src/hid/disp/graphics_common.h ****     {
 123:../../libDaisy//src/hid/disp/graphics_common.h ****         const auto newWidth = int16_t(right - x_);
 124:../../libDaisy//src/hid/disp/graphics_common.h ****         return {x_, y_, newWidth, height_};
 125:../../libDaisy//src/hid/disp/graphics_common.h ****     }
 126:../../libDaisy//src/hid/disp/graphics_common.h **** 
ARM GAS  /tmp/ccZePa4k.s 			page 53


 127:../../libDaisy//src/hid/disp/graphics_common.h ****     Rectangle WithTop(int16_t top) const
 128:../../libDaisy//src/hid/disp/graphics_common.h ****     {
 129:../../libDaisy//src/hid/disp/graphics_common.h ****         const auto newHeight = int16_t((y_ - top) + height_);
 130:../../libDaisy//src/hid/disp/graphics_common.h ****         return {x_, top, width_, newHeight};
 131:../../libDaisy//src/hid/disp/graphics_common.h ****     }
 132:../../libDaisy//src/hid/disp/graphics_common.h **** 
 133:../../libDaisy//src/hid/disp/graphics_common.h ****     Rectangle WithBottom(int16_t bottom) const
 134:../../libDaisy//src/hid/disp/graphics_common.h ****     {
 135:../../libDaisy//src/hid/disp/graphics_common.h ****         const auto newHeight = int16_t(bottom - y_);
 136:../../libDaisy//src/hid/disp/graphics_common.h ****         return {x_, y_, width_, newHeight};
 137:../../libDaisy//src/hid/disp/graphics_common.h ****     }
 138:../../libDaisy//src/hid/disp/graphics_common.h **** 
 139:../../libDaisy//src/hid/disp/graphics_common.h ****     Rectangle WithTrimmedLeft(int16_t pxToTrim) const
 140:../../libDaisy//src/hid/disp/graphics_common.h ****     {
 141:../../libDaisy//src/hid/disp/graphics_common.h ****         return {
 142:../../libDaisy//src/hid/disp/graphics_common.h ****             int16_t(x_ + pxToTrim), y_, int16_t(width_ - pxToTrim), height_};
 143:../../libDaisy//src/hid/disp/graphics_common.h ****     }
 144:../../libDaisy//src/hid/disp/graphics_common.h **** 
 145:../../libDaisy//src/hid/disp/graphics_common.h ****     Rectangle WithTrimmedRight(int16_t pxToTrim) const
 146:../../libDaisy//src/hid/disp/graphics_common.h ****     {
 147:../../libDaisy//src/hid/disp/graphics_common.h ****         return {x_, y_, int16_t(width_ - pxToTrim), height_};
 148:../../libDaisy//src/hid/disp/graphics_common.h ****     }
 149:../../libDaisy//src/hid/disp/graphics_common.h **** 
 150:../../libDaisy//src/hid/disp/graphics_common.h ****     Rectangle WithTrimmedTop(int16_t pxToTrim) const
 151:../../libDaisy//src/hid/disp/graphics_common.h ****     {
 152:../../libDaisy//src/hid/disp/graphics_common.h ****         return {
 153:../../libDaisy//src/hid/disp/graphics_common.h ****             x_, int16_t(y_ + pxToTrim), width_, int16_t(height_ - pxToTrim)};
 154:../../libDaisy//src/hid/disp/graphics_common.h ****     }
 155:../../libDaisy//src/hid/disp/graphics_common.h **** 
 156:../../libDaisy//src/hid/disp/graphics_common.h ****     Rectangle WithTrimmedBottom(int16_t pxToTrim) const
 157:../../libDaisy//src/hid/disp/graphics_common.h ****     {
 158:../../libDaisy//src/hid/disp/graphics_common.h ****         return {x_, y_, width_, int16_t(height_ - pxToTrim)};
 159:../../libDaisy//src/hid/disp/graphics_common.h ****     }
 160:../../libDaisy//src/hid/disp/graphics_common.h **** 
 161:../../libDaisy//src/hid/disp/graphics_common.h ****     Rectangle WithCenterX(int16_t centerX) const
 162:../../libDaisy//src/hid/disp/graphics_common.h ****     {
 163:../../libDaisy//src/hid/disp/graphics_common.h ****         return {int16_t(x_ + centerX - GetCenterX()), y_, width_, height_};
 164:../../libDaisy//src/hid/disp/graphics_common.h ****     }
 165:../../libDaisy//src/hid/disp/graphics_common.h **** 
 166:../../libDaisy//src/hid/disp/graphics_common.h ****     Rectangle WithCenterY(int16_t centerY) const
 167:../../libDaisy//src/hid/disp/graphics_common.h ****     {
 168:../../libDaisy//src/hid/disp/graphics_common.h ****         return {x_, int16_t(y_ + centerY - GetCenterY()), width_, height_};
 169:../../libDaisy//src/hid/disp/graphics_common.h ****     }
 170:../../libDaisy//src/hid/disp/graphics_common.h **** 
 171:../../libDaisy//src/hid/disp/graphics_common.h ****     Rectangle WithCenter(int16_t centerX, int16_t centerY) const
 172:../../libDaisy//src/hid/disp/graphics_common.h ****     {
 173:../../libDaisy//src/hid/disp/graphics_common.h ****         return {int16_t(x_ + centerX - GetCenterX()),
 174:../../libDaisy//src/hid/disp/graphics_common.h ****                 int16_t(y_ + centerY - GetCenterY()),
 175:../../libDaisy//src/hid/disp/graphics_common.h ****                 width_,
 176:../../libDaisy//src/hid/disp/graphics_common.h ****                 height_};
 177:../../libDaisy//src/hid/disp/graphics_common.h ****     }
 178:../../libDaisy//src/hid/disp/graphics_common.h **** 
 179:../../libDaisy//src/hid/disp/graphics_common.h ****     Rectangle RemoveFromLeft(int16_t pxToRemove)
 180:../../libDaisy//src/hid/disp/graphics_common.h ****     {
 181:../../libDaisy//src/hid/disp/graphics_common.h ****         const auto result = this->WithWidth(min(pxToRemove, width_));
 182:../../libDaisy//src/hid/disp/graphics_common.h ****         x_ += min(pxToRemove, width_);
 183:../../libDaisy//src/hid/disp/graphics_common.h ****         width_ = max(int16_t(width_ - pxToRemove), 0);
ARM GAS  /tmp/ccZePa4k.s 			page 54


 184:../../libDaisy//src/hid/disp/graphics_common.h ****         return result;
 185:../../libDaisy//src/hid/disp/graphics_common.h ****     }
 186:../../libDaisy//src/hid/disp/graphics_common.h **** 
 187:../../libDaisy//src/hid/disp/graphics_common.h ****     Rectangle RemoveFromRight(int16_t pxToRemove)
 188:../../libDaisy//src/hid/disp/graphics_common.h ****     {
 189:../../libDaisy//src/hid/disp/graphics_common.h ****         const auto canRemove = min(pxToRemove, width_);
 190:../../libDaisy//src/hid/disp/graphics_common.h ****         width_ -= canRemove;
 191:../../libDaisy//src/hid/disp/graphics_common.h ****         return {int16_t(x_ + width_), y_, canRemove, height_};
 192:../../libDaisy//src/hid/disp/graphics_common.h ****     }
 193:../../libDaisy//src/hid/disp/graphics_common.h **** 
 194:../../libDaisy//src/hid/disp/graphics_common.h ****     Rectangle RemoveFromTop(int16_t pxToRemove)
 195:../../libDaisy//src/hid/disp/graphics_common.h ****     {
 196:../../libDaisy//src/hid/disp/graphics_common.h ****         const auto result = this->WithHeight(min(pxToRemove, height_));
 197:../../libDaisy//src/hid/disp/graphics_common.h ****         y_ += min(pxToRemove, height_);
 198:../../libDaisy//src/hid/disp/graphics_common.h ****         height_ = max(height_ - pxToRemove, 0);
 199:../../libDaisy//src/hid/disp/graphics_common.h ****         return result;
 200:../../libDaisy//src/hid/disp/graphics_common.h ****     }
 201:../../libDaisy//src/hid/disp/graphics_common.h **** 
 202:../../libDaisy//src/hid/disp/graphics_common.h ****     Rectangle RemoveFromBottom(int16_t pxToRemove)
 203:../../libDaisy//src/hid/disp/graphics_common.h ****     {
 204:../../libDaisy//src/hid/disp/graphics_common.h ****         const auto canRemove = min(pxToRemove, height_);
 205:../../libDaisy//src/hid/disp/graphics_common.h ****         height_ -= canRemove;
 206:../../libDaisy//src/hid/disp/graphics_common.h ****         return {x_, int16_t(y_ + height_), width_, canRemove};
 207:../../libDaisy//src/hid/disp/graphics_common.h ****     }
 208:../../libDaisy//src/hid/disp/graphics_common.h **** 
 209:../../libDaisy//src/hid/disp/graphics_common.h ****     Rectangle AlignedWithin(const Rectangle& other, Alignment alignment) const
 210:../../libDaisy//src/hid/disp/graphics_common.h ****     {
 211:../../libDaisy//src/hid/disp/graphics_common.h ****         switch(alignment)
 212:../../libDaisy//src/hid/disp/graphics_common.h ****         {
 213:../../libDaisy//src/hid/disp/graphics_common.h ****             case Alignment::topLeft:
 214:../../libDaisy//src/hid/disp/graphics_common.h ****                 return {other.x_, other.y_, width_, height_};
 215:../../libDaisy//src/hid/disp/graphics_common.h ****             case Alignment::topRight:
 216:../../libDaisy//src/hid/disp/graphics_common.h ****                 return {int16_t(other.GetRight() - width_),
 217:../../libDaisy//src/hid/disp/graphics_common.h ****                         other.y_,
 218:../../libDaisy//src/hid/disp/graphics_common.h ****                         width_,
 219:../../libDaisy//src/hid/disp/graphics_common.h ****                         height_};
 220:../../libDaisy//src/hid/disp/graphics_common.h ****             case Alignment::topCentered:
 221:../../libDaisy//src/hid/disp/graphics_common.h ****                 return {int16_t(x_ + (other.GetCenterX() - GetCenterX())),
 222:../../libDaisy//src/hid/disp/graphics_common.h ****                         other.y_,
 223:../../libDaisy//src/hid/disp/graphics_common.h ****                         width_,
 224:../../libDaisy//src/hid/disp/graphics_common.h ****                         height_};
 225:../../libDaisy//src/hid/disp/graphics_common.h ****             case Alignment::bottomLeft:
 226:../../libDaisy//src/hid/disp/graphics_common.h ****                 return {other.x_,
 227:../../libDaisy//src/hid/disp/graphics_common.h ****                         int16_t(other.GetBottom() - height_),
 228:../../libDaisy//src/hid/disp/graphics_common.h ****                         width_,
 229:../../libDaisy//src/hid/disp/graphics_common.h ****                         height_};
 230:../../libDaisy//src/hid/disp/graphics_common.h ****             case Alignment::bottomRight:
 231:../../libDaisy//src/hid/disp/graphics_common.h ****                 return {int16_t(other.GetRight() - width_),
 232:../../libDaisy//src/hid/disp/graphics_common.h ****                         int16_t(other.GetBottom() - height_),
 233:../../libDaisy//src/hid/disp/graphics_common.h ****                         width_,
 234:../../libDaisy//src/hid/disp/graphics_common.h ****                         height_};
 235:../../libDaisy//src/hid/disp/graphics_common.h ****             case Alignment::bottomCentered:
 236:../../libDaisy//src/hid/disp/graphics_common.h ****                 return {int16_t(x_ + (other.GetCenterX() - GetCenterX())),
 237:../../libDaisy//src/hid/disp/graphics_common.h ****                         int16_t(other.GetBottom() - height_),
 238:../../libDaisy//src/hid/disp/graphics_common.h ****                         width_,
 239:../../libDaisy//src/hid/disp/graphics_common.h ****                         height_};
 240:../../libDaisy//src/hid/disp/graphics_common.h ****             case Alignment::centeredLeft:
ARM GAS  /tmp/ccZePa4k.s 			page 55


 241:../../libDaisy//src/hid/disp/graphics_common.h ****                 return {other.x_,
 242:../../libDaisy//src/hid/disp/graphics_common.h ****                         int16_t(y_ + (other.GetCenterY() - GetCenterY())),
 243:../../libDaisy//src/hid/disp/graphics_common.h ****                         width_,
 244:../../libDaisy//src/hid/disp/graphics_common.h ****                         height_};
 245:../../libDaisy//src/hid/disp/graphics_common.h ****             case Alignment::centeredRight:
 246:../../libDaisy//src/hid/disp/graphics_common.h ****                 return {int16_t(other.GetRight() - width_),
 247:../../libDaisy//src/hid/disp/graphics_common.h ****                         int16_t(y_ + (other.GetCenterY() - GetCenterY())),
 248:../../libDaisy//src/hid/disp/graphics_common.h ****                         width_,
 249:../../libDaisy//src/hid/disp/graphics_common.h ****                         height_};
 250:../../libDaisy//src/hid/disp/graphics_common.h ****             case Alignment::centered:
 251:../../libDaisy//src/hid/disp/graphics_common.h ****                 return {int16_t(x_ + (other.GetCenterX() - GetCenterX())),
 252:../../libDaisy//src/hid/disp/graphics_common.h ****                         int16_t(y_ + (other.GetCenterY() - GetCenterY())),
 253:../../libDaisy//src/hid/disp/graphics_common.h ****                         width_,
 254:../../libDaisy//src/hid/disp/graphics_common.h ****                         height_};
 255:../../libDaisy//src/hid/disp/graphics_common.h ****             default: return {};
 256:../../libDaisy//src/hid/disp/graphics_common.h ****         }
 257:../../libDaisy//src/hid/disp/graphics_common.h ****     }
 258:../../libDaisy//src/hid/disp/graphics_common.h **** 
 259:../../libDaisy//src/hid/disp/graphics_common.h ****   private:
 260:../../libDaisy//src/hid/disp/graphics_common.h ****     int16_t x_, y_, width_, height_;
 261:../../libDaisy//src/hid/disp/graphics_common.h ****     int16_t max(int16_t a, int16_t b) { return (a > b) ? a : b; }
 1462              		.loc 9 261 13 view .LVU300
 1463              	.LBE659:
 1464              	.LBE658:
 1465              	.LBE664:
 1466              	.LBE668:
 1467              		.loc 9 261 41 view .LVU301
 1468              	.LBB669:
 1469              	.LBB665:
 1470              	.LBB661:
 1471              	.LBB660:
 1472              	.LBI660:
 1473              		.loc 9 261 13 view .LVU302
 1474              	.LBE660:
 1475              	.LBE661:
 1476              	.LBE665:
 1477              	.LBE669:
 1478              		.loc 9 261 41 view .LVU303
 1479              	.LBB670:
 1480              	.LBI670:
 209:../../libDaisy//src/hid/disp/graphics_common.h ****     {
 1481              		.loc 9 209 15 view .LVU304
 1482              	.LBB671:
 211:../../libDaisy//src/hid/disp/graphics_common.h ****         {
 1483              		.loc 9 211 9 view .LVU305
 1484 0036 1BB2     		sxth	r3, r3
 1485 0038 23EAE373 		bic	r3, r3, r3, asr #31
 1486 003c 0829     		cmp	r1, #8
 1487 003e 00F2A681 		bhi	.L105
 1488 0042 DFE811F0 		tbh	[pc, r1, lsl #1]
 1489              	.L107:
 1490 0046 0101     		.2byte	(.L115-.L107)/2
 1491 0048 1301     		.2byte	(.L114-.L107)/2
 1492 004a 1F01     		.2byte	(.L113-.L107)/2
 1493 004c 3301     		.2byte	(.L112-.L107)/2
 1494 004e 4101     		.2byte	(.L111-.L107)/2
 1495 0050 4F01     		.2byte	(.L110-.L107)/2
ARM GAS  /tmp/ccZePa4k.s 			page 56


 1496 0052 6601     		.2byte	(.L109-.L107)/2
 1497 0054 6F01     		.2byte	(.L108-.L107)/2
 1498 0056 0900     		.2byte	(.L106-.L107)/2
 1499              		.p2align 1
 1500              	.L106:
 245:../../libDaisy//src/hid/disp/graphics_common.h ****                 return {int16_t(other.GetRight() - width_),
 1501              		.loc 9 245 13 view .LVU306
 246:../../libDaisy//src/hid/disp/graphics_common.h ****                         int16_t(y_ + (other.GetCenterY() - GetCenterY())),
 1502              		.loc 9 246 17 view .LVU307
 1503              	.LVL111:
 1504              	.LBB672:
 1505              	.LBI672:
  60:../../libDaisy//src/hid/disp/graphics_common.h ****     int16_t GetBottom() const { return y_ + height_; }
 1506              		.loc 9 60 13 view .LVU308
 1507              	.LBB673:
  60:../../libDaisy//src/hid/disp/graphics_common.h ****     int16_t GetBottom() const { return y_ + height_; }
 1508              		.loc 9 60 32 view .LVU309
  60:../../libDaisy//src/hid/disp/graphics_common.h ****     int16_t GetBottom() const { return y_ + height_; }
 1509              		.loc 9 60 42 is_stmt 0 view .LVU310
 1510 0058 A188     		ldrh	r1, [r4, #4]
 1511              	.LVL112:
  60:../../libDaisy//src/hid/disp/graphics_common.h ****     int16_t GetBottom() const { return y_ + height_; }
 1512              		.loc 9 60 42 view .LVU311
 1513 005a 2788     		ldrh	r7, [r4]
 1514 005c 0F44     		add	r7, r7, r1
 1515              	.LBE673:
 1516              	.LBE672:
 1517              	.LBB674:
 1518              	.LBB675:
  63:../../libDaisy//src/hid/disp/graphics_common.h **** 
 1519              		.loc 9 63 54 view .LVU312
 1520 005e B4F90610 		ldrsh	r1, [r4, #6]
 1521              	.LBE675:
 1522              	.LBE674:
 246:../../libDaisy//src/hid/disp/graphics_common.h ****                         int16_t(y_ + (other.GetCenterY() - GetCenterY())),
 1523              		.loc 9 246 50 view .LVU313
 1524 0062 FF1A     		subs	r7, r7, r3
 1525              	.LBB679:
 1526              	.LBB676:
  63:../../libDaisy//src/hid/disp/graphics_common.h **** 
 1527              		.loc 9 63 54 view .LVU314
 1528 0064 0029     		cmp	r1, #0
 1529              	.LBE676:
 1530              	.LBE679:
 246:../../libDaisy//src/hid/disp/graphics_common.h ****                         int16_t(y_ + (other.GetCenterY() - GetCenterY())),
 1531              		.loc 9 246 50 view .LVU315
 1532 0066 BFB2     		uxth	r7, r7
 1533              	.LVL113:
 1534              	.LBB680:
 1535              	.LBI674:
  63:../../libDaisy//src/hid/disp/graphics_common.h **** 
 1536              		.loc 9 63 13 is_stmt 1 view .LVU316
 1537              	.LBB677:
  63:../../libDaisy//src/hid/disp/graphics_common.h **** 
 1538              		.loc 9 63 34 view .LVU317
  63:../../libDaisy//src/hid/disp/graphics_common.h **** 
 1539              		.loc 9 63 34 is_stmt 0 view .LVU318
ARM GAS  /tmp/ccZePa4k.s 			page 57


 1540              	.LBE677:
 1541              	.LBE680:
 1542              	.LBB681:
 1543              	.LBI681:
  63:../../libDaisy//src/hid/disp/graphics_common.h **** 
 1544              		.loc 9 63 13 is_stmt 1 view .LVU319
 1545              	.LBB682:
  63:../../libDaisy//src/hid/disp/graphics_common.h **** 
 1546              		.loc 9 63 34 view .LVU320
  63:../../libDaisy//src/hid/disp/graphics_common.h **** 
 1547              		.loc 9 63 34 is_stmt 0 view .LVU321
 1548              	.LBE682:
 1549              	.LBE681:
 1550              	.LBB683:
 1551              	.LBB678:
  63:../../libDaisy//src/hid/disp/graphics_common.h **** 
 1552              		.loc 9 63 54 view .LVU322
 1553 0068 C0F2FE80 		blt	.L178
 1554              	.L122:
  63:../../libDaisy//src/hid/disp/graphics_common.h **** 
 1555              		.loc 9 63 54 view .LVU323
 1556              	.LBE678:
 1557              	.LBE683:
 1558              	.LBB684:
 1559              	.LBB685:
  63:../../libDaisy//src/hid/disp/graphics_common.h **** 
 1560              		.loc 9 63 44 view .LVU324
 1561 006c 6488     		ldrh	r4, [r4, #2]
 1562              	.LVL114:
  63:../../libDaisy//src/hid/disp/graphics_common.h **** 
 1563              		.loc 9 63 44 view .LVU325
 1564              	.LBE685:
 1565              	.LBE684:
 1566              	.LBB691:
 1567              	.LBB692:
 1568              	.LBB693:
  32:../../libDaisy//src/hid/disp/graphics_common.h ****     {
 1569              		.loc 9 32 66 view .LVU326
 1570 006e 0698     		ldr	r0, [sp, #24]
 1571              	.LBE693:
 1572              	.LBE692:
 1573              	.LBE691:
 1574              	.LBB704:
 1575              	.LBB686:
  63:../../libDaisy//src/hid/disp/graphics_common.h **** 
 1576              		.loc 9 63 44 view .LVU327
 1577 0070 04EB6104 		add	r4, r4, r1, asr #1
 1578              	.LBE686:
 1579              	.LBE704:
 1580              	.LBB705:
 1581              	.LBB700:
 1582              	.LBB696:
  32:../../libDaisy//src/hid/disp/graphics_common.h ****     {
 1583              		.loc 9 32 66 view .LVU328
 1584 0074 C280     		strh	r2, [r0, #6]	@ movhi
 1585              	.LBE696:
 1586              	.LBE700:
ARM GAS  /tmp/ccZePa4k.s 			page 58


 1587              	.LBE705:
 252:../../libDaisy//src/hid/disp/graphics_common.h ****                         width_,
 1588              		.loc 9 252 58 view .LVU329
 1589 0076 A4EB5202 		sub	r2, r4, r2, lsr #1
 1590              	.LBB706:
 1591              	.LBB701:
 1592              	.LBB697:
  32:../../libDaisy//src/hid/disp/graphics_common.h ****     {
 1593              		.loc 9 32 66 view .LVU330
 1594 007a 8380     		strh	r3, [r0, #4]	@ movhi
 1595 007c 0780     		strh	r7, [r0]	@ movhi
 1596              	.LBE697:
 1597              	.LBE701:
 1598              	.LBE706:
 252:../../libDaisy//src/hid/disp/graphics_common.h ****                         width_,
 1599              		.loc 9 252 58 view .LVU331
 1600 007e 94B2     		uxth	r4, r2
 1601              	.LVL115:
 1602              	.LBB707:
 1603              	.LBI691:
  31:../../libDaisy//src/hid/disp/graphics_common.h ****     : x_(x), y_(y), width_(max(0, width)), height_(max(0, height))
 1604              		.loc 9 31 5 is_stmt 1 view .LVU332
 1605              	.LBB702:
 1606              	.LBB698:
  32:../../libDaisy//src/hid/disp/graphics_common.h ****     {
 1607              		.loc 9 32 66 is_stmt 0 view .LVU333
 1608 0080 4480     		strh	r4, [r0, #2]	@ movhi
 1609              	.LVL116:
 1610              	.LBB694:
 1611              	.LBI694:
 1612              		.loc 9 261 13 is_stmt 1 view .LVU334
 1613              	.LBE694:
 1614              	.LBE698:
 1615              	.LBE702:
 1616              	.LBE707:
 1617              	.LBE671:
 1618              	.LBE670:
 1619              		.loc 9 261 41 view .LVU335
 1620              	.LBB896:
 1621              	.LBB874:
 1622              	.LBB708:
 1623              	.LBB703:
 1624              	.LBB699:
 1625              	.LBB695:
 1626              	.LBI695:
 1627              		.loc 9 261 13 view .LVU336
 1628              	.LBE695:
 1629              	.LBE699:
 1630              	.LBE703:
 1631              	.LBE708:
 1632              	.LBE874:
 1633              	.LBE896:
 1634              		.loc 9 261 41 view .LVU337
 1635              	.L116:
  56:../../libDaisy//src/hid/disp/graphics_common.h ****     int16_t GetY() const { return y_; }
 1636              		.loc 9 56 28 view .LVU338
  57:../../libDaisy//src/hid/disp/graphics_common.h ****     int16_t GetWidth() const { return width_; }
ARM GAS  /tmp/ccZePa4k.s 			page 59


 1637              		.loc 9 57 28 view .LVU339
 1638              	.LBB897:
 1639              	.LBI897:
 171:../../libDaisy//src/hid/disp/display.h ****     {
 1640              		.loc 7 171 10 view .LVU340
 1641              	.LBB898:
 173:../../libDaisy//src/hid/disp/display.h ****         currentY_ = (y >= Height()) ? Height() - 1 : y;
 1642              		.loc 7 173 9 view .LVU341
 1643 0082 A64A     		ldr	r2, .L188
 173:../../libDaisy//src/hid/disp/display.h ****         currentY_ = (y >= Height()) ? Height() - 1 : y;
 1644              		.loc 7 173 33 is_stmt 0 view .LVU342
 1645 0084 D8F80030 		ldr	r3, [r8]
 1646 0088 1146     		mov	r1, r2
 1647 008a 0192     		str	r2, [sp, #4]
 1648 008c DA68     		ldr	r2, [r3, #12]
 1649 008e 8A42     		cmp	r2, r1
 1650 0090 40F08B81 		bne	.L124
 1651 0094 8020     		movs	r0, #128
 1652              	.LVL117:
 1653              	.L125:
 173:../../libDaisy//src/hid/disp/display.h ****         currentY_ = (y >= Height()) ? Height() - 1 : y;
 1654              		.loc 7 173 19 view .LVU343
 1655 0096 B842     		cmp	r0, r7
 1656 0098 05D8     		bhi	.L126
 173:../../libDaisy//src/hid/disp/display.h ****         currentY_ = (y >= Height()) ? Height() - 1 : y;
 1657              		.loc 7 173 44 view .LVU344
 1658 009a DA68     		ldr	r2, [r3, #12]
 1659 009c 0199     		ldr	r1, [sp, #4]
 1660 009e 8A42     		cmp	r2, r1
 1661 00a0 40F09881 		bne	.L179
 1662 00a4 7F27     		movs	r7, #127
 1663              	.L126:
 1664 00a6 9E4A     		ldr	r2, .L188+4
 174:../../libDaisy//src/hid/disp/display.h ****     }
 1665              		.loc 7 174 34 view .LVU345
 1666 00a8 9B68     		ldr	r3, [r3, #8]
 173:../../libDaisy//src/hid/disp/display.h ****         currentY_ = (y >= Height()) ? Height() - 1 : y;
 1667              		.loc 7 173 19 view .LVU346
 1668 00aa A8F80470 		strh	r7, [r8, #4]	@ movhi
 174:../../libDaisy//src/hid/disp/display.h ****     }
 1669              		.loc 7 174 9 is_stmt 1 view .LVU347
 1670 00ae 9342     		cmp	r3, r2
 1671 00b0 0392     		str	r2, [sp, #12]
 1672 00b2 40F08781 		bne	.L156
 174:../../libDaisy//src/hid/disp/display.h ****     }
 1673              		.loc 7 174 34 is_stmt 0 view .LVU348
 1674 00b6 4020     		movs	r0, #64
 1675              	.L128:
 174:../../libDaisy//src/hid/disp/display.h ****     }
 1676              		.loc 7 174 19 view .LVU349
 1677 00b8 A042     		cmp	r0, r4
 1678 00ba 07D8     		bhi	.L130
 174:../../libDaisy//src/hid/disp/display.h ****     }
 1679              		.loc 7 174 46 view .LVU350
 1680 00bc D8F80030 		ldr	r3, [r8]
 1681 00c0 039A     		ldr	r2, [sp, #12]
 1682 00c2 9B68     		ldr	r3, [r3, #8]
ARM GAS  /tmp/ccZePa4k.s 			page 60


 1683 00c4 9342     		cmp	r3, r2
 1684 00c6 40F08081 		bne	.L180
 1685 00ca 3F24     		movs	r4, #63
 1686              	.L130:
 174:../../libDaisy//src/hid/disp/display.h ****     }
 1687              		.loc 7 174 46 view .LVU351
 1688              	.LBE898:
 1689              	.LBE897:
 1690              	.LBB902:
 1691              	.LBB903:
 443:../../libDaisy//src/hid/disp/display.h ****         {
 1692              		.loc 7 443 9 view .LVU352
 1693 00cc 009B     		ldr	r3, [sp]
 1694              	.LBE903:
 1695              	.LBE902:
 1696              	.LBB951:
 1697              	.LBB899:
 174:../../libDaisy//src/hid/disp/display.h ****     }
 1698              		.loc 7 174 19 view .LVU353
 1699 00ce A8F80640 		strh	r4, [r8, #6]	@ movhi
 1700              	.LVL118:
 174:../../libDaisy//src/hid/disp/display.h ****     }
 1701              		.loc 7 174 19 view .LVU354
 1702              	.LBE899:
 1703              	.LBE951:
 1704              	.LBB952:
 1705              	.LBB948:
 443:../../libDaisy//src/hid/disp/display.h ****         {
 1706              		.loc 7 443 9 view .LVU355
 1707 00d2 93F800B0 		ldrb	fp, [r3]	@ zero_extendqisi2
 1708 00d6 6B78     		ldrb	r3, [r5, #1]	@ zero_extendqisi2
 1709              	.LVL119:
 443:../../libDaisy//src/hid/disp/display.h ****         {
 1710              		.loc 7 443 9 view .LVU356
 1711 00d8 2C78     		ldrb	r4, [r5]	@ zero_extendqisi2
 1712              	.LVL120:
 443:../../libDaisy//src/hid/disp/display.h ****         {
 1713              		.loc 7 443 9 view .LVU357
 1714 00da 0493     		str	r3, [sp, #16]
 1715              	.LVL121:
 443:../../libDaisy//src/hid/disp/display.h ****         {
 1716              		.loc 7 443 9 view .LVU358
 1717 00dc 6B68     		ldr	r3, [r5, #4]
 1718 00de 0793     		str	r3, [sp, #28]
 1719              	.LVL122:
 443:../../libDaisy//src/hid/disp/display.h ****         {
 1720              		.loc 7 443 9 view .LVU359
 1721              	.LBE948:
 1722              	.LBI902:
 440:../../libDaisy//src/hid/disp/display.h ****     {
 1723              		.loc 7 440 10 is_stmt 1 view .LVU360
 1724              	.LBB949:
 443:../../libDaisy//src/hid/disp/display.h ****         {
 1725              		.loc 7 443 9 view .LVU361
 1726 00e0 BBF1000F 		cmp	fp, #0
 1727 00e4 00F0AC80 		beq	.L102
 1728              	.LVL123:
ARM GAS  /tmp/ccZePa4k.s 			page 61


 1729              	.L132:
 1730              	.LBB904:
 1731              	.LBI904:
 396:../../libDaisy//src/hid/disp/display.h ****     {
 1732              		.loc 7 396 10 view .LVU362
 1733              	.LBB905:
 401:../../libDaisy//src/hid/disp/display.h ****             return 0;
 1734              		.loc 7 401 20 is_stmt 0 view .LVU363
 1735 00e8 ABF12005 		sub	r5, fp, #32
 401:../../libDaisy//src/hid/disp/display.h ****             return 0;
 1736              		.loc 7 401 9 view .LVU364
 1737 00ec EBB2     		uxtb	r3, r5
 1738 00ee 5E2B     		cmp	r3, #94
 1739 00f0 00F22C81 		bhi	.L136
 405:../../libDaisy//src/hid/disp/display.h ****            || Height() < (currentY_ + font.FontHeight))
 1740              		.loc 7 405 17 view .LVU365
 1741 00f4 D8F80030 		ldr	r3, [r8]
 1742 00f8 019A     		ldr	r2, [sp, #4]
 1743 00fa DB68     		ldr	r3, [r3, #12]
 1744 00fc 9342     		cmp	r3, r2
 1745 00fe 40F02881 		bne	.L181
 1746 0102 8020     		movs	r0, #128
 1747              	.L135:
 405:../../libDaisy//src/hid/disp/display.h ****            || Height() < (currentY_ + font.FontHeight))
 1748              		.loc 7 405 23 view .LVU366
 1749 0104 B8F80430 		ldrh	r3, [r8, #4]
 405:../../libDaisy//src/hid/disp/display.h ****            || Height() < (currentY_ + font.FontHeight))
 1750              		.loc 7 405 33 view .LVU367
 1751 0108 2344     		add	r3, r3, r4
 406:../../libDaisy//src/hid/disp/display.h ****         {
 1752              		.loc 7 406 12 view .LVU368
 1753 010a 9842     		cmp	r0, r3
 1754 010c C0F21E81 		blt	.L136
 406:../../libDaisy//src/hid/disp/display.h ****         {
 1755              		.loc 7 406 21 view .LVU369
 1756 0110 D8F80030 		ldr	r3, [r8]
 1757 0114 039A     		ldr	r2, [sp, #12]
 1758 0116 9B68     		ldr	r3, [r3, #8]
 1759 0118 9342     		cmp	r3, r2
 1760 011a 40F01D81 		bne	.L182
 1761 011e 4020     		movs	r0, #64
 1762              	.L137:
 406:../../libDaisy//src/hid/disp/display.h ****         {
 1763              		.loc 7 406 27 view .LVU370
 1764 0120 B8F80610 		ldrh	r1, [r8, #6]
 406:../../libDaisy//src/hid/disp/display.h ****         {
 1765              		.loc 7 406 37 view .LVU371
 1766 0124 049A     		ldr	r2, [sp, #16]
 406:../../libDaisy//src/hid/disp/display.h ****         {
 1767              		.loc 7 406 27 view .LVU372
 1768 0126 0291     		str	r1, [sp, #8]
 406:../../libDaisy//src/hid/disp/display.h ****         {
 1769              		.loc 7 406 37 view .LVU373
 1770 0128 8B18     		adds	r3, r1, r2
 406:../../libDaisy//src/hid/disp/display.h ****         {
 1771              		.loc 7 406 12 view .LVU374
 1772 012a 9842     		cmp	r0, r3
ARM GAS  /tmp/ccZePa4k.s 			page 62


 1773 012c C0F20E81 		blt	.L136
 1774              	.LVL124:
 413:../../libDaisy//src/hid/disp/display.h ****         {
 1775              		.loc 7 413 22 is_stmt 1 view .LVU375
 1776 0130 002A     		cmp	r2, #0
 1777 0132 00F01C81 		beq	.L138
 415:../../libDaisy//src/hid/disp/display.h ****             for(j = 0; j < font.FontWidth; j++)
 1778              		.loc 7 415 37 is_stmt 0 view .LVU376
 1779 0136 02FB05F5 		mul	r5, r2, r5
 1780 013a 6FF0004E 		mvn	lr, #-2147483648
 1781 013e 079B     		ldr	r3, [sp, #28]
 1782 0140 AE44     		add	lr, lr, r5
 1783 0142 1544     		add	r5, r5, r2
 1784 0144 CDF814B0 		str	fp, [sp, #20]
 1785 0148 03EB4E0E 		add	lr, r3, lr, lsl #1
 1786 014c 023B     		subs	r3, r3, #2
 434:../../libDaisy//src/hid/disp/display.h **** 
 1787              		.loc 7 434 19 view .LVU377
 1788 014e B8F804A0 		ldrh	r10, [r8, #4]
 1789 0152 03EB4503 		add	r3, r3, r5, lsl #1
 1790 0156 0D46     		mov	r5, r1
 1791 0158 9B46     		mov	fp, r3
 1792              	.LVL125:
 1793              	.L141:
 415:../../libDaisy//src/hid/disp/display.h ****             for(j = 0; j < font.FontWidth; j++)
 1794              		.loc 7 415 15 view .LVU378
 1795 015a 3EF8027F 		ldrh	r7, [lr, #2]!
 1796              	.LVL126:
 416:../../libDaisy//src/hid/disp/display.h ****             {
 1797              		.loc 7 416 26 is_stmt 1 view .LVU379
 1798 015e A4B3     		cbz	r4, .L146
 1799              	.LBB906:
 1800              	.LBB907:
 1801              	.LBB908:
 1802              	.LBB909:
 1803              	.LBB910:
 259:../../libDaisy//src/dev/oled_ssd130x.h ****     }
 1804              		.loc 8 259 55 is_stmt 0 view .LVU380
 1805 0160 05F00703 		and	r3, r5, #7
 259:../../libDaisy//src/dev/oled_ssd130x.h ****     }
 1806              		.loc 8 259 49 view .LVU381
 1807 0164 4FF0010C 		mov	ip, #1
 259:../../libDaisy//src/dev/oled_ssd130x.h ****     }
 1808              		.loc 8 259 28 view .LVU382
 1809 0168 EA08     		lsrs	r2, r5, #3
 1810 016a 5146     		mov	r1, r10
 259:../../libDaisy//src/dev/oled_ssd130x.h ****     }
 1811              		.loc 8 259 49 view .LVU383
 1812 016c 0CFA03FC 		lsl	ip, ip, r3
 1813 0170 0AF11403 		add	r3, r10, #20
 259:../../libDaisy//src/dev/oled_ssd130x.h ****     }
 1814              		.loc 8 259 42 view .LVU384
 1815 0174 4FFA8CFC 		sxtb	ip, ip
 1816 0178 03EBC212 		add	r2, r3, r2, lsl #7
 1817              	.LBE910:
 1818              	.LBE909:
 1819              	.LBE908:
ARM GAS  /tmp/ccZePa4k.s 			page 63


 1820              	.LBE907:
 1821              	.LBE906:
 416:../../libDaisy//src/hid/disp/display.h ****             {
 1822              		.loc 7 416 19 view .LVU385
 1823 017c 0023     		movs	r3, #0
 1824              	.LBB928:
 1825              	.LBB923:
 1826              	.LBB918:
 1827              	.LBB914:
 1828              	.LBB911:
 259:../../libDaisy//src/dev/oled_ssd130x.h ****     }
 1829              		.loc 8 259 42 view .LVU386
 1830 017e 6FEA0C09 		mvn	r9, ip
 1831 0182 4244     		add	r2, r2, r8
 1832 0184 0DE0     		b	.L147
 1833              	.LVL127:
 1834              	.L183:
 259:../../libDaisy//src/dev/oled_ssd130x.h ****     }
 1835              		.loc 8 259 42 view .LVU387
 1836              	.LBE911:
 1837              	.LBE914:
 1838              	.LBE918:
 1839              	.LBE923:
 1840              	.LBE928:
 1841              	.LBB929:
 1842              	.LBI929:
  42:../../libDaisy//src/hid/disp/oled_display.h ****     {
 1843              		.loc 6 42 10 is_stmt 1 view .LVU388
 1844              	.LBB930:
 1845              	.LBI930:
 252:../../libDaisy//src/dev/oled_ssd130x.h ****     {
 1846              		.loc 8 252 10 view .LVU389
 1847              	.LBB931:
 254:../../libDaisy//src/dev/oled_ssd130x.h ****             return;
 1848              		.loc 8 254 9 is_stmt 0 view .LVU390
 1849 0186 7F29     		cmp	r1, #127
 1850 0188 06D8     		bhi	.L143
 1851 018a 3F2D     		cmp	r5, #63
 1852 018c 04D8     		bhi	.L143
 257:../../libDaisy//src/dev/oled_ssd130x.h ****         else
 1853              		.loc 8 257 42 view .LVU391
 1854 018e 1078     		ldrb	r0, [r2]	@ zero_extendqisi2
 256:../../libDaisy//src/dev/oled_ssd130x.h ****             buffer_[x + (y / 8) * width] |= (1 << (y % 8));
 1855              		.loc 8 256 9 view .LVU392
 1856 0190 96B1     		cbz	r6, .L145
 1857              	.L177:
 256:../../libDaisy//src/dev/oled_ssd130x.h ****             buffer_[x + (y / 8) * width] |= (1 << (y % 8));
 1858              		.loc 8 256 9 view .LVU393
 1859              	.LBE931:
 1860              	.LBE930:
 1861              	.LBE929:
 1862              	.LBB932:
 1863              	.LBB924:
 1864              	.LBB919:
 257:../../libDaisy//src/dev/oled_ssd130x.h ****         else
 1865              		.loc 8 257 42 view .LVU394
 1866 0192 4CEA0000 		orr	r0, ip, r0
ARM GAS  /tmp/ccZePa4k.s 			page 64


 1867 0196 1070     		strb	r0, [r2]
 1868              	.L143:
 1869              	.LBE919:
 1870              	.LBE924:
 1871              	.LBE932:
 416:../../libDaisy//src/hid/disp/display.h ****             {
 1872              		.loc 7 416 13 is_stmt 1 view .LVU395
 1873 0198 0133     		adds	r3, r3, #1
 1874              	.LVL128:
 416:../../libDaisy//src/hid/disp/display.h ****             {
 1875              		.loc 7 416 26 view .LVU396
 1876 019a 0132     		adds	r2, r2, #1
 1877 019c 0131     		adds	r1, r1, #1
 1878 019e 9C42     		cmp	r4, r3
 1879 01a0 13D0     		beq	.L146
 1880              	.LVL129:
 1881              	.L147:
 418:../../libDaisy//src/hid/disp/display.h ****                 {
 1882              		.loc 7 418 23 is_stmt 0 view .LVU397
 1883 01a2 07FA03F0 		lsl	r0, r7, r3
 418:../../libDaisy//src/hid/disp/display.h ****                 {
 1884              		.loc 7 418 17 view .LVU398
 1885 01a6 0004     		lsls	r0, r0, #16
 1886 01a8 EDD4     		bmi	.L183
 1887              	.LVL130:
 1888              	.LBB933:
 1889              	.LBI906:
  42:../../libDaisy//src/hid/disp/oled_display.h ****     {
 1890              		.loc 6 42 10 is_stmt 1 view .LVU399
 1891              	.LBB925:
 1892              	.LBI907:
 252:../../libDaisy//src/dev/oled_ssd130x.h ****     {
 1893              		.loc 8 252 10 view .LVU400
 1894              	.LBB920:
 254:../../libDaisy//src/dev/oled_ssd130x.h ****             return;
 1895              		.loc 8 254 9 is_stmt 0 view .LVU401
 1896 01aa 7F29     		cmp	r1, #127
 1897 01ac F4D8     		bhi	.L143
 1898 01ae 3F2D     		cmp	r5, #63
 1899 01b0 F2D8     		bhi	.L143
 257:../../libDaisy//src/dev/oled_ssd130x.h ****         else
 1900              		.loc 8 257 42 view .LVU402
 1901 01b2 1078     		ldrb	r0, [r2]	@ zero_extendqisi2
 256:../../libDaisy//src/dev/oled_ssd130x.h ****             buffer_[x + (y / 8) * width] |= (1 << (y % 8));
 1902              		.loc 8 256 9 view .LVU403
 1903 01b4 002E     		cmp	r6, #0
 1904 01b6 ECD0     		beq	.L177
 1905              	.L145:
 1906              	.LVL131:
 1907              	.LBB915:
 1908              	.LBI909:
 252:../../libDaisy//src/dev/oled_ssd130x.h ****     {
 1909              		.loc 8 252 10 is_stmt 1 view .LVU404
 252:../../libDaisy//src/dev/oled_ssd130x.h ****     {
 1910              		.loc 8 252 10 is_stmt 0 view .LVU405
 1911              	.LBE915:
 1912              	.LBE920:
ARM GAS  /tmp/ccZePa4k.s 			page 65


 1913              	.LBE925:
 1914              	.LBE933:
 416:../../libDaisy//src/hid/disp/display.h ****             {
 1915              		.loc 7 416 13 view .LVU406
 1916 01b8 0133     		adds	r3, r3, #1
 1917              	.LVL132:
 1918              	.LBB934:
 1919              	.LBB926:
 1920              	.LBB921:
 1921              	.LBB916:
 1922              	.LBB912:
 259:../../libDaisy//src/dev/oled_ssd130x.h ****     }
 1923              		.loc 8 259 42 view .LVU407
 1924 01ba 09EA0000 		and	r0, r9, r0
 1925              	.LBE912:
 1926              	.LBE916:
 1927              	.LBE921:
 1928              	.LBE926:
 1929              	.LBE934:
 416:../../libDaisy//src/hid/disp/display.h ****             {
 1930              		.loc 7 416 26 view .LVU408
 1931 01be 0132     		adds	r2, r2, #1
 1932 01c0 0131     		adds	r1, r1, #1
 1933 01c2 9C42     		cmp	r4, r3
 1934              	.LBB935:
 1935              	.LBB927:
 1936              	.LBB922:
 1937              	.LBB917:
 1938              	.LBB913:
 259:../../libDaisy//src/dev/oled_ssd130x.h ****     }
 1939              		.loc 8 259 42 view .LVU409
 1940 01c4 02F8010C 		strb	r0, [r2, #-1]
 259:../../libDaisy//src/dev/oled_ssd130x.h ****     }
 1941              		.loc 8 259 42 view .LVU410
 1942              	.LBE913:
 1943              	.LBE917:
 1944              	.LBE922:
 1945              	.LBE927:
 1946              	.LBE935:
 416:../../libDaisy//src/hid/disp/display.h ****             {
 1947              		.loc 7 416 13 is_stmt 1 view .LVU411
 1948              	.LVL133:
 416:../../libDaisy//src/hid/disp/display.h ****             {
 1949              		.loc 7 416 26 view .LVU412
 1950 01c8 EBD1     		bne	.L147
 1951              	.LVL134:
 1952              	.L146:
 413:../../libDaisy//src/hid/disp/display.h ****         {
 1953              		.loc 7 413 9 view .LVU413
 413:../../libDaisy//src/hid/disp/display.h ****         {
 1954              		.loc 7 413 22 view .LVU414
 1955 01ca F345     		cmp	fp, lr
 1956 01cc 05F10105 		add	r5, r5, #1
 1957 01d0 C3D1     		bne	.L141
 1958 01d2 DDF814B0 		ldr	fp, [sp, #20]
 1959              	.LVL135:
 1960              	.L140:
ARM GAS  /tmp/ccZePa4k.s 			page 66


 1961              	.LBB936:
 1962              	.LBB937:
 173:../../libDaisy//src/hid/disp/display.h ****         currentY_ = (y >= Height()) ? Height() - 1 : y;
 1963              		.loc 7 173 33 is_stmt 0 view .LVU415
 1964 01d6 D8F80020 		ldr	r2, [r8]
 1965              	.LBE937:
 1966              	.LBE936:
 434:../../libDaisy//src/hid/disp/display.h **** 
 1967              		.loc 7 434 18 view .LVU416
 1968 01da 0AEB0405 		add	r5, r10, r4
 1969 01de 0199     		ldr	r1, [sp, #4]
 1970              	.LBB942:
 1971              	.LBB938:
 173:../../libDaisy//src/hid/disp/display.h ****         currentY_ = (y >= Height()) ? Height() - 1 : y;
 1972              		.loc 7 173 33 view .LVU417
 1973 01e0 D368     		ldr	r3, [r2, #12]
 1974              	.LBE938:
 1975              	.LBE942:
 434:../../libDaisy//src/hid/disp/display.h **** 
 1976              		.loc 7 434 18 view .LVU418
 1977 01e2 ADB2     		uxth	r5, r5
 1978              	.LVL136:
 1979              	.LBB943:
 1980              	.LBI936:
 171:../../libDaisy//src/hid/disp/display.h ****     {
 1981              		.loc 7 171 10 is_stmt 1 view .LVU419
 1982              	.LBB939:
 173:../../libDaisy//src/hid/disp/display.h ****         currentY_ = (y >= Height()) ? Height() - 1 : y;
 1983              		.loc 7 173 9 view .LVU420
 1984 01e4 8B42     		cmp	r3, r1
 1985 01e6 40F0BD80 		bne	.L184
 173:../../libDaisy//src/hid/disp/display.h ****         currentY_ = (y >= Height()) ? Height() - 1 : y;
 1986              		.loc 7 173 33 is_stmt 0 view .LVU421
 1987 01ea 8020     		movs	r0, #128
 1988              	.L148:
 173:../../libDaisy//src/hid/disp/display.h ****         currentY_ = (y >= Height()) ? Height() - 1 : y;
 1989              		.loc 7 173 19 view .LVU422
 1990 01ec 8542     		cmp	r5, r0
 1991 01ee 05D3     		bcc	.L149
 173:../../libDaisy//src/hid/disp/display.h ****         currentY_ = (y >= Height()) ? Height() - 1 : y;
 1992              		.loc 7 173 44 view .LVU423
 1993 01f0 D368     		ldr	r3, [r2, #12]
 1994 01f2 0199     		ldr	r1, [sp, #4]
 1995 01f4 8B42     		cmp	r3, r1
 1996 01f6 40F0C380 		bne	.L185
 1997 01fa 7F25     		movs	r5, #127
 1998              	.LVL137:
 1999              	.L149:
 174:../../libDaisy//src/hid/disp/display.h ****     }
 2000              		.loc 7 174 34 view .LVU424
 2001 01fc 9368     		ldr	r3, [r2, #8]
 2002 01fe 039A     		ldr	r2, [sp, #12]
 173:../../libDaisy//src/hid/disp/display.h ****         currentY_ = (y >= Height()) ? Height() - 1 : y;
 2003              		.loc 7 173 19 view .LVU425
 2004 0200 A8F80450 		strh	r5, [r8, #4]	@ movhi
 174:../../libDaisy//src/hid/disp/display.h ****     }
 2005              		.loc 7 174 9 is_stmt 1 view .LVU426
ARM GAS  /tmp/ccZePa4k.s 			page 67


 2006 0204 9342     		cmp	r3, r2
 2007 0206 40F0AA80 		bne	.L186
 174:../../libDaisy//src/hid/disp/display.h ****     }
 2008              		.loc 7 174 34 is_stmt 0 view .LVU427
 2009 020a 4020     		movs	r0, #64
 2010              	.L151:
 174:../../libDaisy//src/hid/disp/display.h ****     }
 2011              		.loc 7 174 19 view .LVU428
 2012 020c 029B     		ldr	r3, [sp, #8]
 2013 020e 8342     		cmp	r3, r0
 2014 0210 08D3     		bcc	.L152
 174:../../libDaisy//src/hid/disp/display.h ****     }
 2015              		.loc 7 174 46 view .LVU429
 2016 0212 D8F80030 		ldr	r3, [r8]
 2017 0216 039A     		ldr	r2, [sp, #12]
 2018 0218 9B68     		ldr	r3, [r3, #8]
 2019 021a 9342     		cmp	r3, r2
 2020 021c 40F0AA80 		bne	.L187
 2021 0220 3F23     		movs	r3, #63
 2022 0222 0293     		str	r3, [sp, #8]
 2023              	.LVL138:
 2024              	.L152:
 174:../../libDaisy//src/hid/disp/display.h ****     }
 2025              		.loc 7 174 19 view .LVU430
 2026 0224 029B     		ldr	r3, [sp, #8]
 2027 0226 A8F80630 		strh	r3, [r8, #6]	@ movhi
 2028              	.LVL139:
 2029              	.L134:
 174:../../libDaisy//src/hid/disp/display.h ****     }
 2030              		.loc 7 174 19 view .LVU431
 2031              	.LBE939:
 2032              	.LBE943:
 2033              	.LBE905:
 2034              	.LBE904:
 445:../../libDaisy//src/hid/disp/display.h ****                != *str)
 2035              		.loc 7 445 13 view .LVU432
 2036 022a 009A     		ldr	r2, [sp]
 2037 022c 1378     		ldrb	r3, [r2]	@ zero_extendqisi2
 2038 022e 5B45     		cmp	r3, fp
 2039 0230 06D1     		bne	.L102
 2040              	.LVL140:
 443:../../libDaisy//src/hid/disp/display.h ****         {
 2041              		.loc 7 443 9 is_stmt 1 view .LVU433
 2042 0232 12F801BF 		ldrb	fp, [r2, #1]!	@ zero_extendqisi2
 2043              	.LVL141:
 443:../../libDaisy//src/hid/disp/display.h ****         {
 2044              		.loc 7 443 9 is_stmt 0 view .LVU434
 2045 0236 0092     		str	r2, [sp]
 2046 0238 BBF1000F 		cmp	fp, #0
 2047 023c 7FF454AF 		bne	.L132
 2048              	.LVL142:
 2049              	.L102:
 443:../../libDaisy//src/hid/disp/display.h ****         {
 2050              		.loc 7 443 9 view .LVU435
 2051              	.LBE949:
 2052              	.LBE952:
 471:../../libDaisy//src/hid/disp/display.h **** 
ARM GAS  /tmp/ccZePa4k.s 			page 68


 2053              		.loc 7 471 5 view .LVU436
 2054 0240 0698     		ldr	r0, [sp, #24]
 2055 0242 09B0     		add	sp, sp, #36
 2056              		.cfi_remember_state
 2057              		.cfi_def_cfa_offset 36
 2058              		@ sp needed
 2059 0244 BDE8F08F 		pop	{r4, r5, r6, r7, r8, r9, r10, fp, pc}
 2060              	.LVL143:
 2061              	.L115:
 2062              		.cfi_restore_state
 2063              	.LBB953:
 2064              	.LBB875:
 250:../../libDaisy//src/hid/disp/graphics_common.h ****                 return {int16_t(x_ + (other.GetCenterX() - GetCenterX())),
 2065              		.loc 9 250 13 is_stmt 1 view .LVU437
 251:../../libDaisy//src/hid/disp/graphics_common.h ****                         int16_t(y_ + (other.GetCenterY() - GetCenterY())),
 2066              		.loc 9 251 17 view .LVU438
 2067              	.LBB709:
 2068              	.LBI709:
  62:../../libDaisy//src/hid/disp/graphics_common.h ****     int16_t GetCenterY() const { return y_ + height_ / 2; }
 2069              		.loc 9 62 13 view .LVU439
 2070              	.LBB710:
  62:../../libDaisy//src/hid/disp/graphics_common.h ****     int16_t GetCenterY() const { return y_ + height_ / 2; }
 2071              		.loc 9 62 34 view .LVU440
  62:../../libDaisy//src/hid/disp/graphics_common.h ****     int16_t GetCenterY() const { return y_ + height_ / 2; }
 2072              		.loc 9 62 34 is_stmt 0 view .LVU441
 2073              	.LBE710:
 2074              	.LBE709:
 2075              	.LBB712:
 2076              	.LBI712:
  62:../../libDaisy//src/hid/disp/graphics_common.h ****     int16_t GetCenterY() const { return y_ + height_ / 2; }
 2077              		.loc 9 62 13 is_stmt 1 view .LVU442
 2078              	.LBB713:
  62:../../libDaisy//src/hid/disp/graphics_common.h ****     int16_t GetCenterY() const { return y_ + height_ / 2; }
 2079              		.loc 9 62 34 view .LVU443
  62:../../libDaisy//src/hid/disp/graphics_common.h ****     int16_t GetCenterY() const { return y_ + height_ / 2; }
 2080              		.loc 9 62 34 is_stmt 0 view .LVU444
 2081              	.LBE713:
 2082              	.LBE712:
 2083              	.LBB714:
 2084              	.LBB711:
  62:../../libDaisy//src/hid/disp/graphics_common.h ****     int16_t GetCenterY() const { return y_ + height_ / 2; }
 2085              		.loc 9 62 53 view .LVU445
 2086 0248 B4F90410 		ldrsh	r1, [r4, #4]
 2087              	.LVL144:
  62:../../libDaisy//src/hid/disp/graphics_common.h ****     int16_t GetCenterY() const { return y_ + height_ / 2; }
 2088              		.loc 9 62 44 view .LVU446
 2089 024c 2788     		ldrh	r7, [r4]
  62:../../libDaisy//src/hid/disp/graphics_common.h ****     int16_t GetCenterY() const { return y_ + height_ / 2; }
 2090              		.loc 9 62 53 view .LVU447
 2091 024e 0029     		cmp	r1, #0
 2092 0250 B8BF     		it	lt
 2093 0252 0131     		addlt	r1, r1, #1
  62:../../libDaisy//src/hid/disp/graphics_common.h ****     int16_t GetCenterY() const { return y_ + height_ / 2; }
 2094              		.loc 9 62 44 view .LVU448
 2095 0254 07EB6107 		add	r7, r7, r1, asr #1
 2096              	.LBE711:
 2097              	.LBE714:
ARM GAS  /tmp/ccZePa4k.s 			page 69


 2098              	.LBB715:
 2099              	.LBB687:
  63:../../libDaisy//src/hid/disp/graphics_common.h **** 
 2100              		.loc 9 63 54 view .LVU449
 2101 0258 B4F90610 		ldrsh	r1, [r4, #6]
 2102              	.LBE687:
 2103              	.LBE715:
 251:../../libDaisy//src/hid/disp/graphics_common.h ****                         int16_t(y_ + (other.GetCenterY() - GetCenterY())),
 2104              		.loc 9 251 58 view .LVU450
 2105 025c A7EB6307 		sub	r7, r7, r3, asr #1
 2106              	.LBB716:
 2107              	.LBB688:
  63:../../libDaisy//src/hid/disp/graphics_common.h **** 
 2108              		.loc 9 63 54 view .LVU451
 2109 0260 0029     		cmp	r1, #0
 2110              	.LBE688:
 2111              	.LBE716:
 251:../../libDaisy//src/hid/disp/graphics_common.h ****                         int16_t(y_ + (other.GetCenterY() - GetCenterY())),
 2112              		.loc 9 251 58 view .LVU452
 2113 0262 BFB2     		uxth	r7, r7
 2114              	.LVL145:
 2115              	.LBB717:
 2116              	.LBI684:
  63:../../libDaisy//src/hid/disp/graphics_common.h **** 
 2117              		.loc 9 63 13 is_stmt 1 view .LVU453
 2118              	.LBB689:
  63:../../libDaisy//src/hid/disp/graphics_common.h **** 
 2119              		.loc 9 63 34 view .LVU454
  63:../../libDaisy//src/hid/disp/graphics_common.h **** 
 2120              		.loc 9 63 34 is_stmt 0 view .LVU455
 2121              	.LBE689:
 2122              	.LBE717:
 2123              	.LBB718:
 2124              	.LBI718:
  63:../../libDaisy//src/hid/disp/graphics_common.h **** 
 2125              		.loc 9 63 13 is_stmt 1 view .LVU456
 2126              	.LBB719:
  63:../../libDaisy//src/hid/disp/graphics_common.h **** 
 2127              		.loc 9 63 34 view .LVU457
  63:../../libDaisy//src/hid/disp/graphics_common.h **** 
 2128              		.loc 9 63 34 is_stmt 0 view .LVU458
 2129              	.LBE719:
 2130              	.LBE718:
 2131              	.LBB720:
 2132              	.LBB690:
  63:../../libDaisy//src/hid/disp/graphics_common.h **** 
 2133              		.loc 9 63 54 view .LVU459
 2134 0264 BFF602AF 		bge	.L122
 2135              	.L178:
  63:../../libDaisy//src/hid/disp/graphics_common.h **** 
 2136              		.loc 9 63 54 view .LVU460
 2137 0268 0131     		adds	r1, r1, #1
 2138 026a FFE6     		b	.L122
 2139              	.LVL146:
 2140              	.L114:
  63:../../libDaisy//src/hid/disp/graphics_common.h **** 
 2141              		.loc 9 63 54 view .LVU461
ARM GAS  /tmp/ccZePa4k.s 			page 70


 2142              	.LBE690:
 2143              	.LBE720:
 213:../../libDaisy//src/hid/disp/graphics_common.h ****                 return {other.x_, other.y_, width_, height_};
 2144              		.loc 9 213 13 is_stmt 1 view .LVU462
 214:../../libDaisy//src/hid/disp/graphics_common.h ****             case Alignment::topRight:
 2145              		.loc 9 214 17 view .LVU463
 214:../../libDaisy//src/hid/disp/graphics_common.h ****             case Alignment::topRight:
 2146              		.loc 9 214 31 is_stmt 0 view .LVU464
 2147 026c B4F90070 		ldrsh	r7, [r4]
 2148              	.LBB721:
 2149              	.LBB722:
 2150              	.LBB723:
  32:../../libDaisy//src/hid/disp/graphics_common.h ****     {
 2151              		.loc 9 32 66 view .LVU465
 2152 0270 0699     		ldr	r1, [sp, #24]
 2153              	.LVL147:
  32:../../libDaisy//src/hid/disp/graphics_common.h ****     {
 2154              		.loc 9 32 66 view .LVU466
 2155              	.LBE723:
 2156              	.LBE722:
 2157              	.LBE721:
 214:../../libDaisy//src/hid/disp/graphics_common.h ****             case Alignment::topRight:
 2158              		.loc 9 214 41 view .LVU467
 2159 0272 B4F90240 		ldrsh	r4, [r4, #2]
 2160              	.LVL148:
 2161              	.LBB736:
 2162              	.LBI721:
  31:../../libDaisy//src/hid/disp/graphics_common.h ****     : x_(x), y_(y), width_(max(0, width)), height_(max(0, height))
 2163              		.loc 9 31 5 is_stmt 1 view .LVU468
 2164              	.LBB731:
 2165              	.LBB726:
  32:../../libDaisy//src/hid/disp/graphics_common.h ****     {
 2166              		.loc 9 32 66 is_stmt 0 view .LVU469
 2167 0276 0F80     		strh	r7, [r1]	@ movhi
 2168              	.LBE726:
 2169              	.LBE731:
 2170              	.LBE736:
 2171              	.LBE875:
 2172              	.LBE953:
 468:../../libDaisy//src/hid/disp/display.h ****         ((ChildType*)(this))->ChildType::WriteString(str, font, on);
 2173              		.loc 7 468 18 view .LVU470
 2174 0278 BFB2     		uxth	r7, r7
 2175              	.LVL149:
 2176              	.LBB954:
 2177              	.LBB876:
 2178              	.LBB737:
 2179              	.LBB732:
 2180              	.LBB727:
  32:../../libDaisy//src/hid/disp/graphics_common.h ****     {
 2181              		.loc 9 32 66 view .LVU471
 2182 027a 4C80     		strh	r4, [r1, #2]	@ movhi
 2183              	.LBE727:
 2184              	.LBE732:
 2185              	.LBE737:
 2186              	.LBE876:
 2187              	.LBE954:
 468:../../libDaisy//src/hid/disp/display.h ****         ((ChildType*)(this))->ChildType::WriteString(str, font, on);
ARM GAS  /tmp/ccZePa4k.s 			page 71


 2188              		.loc 7 468 18 view .LVU472
 2189 027c A4B2     		uxth	r4, r4
 2190              	.LVL150:
 2191              	.LBB955:
 2192              	.LBB877:
 2193              	.LBB738:
 2194              	.LBB733:
 2195              	.LBB728:
  32:../../libDaisy//src/hid/disp/graphics_common.h ****     {
 2196              		.loc 9 32 66 view .LVU473
 2197 027e 8B80     		strh	r3, [r1, #4]	@ movhi
 2198              	.LVL151:
 2199              	.LBB724:
 2200              	.LBI724:
 2201              		.loc 9 261 13 is_stmt 1 view .LVU474
 2202              	.LBE724:
 2203              	.LBE728:
 2204              	.LBE733:
 2205              	.LBE738:
 2206              	.LBE877:
 2207              	.LBE955:
 2208              		.loc 9 261 41 view .LVU475
 2209              	.LBB956:
 2210              	.LBB878:
 2211              	.LBB739:
 2212              	.LBB734:
 2213              	.LBB729:
 2214              	.LBB725:
 2215              	.LBI725:
 2216              		.loc 9 261 13 view .LVU476
 2217              	.LBE725:
 2218              	.LBE729:
 2219              	.LBE734:
 2220              	.LBE739:
 2221              	.LBE878:
 2222              	.LBE956:
 2223              		.loc 9 261 41 view .LVU477
 2224              	.LBB957:
 2225              	.LBB879:
 2226              	.LBB740:
 2227              	.LBB735:
 2228              	.LBB730:
  32:../../libDaisy//src/hid/disp/graphics_common.h ****     {
 2229              		.loc 9 32 66 is_stmt 0 view .LVU478
 2230 0280 CA80     		strh	r2, [r1, #6]	@ movhi
 2231              	.LBE730:
  34:../../libDaisy//src/hid/disp/graphics_common.h **** 
 2232              		.loc 9 34 5 view .LVU479
 2233 0282 FEE6     		b	.L116
 2234              	.LVL152:
 2235              	.L113:
  34:../../libDaisy//src/hid/disp/graphics_common.h **** 
 2236              		.loc 9 34 5 view .LVU480
 2237              	.LBE735:
 2238              	.LBE740:
 220:../../libDaisy//src/hid/disp/graphics_common.h ****                 return {int16_t(x_ + (other.GetCenterX() - GetCenterX())),
 2239              		.loc 9 220 13 is_stmt 1 view .LVU481
ARM GAS  /tmp/ccZePa4k.s 			page 72


 221:../../libDaisy//src/hid/disp/graphics_common.h ****                         other.y_,
 2240              		.loc 9 221 17 view .LVU482
 2241              	.LBB741:
 2242              	.LBI741:
  62:../../libDaisy//src/hid/disp/graphics_common.h ****     int16_t GetCenterY() const { return y_ + height_ / 2; }
 2243              		.loc 9 62 13 view .LVU483
 2244              	.LBB742:
  62:../../libDaisy//src/hid/disp/graphics_common.h ****     int16_t GetCenterY() const { return y_ + height_ / 2; }
 2245              		.loc 9 62 34 view .LVU484
  62:../../libDaisy//src/hid/disp/graphics_common.h ****     int16_t GetCenterY() const { return y_ + height_ / 2; }
 2246              		.loc 9 62 34 is_stmt 0 view .LVU485
 2247              	.LBE742:
 2248              	.LBE741:
 2249              	.LBB745:
 2250              	.LBI745:
  62:../../libDaisy//src/hid/disp/graphics_common.h ****     int16_t GetCenterY() const { return y_ + height_ / 2; }
 2251              		.loc 9 62 13 is_stmt 1 view .LVU486
 2252              	.LBB746:
  62:../../libDaisy//src/hid/disp/graphics_common.h ****     int16_t GetCenterY() const { return y_ + height_ / 2; }
 2253              		.loc 9 62 34 view .LVU487
  62:../../libDaisy//src/hid/disp/graphics_common.h ****     int16_t GetCenterY() const { return y_ + height_ / 2; }
 2254              		.loc 9 62 34 is_stmt 0 view .LVU488
 2255              	.LBE746:
 2256              	.LBE745:
 2257              	.LBB747:
 2258              	.LBB743:
  62:../../libDaisy//src/hid/disp/graphics_common.h ****     int16_t GetCenterY() const { return y_ + height_ / 2; }
 2259              		.loc 9 62 53 view .LVU489
 2260 0284 B4F90410 		ldrsh	r1, [r4, #4]
 2261              	.LVL153:
  62:../../libDaisy//src/hid/disp/graphics_common.h ****     int16_t GetCenterY() const { return y_ + height_ / 2; }
 2262              		.loc 9 62 44 view .LVU490
 2263 0288 2788     		ldrh	r7, [r4]
  62:../../libDaisy//src/hid/disp/graphics_common.h ****     int16_t GetCenterY() const { return y_ + height_ / 2; }
 2264              		.loc 9 62 53 view .LVU491
 2265 028a 0029     		cmp	r1, #0
 2266              	.LBE743:
 2267              	.LBE747:
 222:../../libDaisy//src/hid/disp/graphics_common.h ****                         width_,
 2268              		.loc 9 222 31 view .LVU492
 2269 028c B4F90240 		ldrsh	r4, [r4, #2]
 2270              	.LVL154:
 2271              	.LBB748:
 2272              	.LBB744:
  62:../../libDaisy//src/hid/disp/graphics_common.h ****     int16_t GetCenterY() const { return y_ + height_ / 2; }
 2273              		.loc 9 62 53 view .LVU493
 2274 0290 B8BF     		it	lt
 2275 0292 0131     		addlt	r1, r1, #1
  62:../../libDaisy//src/hid/disp/graphics_common.h ****     int16_t GetCenterY() const { return y_ + height_ / 2; }
 2276              		.loc 9 62 44 view .LVU494
 2277 0294 07EB6107 		add	r7, r7, r1, asr #1
 2278              	.LBE744:
 2279              	.LBE748:
 2280              	.LBB749:
 2281              	.LBB750:
 2282              	.LBB751:
  32:../../libDaisy//src/hid/disp/graphics_common.h ****     {
ARM GAS  /tmp/ccZePa4k.s 			page 73


 2283              		.loc 9 32 66 view .LVU495
 2284 0298 0699     		ldr	r1, [sp, #24]
 2285 029a 8B80     		strh	r3, [r1, #4]	@ movhi
 2286              	.LBE751:
 2287              	.LBE750:
 2288              	.LBE749:
 221:../../libDaisy//src/hid/disp/graphics_common.h ****                         other.y_,
 2289              		.loc 9 221 58 view .LVU496
 2290 029c A7EB6303 		sub	r3, r7, r3, asr #1
 2291              	.LBB762:
 2292              	.LBB758:
 2293              	.LBB754:
  32:../../libDaisy//src/hid/disp/graphics_common.h ****     {
 2294              		.loc 9 32 66 view .LVU497
 2295 02a0 4C80     		strh	r4, [r1, #2]	@ movhi
 2296              	.LBE754:
 2297              	.LBE758:
 2298              	.LBE762:
 2299              	.LBE879:
 2300              	.LBE957:
 468:../../libDaisy//src/hid/disp/display.h ****         ((ChildType*)(this))->ChildType::WriteString(str, font, on);
 2301              		.loc 7 468 18 view .LVU498
 2302 02a2 A4B2     		uxth	r4, r4
 2303              	.LBB958:
 2304              	.LBB880:
 221:../../libDaisy//src/hid/disp/graphics_common.h ****                         other.y_,
 2305              		.loc 9 221 58 view .LVU499
 2306 02a4 9FB2     		uxth	r7, r3
 2307              	.LVL155:
 2308              	.LBB763:
 2309              	.LBI749:
  31:../../libDaisy//src/hid/disp/graphics_common.h ****     : x_(x), y_(y), width_(max(0, width)), height_(max(0, height))
 2310              		.loc 9 31 5 is_stmt 1 view .LVU500
 2311              	.LBB759:
 2312              	.LBB755:
 2313              	.LBB752:
 2314              	.LBI752:
 2315              		.loc 9 261 13 view .LVU501
 2316              	.LBE752:
 2317              	.LBE755:
 2318              	.LBE759:
 2319              	.LBE763:
 2320              	.LBE880:
 2321              	.LBE958:
 2322              		.loc 9 261 41 view .LVU502
 2323              	.LBB959:
 2324              	.LBB881:
 2325              	.LBB764:
 2326              	.LBB760:
 2327              	.LBB756:
 2328              	.LBB753:
 2329              	.LBI753:
 2330              		.loc 9 261 13 view .LVU503
 2331              	.LBE753:
 2332              	.LBE756:
 2333              	.LBE760:
 2334              	.LBE764:
ARM GAS  /tmp/ccZePa4k.s 			page 74


 2335              	.LBE881:
 2336              	.LBE959:
 2337              		.loc 9 261 41 view .LVU504
 2338              	.LBB960:
 2339              	.LBB882:
 2340              	.LBB765:
 2341              	.LBB761:
 2342              	.LBB757:
  32:../../libDaisy//src/hid/disp/graphics_common.h ****     {
 2343              		.loc 9 32 66 is_stmt 0 view .LVU505
 2344 02a6 CA80     		strh	r2, [r1, #6]	@ movhi
 2345 02a8 0F80     		strh	r7, [r1]	@ movhi
 2346              	.LBE757:
  34:../../libDaisy//src/hid/disp/graphics_common.h **** 
 2347              		.loc 9 34 5 view .LVU506
 2348 02aa EAE6     		b	.L116
 2349              	.LVL156:
 2350              	.L112:
  34:../../libDaisy//src/hid/disp/graphics_common.h **** 
 2351              		.loc 9 34 5 view .LVU507
 2352              	.LBE761:
 2353              	.LBE765:
 215:../../libDaisy//src/hid/disp/graphics_common.h ****                 return {int16_t(other.GetRight() - width_),
 2354              		.loc 9 215 13 is_stmt 1 view .LVU508
 216:../../libDaisy//src/hid/disp/graphics_common.h ****                         other.y_,
 2355              		.loc 9 216 17 view .LVU509
 2356              	.LBB766:
 2357              	.LBI766:
  60:../../libDaisy//src/hid/disp/graphics_common.h ****     int16_t GetBottom() const { return y_ + height_; }
 2358              		.loc 9 60 13 view .LVU510
 2359              	.LBB767:
  60:../../libDaisy//src/hid/disp/graphics_common.h ****     int16_t GetBottom() const { return y_ + height_; }
 2360              		.loc 9 60 32 view .LVU511
  60:../../libDaisy//src/hid/disp/graphics_common.h ****     int16_t GetBottom() const { return y_ + height_; }
 2361              		.loc 9 60 42 is_stmt 0 view .LVU512
 2362 02ac A188     		ldrh	r1, [r4, #4]
 2363              	.LVL157:
  60:../../libDaisy//src/hid/disp/graphics_common.h ****     int16_t GetBottom() const { return y_ + height_; }
 2364              		.loc 9 60 42 view .LVU513
 2365 02ae 2788     		ldrh	r7, [r4]
 2366              	.LBE767:
 2367              	.LBE766:
 217:../../libDaisy//src/hid/disp/graphics_common.h ****                         width_,
 2368              		.loc 9 217 31 view .LVU514
 2369 02b0 B4F90240 		ldrsh	r4, [r4, #2]
 2370              	.LVL158:
 2371              	.LBB769:
 2372              	.LBB768:
  60:../../libDaisy//src/hid/disp/graphics_common.h ****     int16_t GetBottom() const { return y_ + height_; }
 2373              		.loc 9 60 42 view .LVU515
 2374 02b4 0F44     		add	r7, r7, r1
 2375              	.LBE768:
 2376              	.LBE769:
 2377              	.LBB770:
 2378              	.LBB771:
 2379              	.LBB772:
  32:../../libDaisy//src/hid/disp/graphics_common.h ****     {
ARM GAS  /tmp/ccZePa4k.s 			page 75


 2380              		.loc 9 32 66 view .LVU516
 2381 02b6 0699     		ldr	r1, [sp, #24]
 2382 02b8 8B80     		strh	r3, [r1, #4]	@ movhi
 2383              	.LBE772:
 2384              	.LBE771:
 2385              	.LBE770:
 216:../../libDaisy//src/hid/disp/graphics_common.h ****                         other.y_,
 2386              		.loc 9 216 50 view .LVU517
 2387 02ba FB1A     		subs	r3, r7, r3
 2388              	.LBB783:
 2389              	.LBB779:
 2390              	.LBB775:
  32:../../libDaisy//src/hid/disp/graphics_common.h ****     {
 2391              		.loc 9 32 66 view .LVU518
 2392 02bc 4C80     		strh	r4, [r1, #2]	@ movhi
 2393              	.LBE775:
 2394              	.LBE779:
 2395              	.LBE783:
 2396              	.LBE882:
 2397              	.LBE960:
 468:../../libDaisy//src/hid/disp/display.h ****         ((ChildType*)(this))->ChildType::WriteString(str, font, on);
 2398              		.loc 7 468 18 view .LVU519
 2399 02be A4B2     		uxth	r4, r4
 2400              	.LBB961:
 2401              	.LBB883:
 216:../../libDaisy//src/hid/disp/graphics_common.h ****                         other.y_,
 2402              		.loc 9 216 50 view .LVU520
 2403 02c0 9FB2     		uxth	r7, r3
 2404              	.LVL159:
 2405              	.LBB784:
 2406              	.LBI770:
  31:../../libDaisy//src/hid/disp/graphics_common.h ****     : x_(x), y_(y), width_(max(0, width)), height_(max(0, height))
 2407              		.loc 9 31 5 is_stmt 1 view .LVU521
 2408              	.LBB780:
 2409              	.LBB776:
 2410              	.LBB773:
 2411              	.LBI773:
 2412              		.loc 9 261 13 view .LVU522
 2413              	.LBE773:
 2414              	.LBE776:
 2415              	.LBE780:
 2416              	.LBE784:
 2417              	.LBE883:
 2418              	.LBE961:
 2419              		.loc 9 261 41 view .LVU523
 2420              	.LBB962:
 2421              	.LBB884:
 2422              	.LBB785:
 2423              	.LBB781:
 2424              	.LBB777:
 2425              	.LBB774:
 2426              	.LBI774:
 2427              		.loc 9 261 13 view .LVU524
 2428              	.LBE774:
 2429              	.LBE777:
 2430              	.LBE781:
 2431              	.LBE785:
ARM GAS  /tmp/ccZePa4k.s 			page 76


 2432              	.LBE884:
 2433              	.LBE962:
 2434              		.loc 9 261 41 view .LVU525
 2435              	.LBB963:
 2436              	.LBB885:
 2437              	.LBB786:
 2438              	.LBB782:
 2439              	.LBB778:
  32:../../libDaisy//src/hid/disp/graphics_common.h ****     {
 2440              		.loc 9 32 66 is_stmt 0 view .LVU526
 2441 02c2 CA80     		strh	r2, [r1, #6]	@ movhi
 2442 02c4 0F80     		strh	r7, [r1]	@ movhi
 2443              	.LBE778:
  34:../../libDaisy//src/hid/disp/graphics_common.h **** 
 2444              		.loc 9 34 5 view .LVU527
 2445 02c6 DCE6     		b	.L116
 2446              	.LVL160:
 2447              	.L111:
  34:../../libDaisy//src/hid/disp/graphics_common.h **** 
 2448              		.loc 9 34 5 view .LVU528
 2449              	.LBE782:
 2450              	.LBE786:
 225:../../libDaisy//src/hid/disp/graphics_common.h ****                 return {other.x_,
 2451              		.loc 9 225 13 is_stmt 1 view .LVU529
 226:../../libDaisy//src/hid/disp/graphics_common.h ****                         int16_t(other.GetBottom() - height_),
 2452              		.loc 9 226 17 view .LVU530
 2453              	.LBB787:
 2454              	.LBB788:
  61:../../libDaisy//src/hid/disp/graphics_common.h ****     int16_t GetCenterX() const { return x_ + width_ / 2; }
 2455              		.loc 9 61 43 is_stmt 0 view .LVU531
 2456 02c8 E788     		ldrh	r7, [r4, #6]
 2457 02ca 6188     		ldrh	r1, [r4, #2]
 2458              	.LVL161:
  61:../../libDaisy//src/hid/disp/graphics_common.h ****     int16_t GetCenterX() const { return x_ + width_ / 2; }
 2459              		.loc 9 61 43 view .LVU532
 2460 02cc 3944     		add	r1, r1, r7
 2461              	.LBE788:
 2462              	.LBE787:
 226:../../libDaisy//src/hid/disp/graphics_common.h ****                         int16_t(other.GetBottom() - height_),
 2463              		.loc 9 226 31 view .LVU533
 2464 02ce B4F90070 		ldrsh	r7, [r4]
 227:../../libDaisy//src/hid/disp/graphics_common.h ****                         width_,
 2465              		.loc 9 227 51 view .LVU534
 2466 02d2 081A     		subs	r0, r1, r0
 2467              	.LVL162:
 2468              	.LBB790:
 2469              	.LBI787:
  61:../../libDaisy//src/hid/disp/graphics_common.h ****     int16_t GetCenterX() const { return x_ + width_ / 2; }
 2470              		.loc 9 61 13 is_stmt 1 view .LVU535
 2471              	.LBB789:
  61:../../libDaisy//src/hid/disp/graphics_common.h ****     int16_t GetCenterX() const { return x_ + width_ / 2; }
 2472              		.loc 9 61 33 view .LVU536
  61:../../libDaisy//src/hid/disp/graphics_common.h ****     int16_t GetCenterX() const { return x_ + width_ / 2; }
 2473              		.loc 9 61 33 is_stmt 0 view .LVU537
 2474              	.LBE789:
 2475              	.LBE790:
 2476              	.LBB791:
ARM GAS  /tmp/ccZePa4k.s 			page 77


 2477              	.LBB792:
 2478              	.LBB793:
  32:../../libDaisy//src/hid/disp/graphics_common.h ****     {
 2479              		.loc 9 32 66 view .LVU538
 2480 02d4 0699     		ldr	r1, [sp, #24]
 2481              	.LBE793:
 2482              	.LBE792:
 2483              	.LBE791:
 227:../../libDaisy//src/hid/disp/graphics_common.h ****                         width_,
 2484              		.loc 9 227 51 view .LVU539
 2485 02d6 84B2     		uxth	r4, r0
 2486              	.LVL163:
 2487              	.LBB803:
 2488              	.LBB799:
 2489              	.LBB796:
  32:../../libDaisy//src/hid/disp/graphics_common.h ****     {
 2490              		.loc 9 32 66 view .LVU540
 2491 02d8 0F80     		strh	r7, [r1]	@ movhi
 2492 02da 8B80     		strh	r3, [r1, #4]	@ movhi
 2493              	.LVL164:
  32:../../libDaisy//src/hid/disp/graphics_common.h ****     {
 2494              		.loc 9 32 66 view .LVU541
 2495              	.LBE796:
 2496              	.LBE799:
 2497              	.LBI791:
  31:../../libDaisy//src/hid/disp/graphics_common.h ****     : x_(x), y_(y), width_(max(0, width)), height_(max(0, height))
 2498              		.loc 9 31 5 is_stmt 1 view .LVU542
 2499              	.LBE803:
 2500              	.LBE885:
 2501              	.LBE963:
 468:../../libDaisy//src/hid/disp/display.h ****         ((ChildType*)(this))->ChildType::WriteString(str, font, on);
 2502              		.loc 7 468 18 is_stmt 0 view .LVU543
 2503 02dc BFB2     		uxth	r7, r7
 2504              	.LVL165:
 2505              	.LBB964:
 2506              	.LBB886:
 2507              	.LBB804:
 2508              	.LBB800:
 2509              	.LBB797:
  32:../../libDaisy//src/hid/disp/graphics_common.h ****     {
 2510              		.loc 9 32 66 view .LVU544
 2511 02de CA80     		strh	r2, [r1, #6]	@ movhi
 2512 02e0 4C80     		strh	r4, [r1, #2]	@ movhi
 2513              	.LVL166:
 2514              	.LBB794:
 2515              	.LBI794:
 2516              		.loc 9 261 13 is_stmt 1 view .LVU545
 2517              	.LBE794:
 2518              	.LBE797:
 2519              	.LBE800:
 2520              	.LBE804:
 2521              	.LBE886:
 2522              	.LBE964:
 2523              		.loc 9 261 41 view .LVU546
 2524              	.LBB965:
 2525              	.LBB887:
 2526              	.LBB805:
ARM GAS  /tmp/ccZePa4k.s 			page 78


 2527              	.LBB801:
 2528              	.LBB798:
 2529              	.LBB795:
 2530              	.LBI795:
 2531              		.loc 9 261 13 view .LVU547
 2532              	.LBE795:
 2533              	.LBE798:
 2534              	.LBE801:
 2535              	.LBE805:
 2536              	.LBE887:
 2537              	.LBE965:
 2538              		.loc 9 261 41 view .LVU548
 2539              	.LBB966:
 2540              	.LBB888:
 2541              	.LBB806:
 2542              	.LBB802:
  34:../../libDaisy//src/hid/disp/graphics_common.h **** 
 2543              		.loc 9 34 5 is_stmt 0 view .LVU549
 2544 02e2 CEE6     		b	.L116
 2545              	.LVL167:
 2546              	.L110:
  34:../../libDaisy//src/hid/disp/graphics_common.h **** 
 2547              		.loc 9 34 5 view .LVU550
 2548              	.LBE802:
 2549              	.LBE806:
 235:../../libDaisy//src/hid/disp/graphics_common.h ****                 return {int16_t(x_ + (other.GetCenterX() - GetCenterX())),
 2550              		.loc 9 235 13 is_stmt 1 view .LVU551
 236:../../libDaisy//src/hid/disp/graphics_common.h ****                         int16_t(other.GetBottom() - height_),
 2551              		.loc 9 236 17 view .LVU552
 2552              	.LBB807:
 2553              	.LBI807:
  62:../../libDaisy//src/hid/disp/graphics_common.h ****     int16_t GetCenterY() const { return y_ + height_ / 2; }
 2554              		.loc 9 62 13 view .LVU553
 2555              	.LBB808:
  62:../../libDaisy//src/hid/disp/graphics_common.h ****     int16_t GetCenterY() const { return y_ + height_ / 2; }
 2556              		.loc 9 62 34 view .LVU554
  62:../../libDaisy//src/hid/disp/graphics_common.h ****     int16_t GetCenterY() const { return y_ + height_ / 2; }
 2557              		.loc 9 62 34 is_stmt 0 view .LVU555
 2558              	.LBE808:
 2559              	.LBE807:
 2560              	.LBB810:
 2561              	.LBI810:
  62:../../libDaisy//src/hid/disp/graphics_common.h ****     int16_t GetCenterY() const { return y_ + height_ / 2; }
 2562              		.loc 9 62 13 is_stmt 1 view .LVU556
 2563              	.LBB811:
  62:../../libDaisy//src/hid/disp/graphics_common.h ****     int16_t GetCenterY() const { return y_ + height_ / 2; }
 2564              		.loc 9 62 34 view .LVU557
  62:../../libDaisy//src/hid/disp/graphics_common.h ****     int16_t GetCenterY() const { return y_ + height_ / 2; }
 2565              		.loc 9 62 34 is_stmt 0 view .LVU558
 2566              	.LBE811:
 2567              	.LBE810:
 2568              	.LBB812:
 2569              	.LBB809:
  62:../../libDaisy//src/hid/disp/graphics_common.h ****     int16_t GetCenterY() const { return y_ + height_ / 2; }
 2570              		.loc 9 62 53 view .LVU559
 2571 02e4 B4F90410 		ldrsh	r1, [r4, #4]
 2572              	.LVL168:
ARM GAS  /tmp/ccZePa4k.s 			page 79


  62:../../libDaisy//src/hid/disp/graphics_common.h ****     int16_t GetCenterY() const { return y_ + height_ / 2; }
 2573              		.loc 9 62 44 view .LVU560
 2574 02e8 2788     		ldrh	r7, [r4]
  62:../../libDaisy//src/hid/disp/graphics_common.h ****     int16_t GetCenterY() const { return y_ + height_ / 2; }
 2575              		.loc 9 62 53 view .LVU561
 2576 02ea 0029     		cmp	r1, #0
 2577 02ec B8BF     		it	lt
 2578 02ee 0131     		addlt	r1, r1, #1
  62:../../libDaisy//src/hid/disp/graphics_common.h ****     int16_t GetCenterY() const { return y_ + height_ / 2; }
 2579              		.loc 9 62 44 view .LVU562
 2580 02f0 07EB6107 		add	r7, r7, r1, asr #1
 2581              	.LBE809:
 2582              	.LBE812:
 236:../../libDaisy//src/hid/disp/graphics_common.h ****                         int16_t(other.GetBottom() - height_),
 2583              		.loc 9 236 58 view .LVU563
 2584 02f4 A7EB6307 		sub	r7, r7, r3, asr #1
 2585              	.L176:
 2586              	.LBB813:
 2587              	.LBB814:
  61:../../libDaisy//src/hid/disp/graphics_common.h ****     int16_t GetCenterX() const { return x_ + width_ / 2; }
 2588              		.loc 9 61 43 view .LVU564
 2589 02f8 B4F802C0 		ldrh	ip, [r4, #2]
 2590              	.LBE814:
 2591              	.LBE813:
 236:../../libDaisy//src/hid/disp/graphics_common.h ****                         int16_t(other.GetBottom() - height_),
 2592              		.loc 9 236 58 view .LVU565
 2593 02fc BFB2     		uxth	r7, r7
 2594              	.LVL169:
 2595              	.LBB817:
 2596              	.LBI813:
  61:../../libDaisy//src/hid/disp/graphics_common.h ****     int16_t GetCenterX() const { return x_ + width_ / 2; }
 2597              		.loc 9 61 13 is_stmt 1 view .LVU566
 2598              	.LBB815:
  61:../../libDaisy//src/hid/disp/graphics_common.h ****     int16_t GetCenterX() const { return x_ + width_ / 2; }
 2599              		.loc 9 61 33 view .LVU567
  61:../../libDaisy//src/hid/disp/graphics_common.h ****     int16_t GetCenterX() const { return x_ + width_ / 2; }
 2600              		.loc 9 61 43 is_stmt 0 view .LVU568
 2601 02fe E488     		ldrh	r4, [r4, #6]
 2602              	.LVL170:
  61:../../libDaisy//src/hid/disp/graphics_common.h ****     int16_t GetCenterX() const { return x_ + width_ / 2; }
 2603              		.loc 9 61 43 view .LVU569
 2604              	.LBE815:
 2605              	.LBE817:
 2606              	.LBB818:
 2607              	.LBB819:
 2608              	.LBB820:
  32:../../libDaisy//src/hid/disp/graphics_common.h ****     {
 2609              		.loc 9 32 66 view .LVU570
 2610 0300 0699     		ldr	r1, [sp, #24]
 2611              	.LBE820:
 2612              	.LBE819:
 2613              	.LBE818:
 2614              	.LBB832:
 2615              	.LBB816:
  61:../../libDaisy//src/hid/disp/graphics_common.h ****     int16_t GetCenterX() const { return x_ + width_ / 2; }
 2616              		.loc 9 61 43 view .LVU571
 2617 0302 6444     		add	r4, r4, ip
ARM GAS  /tmp/ccZePa4k.s 			page 80


 2618              	.LBE816:
 2619              	.LBE832:
 2620              	.LBB833:
 2621              	.LBB827:
 2622              	.LBB823:
