ARM GAS  /tmp/ccZePa4k.s 			page 1


   1              		.cpu cortex-m7
   2              		.arch armv7e-m
   3              		.fpu fpv5-d16
   4              		.eabi_attribute 28, 1
   5              		.eabi_attribute 20, 1
   6              		.eabi_attribute 21, 1
   7              		.eabi_attribute 23, 3
   8              		.eabi_attribute 24, 1
   9              		.eabi_attribute 25, 1
  10              		.eabi_attribute 26, 1
  11              		.eabi_attribute 30, 2
  12              		.eabi_attribute 34, 1
  13              		.eabi_attribute 18, 4
  14              		.file	"Picologue.cpp"
  15              		.text
  16              	.Ltext0:
  17              		.cfi_sections	.debug_frame
  18              		.section	.text._ZN5daisy9DaisySeedD2Ev,"axG",%progbits,_ZN5daisy9DaisySeedD5Ev,comdat
  19              		.align	1
  20              		.p2align 2,,3
  21              		.weak	_ZN5daisy9DaisySeedD2Ev
  22              		.syntax unified
  23              		.thumb
  24              		.thumb_func
  26              	_ZN5daisy9DaisySeedD2Ev:
  27              	.LVL0:
  28              	.LFB2529:
  29              		.file 1 "../../libDaisy//src/daisy_seed.h"
   1:../../libDaisy//src/daisy_seed.h **** #pragma once
   2:../../libDaisy//src/daisy_seed.h **** #ifndef DSY_SEED_H
   3:../../libDaisy//src/daisy_seed.h **** #define DSY_SEED_H
   4:../../libDaisy//src/daisy_seed.h **** 
   5:../../libDaisy//src/daisy_seed.h **** #include "daisy.h"
   6:../../libDaisy//src/daisy_seed.h **** 
   7:../../libDaisy//src/daisy_seed.h **** //Uncomment this out if you're still using the rev2 hardware
   8:../../libDaisy//src/daisy_seed.h **** //#define SEED_REV2
   9:../../libDaisy//src/daisy_seed.h **** 
  10:../../libDaisy//src/daisy_seed.h **** namespace daisy
  11:../../libDaisy//src/daisy_seed.h **** {
  12:../../libDaisy//src/daisy_seed.h **** /**
  13:../../libDaisy//src/daisy_seed.h ****    @brief This is the higher-level interface for the Daisy board. \n 
  14:../../libDaisy//src/daisy_seed.h ****     All basic peripheral configuration/initialization is setup here. \n
  15:../../libDaisy//src/daisy_seed.h **** 
  16:../../libDaisy//src/daisy_seed.h ****    @ingroup boards
  17:../../libDaisy//src/daisy_seed.h **** */
  18:../../libDaisy//src/daisy_seed.h **** class DaisySeed
  19:../../libDaisy//src/daisy_seed.h **** {
  20:../../libDaisy//src/daisy_seed.h ****   public:
  21:../../libDaisy//src/daisy_seed.h ****     DaisySeed() {}
  22:../../libDaisy//src/daisy_seed.h ****     ~DaisySeed() {}
  30              		.loc 1 22 5 view -0
  31              		.cfi_startproc
  32              		@ args = 0, pretend = 0, frame = 0
  33              		@ frame_needed = 0, uses_anonymous_args = 0
  34              		@ link register save eliminated.
  35              	.LBB318:
  36              	.LBI318:
ARM GAS  /tmp/ccZePa4k.s 			page 2


  37              		.file 2 "../../libDaisy//src/sys/system.h"
   1:../../libDaisy//src/sys/system.h **** #ifndef DSY_SYSTEM_H
   2:../../libDaisy//src/sys/system.h **** #define DSY_SYSTEM_H
   3:../../libDaisy//src/sys/system.h **** 
   4:../../libDaisy//src/sys/system.h **** #ifndef UNIT_TEST // for unit tests, a dummy implementation is provided below
   5:../../libDaisy//src/sys/system.h **** 
   6:../../libDaisy//src/sys/system.h **** #include <cstdint>
   7:../../libDaisy//src/sys/system.h **** #include "per/tim.h"
   8:../../libDaisy//src/sys/system.h **** 
   9:../../libDaisy//src/sys/system.h **** namespace daisy
  10:../../libDaisy//src/sys/system.h **** {
  11:../../libDaisy//src/sys/system.h **** /** A handle for interacting with the Core System. 
  12:../../libDaisy//src/sys/system.h ****  ** This includes the Clock tree, MPU, global DMA initialization,
  13:../../libDaisy//src/sys/system.h ****  ** cache handling, and any other necessary global initiailzation
  14:../../libDaisy//src/sys/system.h ****  **
  15:../../libDaisy//src/sys/system.h ****  ** @author shensley
  16:../../libDaisy//src/sys/system.h ****  ** @ingroup system
  17:../../libDaisy//src/sys/system.h ****  */
  18:../../libDaisy//src/sys/system.h **** class System
  19:../../libDaisy//src/sys/system.h **** {
  20:../../libDaisy//src/sys/system.h ****   public:
  21:../../libDaisy//src/sys/system.h ****     /** Contains settings for initializing the System */
  22:../../libDaisy//src/sys/system.h ****     struct Config
  23:../../libDaisy//src/sys/system.h ****     {
  24:../../libDaisy//src/sys/system.h ****         /** Specifies the system clock frequency that feeds APB/AHB clocks, etc. */
  25:../../libDaisy//src/sys/system.h ****         enum class SysClkFreq
  26:../../libDaisy//src/sys/system.h ****         {
  27:../../libDaisy//src/sys/system.h ****             FREQ_400MHZ,
  28:../../libDaisy//src/sys/system.h ****             FREQ_480MHZ,
  29:../../libDaisy//src/sys/system.h ****         };
  30:../../libDaisy//src/sys/system.h **** 
  31:../../libDaisy//src/sys/system.h ****         /** Method to call on the struct to set to defaults
  32:../../libDaisy//src/sys/system.h ****          ** CPU Freq set to 400MHz
  33:../../libDaisy//src/sys/system.h ****          ** Cache Enabled 
  34:../../libDaisy//src/sys/system.h ****          ** */
  35:../../libDaisy//src/sys/system.h ****         void Defaults()
  36:../../libDaisy//src/sys/system.h ****         {
  37:../../libDaisy//src/sys/system.h ****             cpu_freq    = SysClkFreq::FREQ_400MHZ;
  38:../../libDaisy//src/sys/system.h ****             use_dcache  = true;
  39:../../libDaisy//src/sys/system.h ****             use_icache  = true;
  40:../../libDaisy//src/sys/system.h ****             skip_clocks = false;
  41:../../libDaisy//src/sys/system.h ****         }
  42:../../libDaisy//src/sys/system.h **** 
  43:../../libDaisy//src/sys/system.h ****         /** Method to call on the struct to set to boost mode:
  44:../../libDaisy//src/sys/system.h ****          ** CPU Freq set to 480MHz
  45:../../libDaisy//src/sys/system.h ****          ** Cache Enabled 
  46:../../libDaisy//src/sys/system.h ****          ** */
  47:../../libDaisy//src/sys/system.h ****         void Boost()
  48:../../libDaisy//src/sys/system.h ****         {
  49:../../libDaisy//src/sys/system.h ****             cpu_freq    = SysClkFreq::FREQ_480MHZ;
  50:../../libDaisy//src/sys/system.h ****             use_dcache  = true;
  51:../../libDaisy//src/sys/system.h ****             use_icache  = true;
  52:../../libDaisy//src/sys/system.h ****             skip_clocks = false;
  53:../../libDaisy//src/sys/system.h ****         }
  54:../../libDaisy//src/sys/system.h **** 
  55:../../libDaisy//src/sys/system.h ****         SysClkFreq cpu_freq;
  56:../../libDaisy//src/sys/system.h ****         bool       use_dcache;
ARM GAS  /tmp/ccZePa4k.s 			page 3


  57:../../libDaisy//src/sys/system.h ****         bool       use_icache;
  58:../../libDaisy//src/sys/system.h ****         bool       skip_clocks;
  59:../../libDaisy//src/sys/system.h ****     };
  60:../../libDaisy//src/sys/system.h **** 
  61:../../libDaisy//src/sys/system.h ****     /** Describes the different regions of memory available to the Daisy
  62:../../libDaisy//src/sys/system.h ****      * 
  63:../../libDaisy//src/sys/system.h ****      */
  64:../../libDaisy//src/sys/system.h ****     enum MemoryRegion
  65:../../libDaisy//src/sys/system.h ****     {
  66:../../libDaisy//src/sys/system.h ****         INTERNAL_FLASH = 0,
  67:../../libDaisy//src/sys/system.h ****         ITCMRAM,
  68:../../libDaisy//src/sys/system.h ****         DTCMRAM,
  69:../../libDaisy//src/sys/system.h ****         SRAM_D1,
  70:../../libDaisy//src/sys/system.h ****         SRAM_D2,
  71:../../libDaisy//src/sys/system.h ****         SRAM_D3,
  72:../../libDaisy//src/sys/system.h ****         SDRAM,
  73:../../libDaisy//src/sys/system.h ****         QSPI,
  74:../../libDaisy//src/sys/system.h ****         INVALID_ADDRESS,
  75:../../libDaisy//src/sys/system.h ****     };
  76:../../libDaisy//src/sys/system.h **** 
  77:../../libDaisy//src/sys/system.h ****     System() {}
  78:../../libDaisy//src/sys/system.h ****     ~System() {}
  38              		.loc 2 78 5 view .LVU1
  39              		.loc 2 78 5 is_stmt 0 view .LVU2
  40              	.LBE318:
  41              	.LBB319:
  42              	.LBI319:
  43              		.file 3 "../../libDaisy//src/hid/usb.h"
   1:../../libDaisy//src/hid/usb.h **** #pragma once
   2:../../libDaisy//src/hid/usb.h **** #ifndef DSY_HID_USB_H
   3:../../libDaisy//src/hid/usb.h **** #define DSY_HID_USB_H
   4:../../libDaisy//src/hid/usb.h **** #include <stdint.h>
   5:../../libDaisy//src/hid/usb.h **** #include <stdlib.h>
   6:../../libDaisy//src/hid/usb.h **** 
   7:../../libDaisy//src/hid/usb.h **** namespace daisy
   8:../../libDaisy//src/hid/usb.h **** /** @addtogroup human_interface
   9:../../libDaisy//src/hid/usb.h ****     @{
  10:../../libDaisy//src/hid/usb.h **** */
  11:../../libDaisy//src/hid/usb.h **** 
  12:../../libDaisy//src/hid/usb.h **** {
  13:../../libDaisy//src/hid/usb.h **** /** 
  14:../../libDaisy//src/hid/usb.h ****     @brief Interface for initializing and using the USB Peripherals on the daisy
  15:../../libDaisy//src/hid/usb.h ****     @author Stephen Hensley
  16:../../libDaisy//src/hid/usb.h ****     @date December 2019
  17:../../libDaisy//src/hid/usb.h **** */
  18:../../libDaisy//src/hid/usb.h **** class UsbHandle
  19:../../libDaisy//src/hid/usb.h **** {
  20:../../libDaisy//src/hid/usb.h ****   public:
  21:../../libDaisy//src/hid/usb.h ****     /** Return values for USBHandle Functions */
  22:../../libDaisy//src/hid/usb.h ****     enum class Result
  23:../../libDaisy//src/hid/usb.h ****     {
  24:../../libDaisy//src/hid/usb.h ****         OK,
  25:../../libDaisy//src/hid/usb.h ****         ERR,
  26:../../libDaisy//src/hid/usb.h ****     };
  27:../../libDaisy//src/hid/usb.h **** 
  28:../../libDaisy//src/hid/usb.h ****     /** Specified which of the two USB Peripherals to initialize. */
  29:../../libDaisy//src/hid/usb.h ****     enum UsbPeriph
ARM GAS  /tmp/ccZePa4k.s 			page 4


  30:../../libDaisy//src/hid/usb.h ****     {
  31:../../libDaisy//src/hid/usb.h ****         FS_INTERNAL, /**< Internal pin */
  32:../../libDaisy//src/hid/usb.h ****         FS_EXTERNAL, /**< FS External D+ pin is Pin 38 (GPIO32). FS External D- pin is Pin 37 (GPIO
  33:../../libDaisy//src/hid/usb.h ****         FS_BOTH,     /**< Both */
  34:../../libDaisy//src/hid/usb.h ****     };
  35:../../libDaisy//src/hid/usb.h **** 
  36:../../libDaisy//src/hid/usb.h **** 
  37:../../libDaisy//src/hid/usb.h ****     /** Function called upon reception of a buffer */
  38:../../libDaisy//src/hid/usb.h ****     typedef void (*ReceiveCallback)(uint8_t* buff, uint32_t* len);
  39:../../libDaisy//src/hid/usb.h **** 
  40:../../libDaisy//src/hid/usb.h ****     UsbHandle() {}
  41:../../libDaisy//src/hid/usb.h **** 
  42:../../libDaisy//src/hid/usb.h ****     ~UsbHandle() {}
  44              		.loc 3 42 5 is_stmt 1 view .LVU3
  45              		.loc 3 42 5 is_stmt 0 view .LVU4
  46              	.LBE319:
  47              	.LBB320:
  48              	.LBI320:
  49              		.file 4 "../../libDaisy//src/per/adc.h"
   1:../../libDaisy//src/per/adc.h **** #pragma once
   2:../../libDaisy//src/per/adc.h **** #ifndef DSY_ADC_H
   3:../../libDaisy//src/per/adc.h **** #define DSY_ADC_H /**< Macro */
   4:../../libDaisy//src/per/adc.h **** #include <stdint.h>
   5:../../libDaisy//src/per/adc.h **** #include <stdlib.h>
   6:../../libDaisy//src/per/adc.h **** #include "daisy_core.h"
   7:../../libDaisy//src/per/adc.h **** #include "per/gpio.h"
   8:../../libDaisy//src/per/adc.h **** 
   9:../../libDaisy//src/per/adc.h **** #define DSY_ADC_MAX_CHANNELS 16 /**< Maximum number of ADC channels */
  10:../../libDaisy//src/per/adc.h **** 
  11:../../libDaisy//src/per/adc.h **** namespace daisy
  12:../../libDaisy//src/per/adc.h **** {
  13:../../libDaisy//src/per/adc.h **** /** @addtogroup per_analog
  14:../../libDaisy//src/per/adc.h ****     @{
  15:../../libDaisy//src/per/adc.h **** */
  16:../../libDaisy//src/per/adc.h **** 
  17:../../libDaisy//src/per/adc.h **** /* While there may not be many configuration options here,
  18:../../libDaisy//src/per/adc.h **** using a struct like this allows us to add more configuration
  19:../../libDaisy//src/per/adc.h **** later without breaking existing functionality.
  20:../../libDaisy//src/per/adc.h **** */
  21:../../libDaisy//src/per/adc.h **** 
  22:../../libDaisy//src/per/adc.h **** /** @brief   Configuration Structure for an ADC Channel 
  23:../../libDaisy//src/per/adc.h ****  *  @details This can be used to configure a a single input, 
  24:../../libDaisy//src/per/adc.h ****  *           or a multiplexed input, allowing up to 8 inputs on 
  25:../../libDaisy//src/per/adc.h ****  *           one channel.
  26:../../libDaisy//src/per/adc.h ****  *  @note    Sharing data lines to multiple muxes _is_ possible, but
  27:../../libDaisy//src/per/adc.h ****  *           each channel sharing data lines must be set to the maximum
  28:../../libDaisy//src/per/adc.h ****  *           number of channels, even if some multiplexers have fewer
  29:../../libDaisy//src/per/adc.h ****  *           inputs connected.
  30:../../libDaisy//src/per/adc.h **** */
  31:../../libDaisy//src/per/adc.h **** struct AdcChannelConfig
  32:../../libDaisy//src/per/adc.h **** {
  33:../../libDaisy//src/per/adc.h ****     /** Which pin to use for multiplexing */
  34:../../libDaisy//src/per/adc.h ****     enum MuxPin
  35:../../libDaisy//src/per/adc.h ****     {
  36:../../libDaisy//src/per/adc.h ****         MUX_SEL_0,    /**< & */
  37:../../libDaisy//src/per/adc.h ****         MUX_SEL_1,    /**< & */
  38:../../libDaisy//src/per/adc.h ****         MUX_SEL_2,    /**< & */
ARM GAS  /tmp/ccZePa4k.s 			page 5


  39:../../libDaisy//src/per/adc.h ****         MUX_SEL_LAST, /**< & */
  40:../../libDaisy//src/per/adc.h ****     };
  41:../../libDaisy//src/per/adc.h **** 
  42:../../libDaisy//src/per/adc.h ****     /** Initializes a single ADC pin as an ADC. 
  43:../../libDaisy//src/per/adc.h ****     \param pin Pin to init.
  44:../../libDaisy//src/per/adc.h ****      */
  45:../../libDaisy//src/per/adc.h ****     void InitSingle(dsy_gpio_pin pin);
  46:../../libDaisy//src/per/adc.h **** 
  47:../../libDaisy//src/per/adc.h ****     /** 
  48:../../libDaisy//src/per/adc.h ****     Initializes a single ADC pin as a Multiplexed ADC.
  49:../../libDaisy//src/per/adc.h ****     Requires a CD405X Multiplexer connected to the pin.
  50:../../libDaisy//src/per/adc.h ****     You only need to supply the mux pins that are required,
  51:../../libDaisy//src/per/adc.h ****     e.g. a 4052 mux would only require mux_0 and mux_1.
  52:../../libDaisy//src/per/adc.h ****     Internal Callbacks handle the pin addressing.
  53:../../libDaisy//src/per/adc.h ****     \param mux_channels must be 1-8
  54:../../libDaisy//src/per/adc.h ****     \param mux_0 First mux pin
  55:../../libDaisy//src/per/adc.h ****     \param mux_1 Second mux pin
  56:../../libDaisy//src/per/adc.h ****     \param mux_2 Third mux pin
  57:../../libDaisy//src/per/adc.h ****     \param adc_pin &
  58:../../libDaisy//src/per/adc.h ****     */
  59:../../libDaisy//src/per/adc.h ****     void InitMux(dsy_gpio_pin adc_pin,
  60:../../libDaisy//src/per/adc.h ****                  size_t       mux_channels,
  61:../../libDaisy//src/per/adc.h ****                  dsy_gpio_pin mux_0,
  62:../../libDaisy//src/per/adc.h ****                  dsy_gpio_pin mux_1 = {DSY_GPIOX, 0},
  63:../../libDaisy//src/per/adc.h ****                  dsy_gpio_pin mux_2 = {DSY_GPIOX, 0});
  64:../../libDaisy//src/per/adc.h **** 
  65:../../libDaisy//src/per/adc.h ****     dsy_gpio pin_;                   /**< & */
  66:../../libDaisy//src/per/adc.h ****     dsy_gpio mux_pin_[MUX_SEL_LAST]; /**< & */
  67:../../libDaisy//src/per/adc.h ****     uint8_t  mux_channels_;          /**< & */
  68:../../libDaisy//src/per/adc.h **** };
  69:../../libDaisy//src/per/adc.h **** 
  70:../../libDaisy//src/per/adc.h **** /**
  71:../../libDaisy//src/per/adc.h ****    @brief Handler for analog to digital conversion
  72:../../libDaisy//src/per/adc.h **** */
  73:../../libDaisy//src/per/adc.h **** class AdcHandle
  74:../../libDaisy//src/per/adc.h **** {
  75:../../libDaisy//src/per/adc.h ****   public:
  76:../../libDaisy//src/per/adc.h ****     /** Supported oversampling amounts */
  77:../../libDaisy//src/per/adc.h ****     enum OverSampling
  78:../../libDaisy//src/per/adc.h ****     {
  79:../../libDaisy//src/per/adc.h ****         OVS_NONE, /**< & */
  80:../../libDaisy//src/per/adc.h ****         OVS_4,    /**< & */
  81:../../libDaisy//src/per/adc.h ****         OVS_8,    /**< & */
  82:../../libDaisy//src/per/adc.h ****         OVS_16,   /**< & */
  83:../../libDaisy//src/per/adc.h ****         OVS_32,   /**< & */
  84:../../libDaisy//src/per/adc.h ****         OVS_64,   /**< & */
  85:../../libDaisy//src/per/adc.h ****         OVS_128,  /**< & */
  86:../../libDaisy//src/per/adc.h ****         OVS_256,  /**< & */
  87:../../libDaisy//src/per/adc.h ****         OVS_512,  /**< & */
  88:../../libDaisy//src/per/adc.h ****         OVS_1024, /**< & */
  89:../../libDaisy//src/per/adc.h ****         OVS_LAST, /**< & */
  90:../../libDaisy//src/per/adc.h ****     };
  91:../../libDaisy//src/per/adc.h **** 
  92:../../libDaisy//src/per/adc.h ****     AdcHandle() {}
  93:../../libDaisy//src/per/adc.h ****     ~AdcHandle() {}
  50              		.loc 4 93 5 is_stmt 1 view .LVU5
  51              		.loc 4 93 5 is_stmt 0 view .LVU6
ARM GAS  /tmp/ccZePa4k.s 			page 6


  52              	.LBE320:
  53              	.LBB321:
  54              	.LBI321:
  55              		.file 5 "../../libDaisy//src/hid/audio.h"
   1:../../libDaisy//src/hid/audio.h **** #ifndef DSY_AUDIO_H
   2:../../libDaisy//src/hid/audio.h **** #define DSY_AUDIO_H /**< & */
   3:../../libDaisy//src/hid/audio.h **** 
   4:../../libDaisy//src/hid/audio.h **** #include "per/sai.h"
   5:../../libDaisy//src/hid/audio.h **** 
   6:../../libDaisy//src/hid/audio.h **** namespace daisy
   7:../../libDaisy//src/hid/audio.h **** {
   8:../../libDaisy//src/hid/audio.h **** /** @brief Audio Engine Handle
   9:../../libDaisy//src/hid/audio.h ****  *  @ingroup audio 
  10:../../libDaisy//src/hid/audio.h ****  *  @details This class allows for higher level access to an audio engine.
  11:../../libDaisy//src/hid/audio.h ****  *           If you're using a SOM like the DaisySeed or DaisyPatchSM (or any 
  12:../../libDaisy//src/hid/audio.h ****  *            board that includes one of those objects) then the intialization
  13:../../libDaisy//src/hid/audio.h ****  *            is already taken  care of.
  14:../../libDaisy//src/hid/audio.h ****  *           If you're setting up your own custom hardware, or need to make changes
  15:../../libDaisy//src/hid/audio.h ****  *           you will have to take the following steps:
  16:../../libDaisy//src/hid/audio.h ****  *             1. Create and Initialize an SaiHandle or two depending on your requirements
  17:../../libDaisy//src/hid/audio.h ****  *             2. Initialize the Audio Handle with the desired settings and the Initialized SaiHand
  18:../../libDaisy//src/hid/audio.h ****  *             3. If the connected codec requires special configuration or initialization, do so
  19:../../libDaisy//src/hid/audio.h ****  *             4. Write a callback method using either the AudioCallback or the InterleavingAudioCa
  20:../../libDaisy//src/hid/audio.h ****  *             5. Start the Audio using one of the StartAudio function
  21:../../libDaisy//src/hid/audio.h ****  */
  22:../../libDaisy//src/hid/audio.h **** class AudioHandle
  23:../../libDaisy//src/hid/audio.h **** {
  24:../../libDaisy//src/hid/audio.h ****   public:
  25:../../libDaisy//src/hid/audio.h ****     /** Manually configurable details about the Audio Engine */
  26:../../libDaisy//src/hid/audio.h ****     /** TODO: Figure out how to get samplerate in here. */
  27:../../libDaisy//src/hid/audio.h ****     struct Config
  28:../../libDaisy//src/hid/audio.h ****     {
  29:../../libDaisy//src/hid/audio.h ****         /** number of samples to process per callback */
  30:../../libDaisy//src/hid/audio.h ****         size_t blocksize;
  31:../../libDaisy//src/hid/audio.h **** 
  32:../../libDaisy//src/hid/audio.h ****         /**< Sample rate of audio */
  33:../../libDaisy//src/hid/audio.h ****         SaiHandle::Config::SampleRate samplerate;
  34:../../libDaisy//src/hid/audio.h **** 
  35:../../libDaisy//src/hid/audio.h ****         /** factor for adjustment before and after callback for hardware that may have extra headro
  36:../../libDaisy//src/hid/audio.h ****         float postgain;
  37:../../libDaisy//src/hid/audio.h **** 
  38:../../libDaisy//src/hid/audio.h ****         /** factor for additional one-sided compensation to audio path for hardware that may
  39:../../libDaisy//src/hid/audio.h ****          *  have unequal input/output ranges
  40:../../libDaisy//src/hid/audio.h ****          */
  41:../../libDaisy//src/hid/audio.h ****         float output_compensation;
  42:../../libDaisy//src/hid/audio.h **** 
  43:../../libDaisy//src/hid/audio.h ****         /** Sets default values for config struct */
  44:../../libDaisy//src/hid/audio.h ****         Config()
  45:../../libDaisy//src/hid/audio.h ****         : blocksize(48),
  46:../../libDaisy//src/hid/audio.h ****           samplerate(SaiHandle::Config::SampleRate::SAI_48KHZ),
  47:../../libDaisy//src/hid/audio.h ****           postgain(1.f),
  48:../../libDaisy//src/hid/audio.h ****           output_compensation(1.f)
  49:../../libDaisy//src/hid/audio.h ****         {
  50:../../libDaisy//src/hid/audio.h ****         }
  51:../../libDaisy//src/hid/audio.h ****     };
  52:../../libDaisy//src/hid/audio.h **** 
  53:../../libDaisy//src/hid/audio.h ****     enum class Result
ARM GAS  /tmp/ccZePa4k.s 			page 7


  54:../../libDaisy//src/hid/audio.h ****     {
  55:../../libDaisy//src/hid/audio.h ****         OK,
  56:../../libDaisy//src/hid/audio.h ****         ERR,
  57:../../libDaisy//src/hid/audio.h ****     };
  58:../../libDaisy//src/hid/audio.h **** 
  59:../../libDaisy//src/hid/audio.h ****     /** Non-Interleaving input buffer
  60:../../libDaisy//src/hid/audio.h ****      * Buffer arranged by float[chn][sample] 
  61:../../libDaisy//src/hid/audio.h ****      * const so that the user can't modify the input
  62:../../libDaisy//src/hid/audio.h ****      */
  63:../../libDaisy//src/hid/audio.h ****     typedef const float* const* InputBuffer;
  64:../../libDaisy//src/hid/audio.h **** 
  65:../../libDaisy//src/hid/audio.h ****     /** Non-Interleaving output buffer
  66:../../libDaisy//src/hid/audio.h ****      * Arranged by float[chn][sample] 
  67:../../libDaisy//src/hid/audio.h ****      */
  68:../../libDaisy//src/hid/audio.h ****     typedef float** OutputBuffer;
  69:../../libDaisy//src/hid/audio.h **** 
  70:../../libDaisy//src/hid/audio.h ****     /** Type for a Non-Interleaving audio callback 
  71:../../libDaisy//src/hid/audio.h ****      * Non-Interleaving audio callbacks in daisy will be of this type
  72:../../libDaisy//src/hid/audio.h ****      */
  73:../../libDaisy//src/hid/audio.h ****     typedef void (*AudioCallback)(InputBuffer  in,
  74:../../libDaisy//src/hid/audio.h ****                                   OutputBuffer out,
  75:../../libDaisy//src/hid/audio.h ****                                   size_t       size);
  76:../../libDaisy//src/hid/audio.h **** 
  77:../../libDaisy//src/hid/audio.h ****     /** Interleaving Input buffer
  78:../../libDaisy//src/hid/audio.h ****      ** audio is prepared as { L0, R0, L1, R1, . . . LN, RN }]
  79:../../libDaisy//src/hid/audio.h ****      ** this is const, as the user shouldn't modify it
  80:../../libDaisy//src/hid/audio.h ****     */
  81:../../libDaisy//src/hid/audio.h ****     typedef const float* InterleavingInputBuffer;
  82:../../libDaisy//src/hid/audio.h **** 
  83:../../libDaisy//src/hid/audio.h ****     /** Interleaving Output buffer 
  84:../../libDaisy//src/hid/audio.h ****      ** audio is prepared as { L0, R0, L1, R1, . . . LN, RN }
  85:../../libDaisy//src/hid/audio.h ****     */
  86:../../libDaisy//src/hid/audio.h ****     typedef float* InterleavingOutputBuffer;
  87:../../libDaisy//src/hid/audio.h **** 
  88:../../libDaisy//src/hid/audio.h ****     /** Interleaving Audio Callback 
  89:../../libDaisy//src/hid/audio.h ****      * Interleaving audio callbacks in daisy must be of this type
  90:../../libDaisy//src/hid/audio.h ****      */
  91:../../libDaisy//src/hid/audio.h ****     typedef void (*InterleavingAudioCallback)(InterleavingInputBuffer  in,
  92:../../libDaisy//src/hid/audio.h ****                                               InterleavingOutputBuffer out,
  93:../../libDaisy//src/hid/audio.h ****                                               size_t                   size);
  94:../../libDaisy//src/hid/audio.h **** 
  95:../../libDaisy//src/hid/audio.h ****     AudioHandle() : pimpl_(nullptr) {}
  96:../../libDaisy//src/hid/audio.h ****     ~AudioHandle() {}
  56              		.loc 5 96 5 is_stmt 1 view .LVU7
  57              		.loc 5 96 5 is_stmt 0 view .LVU8
  58              	.LBE321:
  59              		.loc 1 22 19 view .LVU9
  60 0000 7047     		bx	lr
  61              		.cfi_endproc
  62              	.LFE2529:
  64              		.weak	_ZN5daisy9DaisySeedD1Ev
  65              		.thumb_set _ZN5daisy9DaisySeedD1Ev,_ZN5daisy9DaisySeedD2Ev
  66 0002 00BF     		.section	.text._ZN5daisy11OledDisplayINS_13SSD130xDriverILj128ELj64ENS_24SSD130x4WireSpiTransportE
  67              		.align	1
  68              		.p2align 2,,3
  69              		.weak	_ZN5daisy11OledDisplayINS_13SSD130xDriverILj128ELj64ENS_24SSD130x4WireSpiTransportEEEED2Ev
  70              		.syntax unified
ARM GAS  /tmp/ccZePa4k.s 			page 8


  71              		.thumb
  72              		.thumb_func
  74              	_ZN5daisy11OledDisplayINS_13SSD130xDriverILj128ELj64ENS_24SSD130x4WireSpiTransportEEEED2Ev:
  75              	.LVL1:
  76              	.LFB2595:
  77              		.file 6 "../../libDaisy//src/hid/disp/oled_display.h"
   1:../../libDaisy//src/hid/disp/oled_display.h **** #pragma once
   2:../../libDaisy//src/hid/disp/oled_display.h **** #ifndef DSY_OLED_DISPLAY_H
   3:../../libDaisy//src/hid/disp/oled_display.h **** #define DSY_OLED_DISPLAY_H /**< Macro */
   4:../../libDaisy//src/hid/disp/oled_display.h **** 
   5:../../libDaisy//src/hid/disp/oled_display.h **** #include "display.h"
   6:../../libDaisy//src/hid/disp/oled_display.h **** 
   7:../../libDaisy//src/hid/disp/oled_display.h **** namespace daisy
   8:../../libDaisy//src/hid/disp/oled_display.h **** {
   9:../../libDaisy//src/hid/disp/oled_display.h **** /** 
  10:../../libDaisy//src/hid/disp/oled_display.h ****  * This class is for drawing to a monochrome OLED display. 
  11:../../libDaisy//src/hid/disp/oled_display.h ****  * @ingroup device
  12:../../libDaisy//src/hid/disp/oled_display.h **** */
  13:../../libDaisy//src/hid/disp/oled_display.h **** template <typename DisplayDriver>
  14:../../libDaisy//src/hid/disp/oled_display.h **** class OledDisplay : public OneBitGraphicsDisplayImpl<OledDisplay<DisplayDriver>>
  15:../../libDaisy//src/hid/disp/oled_display.h **** {
  16:../../libDaisy//src/hid/disp/oled_display.h ****   public:
  17:../../libDaisy//src/hid/disp/oled_display.h ****     OledDisplay() {}
  18:../../libDaisy//src/hid/disp/oled_display.h ****     virtual ~OledDisplay() {}
  78              		.loc 6 18 13 is_stmt 1 view -0
  79              		.cfi_startproc
  80              		@ args = 0, pretend = 0, frame = 0
  81              		@ frame_needed = 0, uses_anonymous_args = 0
  82              		@ link register save eliminated.
  83              	.LBB322:
  84              	.LBI322:
  85              		.file 7 "../../libDaisy//src/hid/disp/display.h"
   1:../../libDaisy//src/hid/disp/display.h **** #pragma once
   2:../../libDaisy//src/hid/disp/display.h **** #ifndef DSY_DISPLAY_H
   3:../../libDaisy//src/hid/disp/display.h **** #define DSY_DISPLAY_H /**< Macro */
   4:../../libDaisy//src/hid/disp/display.h **** #include <cmath>
   5:../../libDaisy//src/hid/disp/display.h **** #include "util/oled_fonts.h"
   6:../../libDaisy//src/hid/disp/display.h **** #include "daisy_core.h"
   7:../../libDaisy//src/hid/disp/display.h **** #include "graphics_common.h"
   8:../../libDaisy//src/hid/disp/display.h **** 
   9:../../libDaisy//src/hid/disp/display.h **** #ifndef deg2rad
  10:../../libDaisy//src/hid/disp/display.h **** #define deg2rad(deg) ((deg)*3.141592 / 180.0)
  11:../../libDaisy//src/hid/disp/display.h **** #endif
  12:../../libDaisy//src/hid/disp/display.h **** 
  13:../../libDaisy//src/hid/disp/display.h **** namespace daisy
  14:../../libDaisy//src/hid/disp/display.h **** {
  15:../../libDaisy//src/hid/disp/display.h **** /** 
  16:../../libDaisy//src/hid/disp/display.h ****  * This interface is used as a base class for all types of 1bit-per-pixel
  17:../../libDaisy//src/hid/disp/display.h ****  * graphics displays.
  18:../../libDaisy//src/hid/disp/display.h **** */
  19:../../libDaisy//src/hid/disp/display.h **** class OneBitGraphicsDisplay
  20:../../libDaisy//src/hid/disp/display.h **** {
  21:../../libDaisy//src/hid/disp/display.h ****   public:
  22:../../libDaisy//src/hid/disp/display.h ****     OneBitGraphicsDisplay() {}
  23:../../libDaisy//src/hid/disp/display.h ****     virtual ~OneBitGraphicsDisplay() {}
  24:../../libDaisy//src/hid/disp/display.h **** 
  25:../../libDaisy//src/hid/disp/display.h ****     virtual uint16_t Height() const = 0;
ARM GAS  /tmp/ccZePa4k.s 			page 9


  26:../../libDaisy//src/hid/disp/display.h ****     virtual uint16_t Width() const  = 0;
  27:../../libDaisy//src/hid/disp/display.h **** 
  28:../../libDaisy//src/hid/disp/display.h ****     Rectangle GetBounds() const
  29:../../libDaisy//src/hid/disp/display.h ****     {
  30:../../libDaisy//src/hid/disp/display.h ****         return Rectangle(int16_t(Width()), int16_t(Height()));
  31:../../libDaisy//src/hid/disp/display.h ****     }
  32:../../libDaisy//src/hid/disp/display.h **** 
  33:../../libDaisy//src/hid/disp/display.h **** 
  34:../../libDaisy//src/hid/disp/display.h ****     size_t CurrentX() { return currentX_; };
  35:../../libDaisy//src/hid/disp/display.h ****     size_t CurrentY() { return currentY_; };
  36:../../libDaisy//src/hid/disp/display.h **** 
  37:../../libDaisy//src/hid/disp/display.h ****     /** 
  38:../../libDaisy//src/hid/disp/display.h ****     Fills the entire display with either on/off.
  39:../../libDaisy//src/hid/disp/display.h ****     \param on Sets on or off.
  40:../../libDaisy//src/hid/disp/display.h ****     */
  41:../../libDaisy//src/hid/disp/display.h ****     virtual void Fill(bool on) = 0;
  42:../../libDaisy//src/hid/disp/display.h **** 
  43:../../libDaisy//src/hid/disp/display.h ****     /**
  44:../../libDaisy//src/hid/disp/display.h ****     Sets the pixel at the specified coordinate to be on/off.
  45:../../libDaisy//src/hid/disp/display.h ****     \param x   x Coordinate
  46:../../libDaisy//src/hid/disp/display.h ****     \param y   y coordinate
  47:../../libDaisy//src/hid/disp/display.h ****     \param on  on or off
  48:../../libDaisy//src/hid/disp/display.h ****     */
  49:../../libDaisy//src/hid/disp/display.h ****     virtual void DrawPixel(uint_fast8_t x, uint_fast8_t y, bool on) = 0;
  50:../../libDaisy//src/hid/disp/display.h **** 
  51:../../libDaisy//src/hid/disp/display.h ****     /**
  52:../../libDaisy//src/hid/disp/display.h ****     Draws a line from (x1, y1) to (y1, y2)
  53:../../libDaisy//src/hid/disp/display.h ****     \param x1  x Coordinate of the starting point
  54:../../libDaisy//src/hid/disp/display.h ****     \param y1  y Coordinate of the starting point
  55:../../libDaisy//src/hid/disp/display.h ****     \param x2  x Coordinate of the ending point
  56:../../libDaisy//src/hid/disp/display.h ****     \param y2  y Coordinate of the ending point
  57:../../libDaisy//src/hid/disp/display.h ****     \param on  on or off
  58:../../libDaisy//src/hid/disp/display.h ****     */
  59:../../libDaisy//src/hid/disp/display.h ****     virtual void DrawLine(uint_fast8_t x1,
  60:../../libDaisy//src/hid/disp/display.h ****                           uint_fast8_t y1,
  61:../../libDaisy//src/hid/disp/display.h ****                           uint_fast8_t x2,
  62:../../libDaisy//src/hid/disp/display.h ****                           uint_fast8_t y2,
  63:../../libDaisy//src/hid/disp/display.h ****                           bool         on)
  64:../../libDaisy//src/hid/disp/display.h ****         = 0;
  65:../../libDaisy//src/hid/disp/display.h **** 
  66:../../libDaisy//src/hid/disp/display.h ****     /**
  67:../../libDaisy//src/hid/disp/display.h ****     Draws a rectangle based on two coordinates.
  68:../../libDaisy//src/hid/disp/display.h ****     \param x1 x Coordinate of the first point
  69:../../libDaisy//src/hid/disp/display.h ****     \param y1 y Coordinate of the first point
  70:../../libDaisy//src/hid/disp/display.h ****     \param x2 x Coordinate of the second point
  71:../../libDaisy//src/hid/disp/display.h ****     \param y2 y Coordinate of the second point
  72:../../libDaisy//src/hid/disp/display.h ****     \param on on or off
  73:../../libDaisy//src/hid/disp/display.h ****     \param fill fill the rectangle or draw only the outline
  74:../../libDaisy//src/hid/disp/display.h ****     */
  75:../../libDaisy//src/hid/disp/display.h ****     virtual void DrawRect(uint_fast8_t x1,
  76:../../libDaisy//src/hid/disp/display.h ****                           uint_fast8_t y1,
  77:../../libDaisy//src/hid/disp/display.h ****                           uint_fast8_t x2,
  78:../../libDaisy//src/hid/disp/display.h ****                           uint_fast8_t y2,
  79:../../libDaisy//src/hid/disp/display.h ****                           bool         on,
  80:../../libDaisy//src/hid/disp/display.h ****                           bool         fill = false)
  81:../../libDaisy//src/hid/disp/display.h ****         = 0;
  82:../../libDaisy//src/hid/disp/display.h **** 
ARM GAS  /tmp/ccZePa4k.s 			page 10


  83:../../libDaisy//src/hid/disp/display.h ****     /**
  84:../../libDaisy//src/hid/disp/display.h ****     Draws a rectangle.
  85:../../libDaisy//src/hid/disp/display.h ****     \param rect the rectangle
  86:../../libDaisy//src/hid/disp/display.h ****     \param on   on or off
  87:../../libDaisy//src/hid/disp/display.h ****     \param fill fill the rectangle or draw only the outline
  88:../../libDaisy//src/hid/disp/display.h ****     */
  89:../../libDaisy//src/hid/disp/display.h ****     void DrawRect(const Rectangle& rect, bool on, bool fill = false)
  90:../../libDaisy//src/hid/disp/display.h ****     {
  91:../../libDaisy//src/hid/disp/display.h ****         DrawRect(rect.GetX(),
  92:../../libDaisy//src/hid/disp/display.h ****                  rect.GetY(),
  93:../../libDaisy//src/hid/disp/display.h ****                  rect.GetRight(),
  94:../../libDaisy//src/hid/disp/display.h ****                  rect.GetBottom(),
  95:../../libDaisy//src/hid/disp/display.h ****                  on,
  96:../../libDaisy//src/hid/disp/display.h ****                  fill);
  97:../../libDaisy//src/hid/disp/display.h ****     }
  98:../../libDaisy//src/hid/disp/display.h **** 
  99:../../libDaisy//src/hid/disp/display.h ****     /**
 100:../../libDaisy//src/hid/disp/display.h ****     Draws an arc around the specified coordinate
 101:../../libDaisy//src/hid/disp/display.h ****     \param x           x Coordinate of the center of the arc
 102:../../libDaisy//src/hid/disp/display.h ****     \param y           y Coordinate of the center of the arc
 103:../../libDaisy//src/hid/disp/display.h ****     \param radius      radius of the arc
 104:../../libDaisy//src/hid/disp/display.h ****     \param start_angle angle where to start the arc
 105:../../libDaisy//src/hid/disp/display.h ****     \param sweep       total angle of the arc
 106:../../libDaisy//src/hid/disp/display.h ****     \param on  on or off
 107:../../libDaisy//src/hid/disp/display.h ****     */
 108:../../libDaisy//src/hid/disp/display.h ****     virtual void DrawArc(uint_fast8_t x,
 109:../../libDaisy//src/hid/disp/display.h ****                          uint_fast8_t y,
 110:../../libDaisy//src/hid/disp/display.h ****                          uint_fast8_t radius,
 111:../../libDaisy//src/hid/disp/display.h ****                          int_fast16_t start_angle,
 112:../../libDaisy//src/hid/disp/display.h ****                          int_fast16_t sweep,
 113:../../libDaisy//src/hid/disp/display.h ****                          bool         on)
 114:../../libDaisy//src/hid/disp/display.h ****         = 0;
 115:../../libDaisy//src/hid/disp/display.h **** 
 116:../../libDaisy//src/hid/disp/display.h ****     /**
 117:../../libDaisy//src/hid/disp/display.h ****     Draws a circle around the specified coordinate
 118:../../libDaisy//src/hid/disp/display.h ****     \param x           x Coordinate of the center of the circle
 119:../../libDaisy//src/hid/disp/display.h ****     \param y           y Coordinate of the center of the circle
 120:../../libDaisy//src/hid/disp/display.h ****     \param radius      radius of the circle
 121:../../libDaisy//src/hid/disp/display.h ****     \param on  on or off
 122:../../libDaisy//src/hid/disp/display.h ****     */
 123:../../libDaisy//src/hid/disp/display.h ****     void
 124:../../libDaisy//src/hid/disp/display.h ****     DrawCircle(uint_fast8_t x, uint_fast8_t y, uint_fast8_t radius, bool on)
 125:../../libDaisy//src/hid/disp/display.h ****     {
 126:../../libDaisy//src/hid/disp/display.h ****         DrawArc(x, y, radius, 0, 360, on);
 127:../../libDaisy//src/hid/disp/display.h ****     };
 128:../../libDaisy//src/hid/disp/display.h **** 
 129:../../libDaisy//src/hid/disp/display.h ****     /** 
 130:../../libDaisy//src/hid/disp/display.h ****     Writes the character with the specific FontDef
 131:../../libDaisy//src/hid/disp/display.h ****     to the display buffer at the current Cursor position.
 132:../../libDaisy//src/hid/disp/display.h ****     \param ch character to be written
 133:../../libDaisy//src/hid/disp/display.h ****     \param font font to be written in
 134:../../libDaisy//src/hid/disp/display.h ****     \param on    on or off
 135:../../libDaisy//src/hid/disp/display.h ****     \return &
 136:../../libDaisy//src/hid/disp/display.h ****     */
 137:../../libDaisy//src/hid/disp/display.h ****     virtual char WriteChar(char ch, FontDef font, bool on) = 0;
 138:../../libDaisy//src/hid/disp/display.h **** 
 139:../../libDaisy//src/hid/disp/display.h ****     /** 
ARM GAS  /tmp/ccZePa4k.s 			page 11


 140:../../libDaisy//src/hid/disp/display.h ****     Similar to WriteChar, except it will handle an entire String.
 141:../../libDaisy//src/hid/disp/display.h ****     Wrapping does not happen automatically, so the width
 142:../../libDaisy//src/hid/disp/display.h ****     of the string must be kept within the dimensions of the screen.
 143:../../libDaisy//src/hid/disp/display.h ****     \param str string to be written
 144:../../libDaisy//src/hid/disp/display.h ****     \param font font to use
 145:../../libDaisy//src/hid/disp/display.h ****     \param on  on or off
 146:../../libDaisy//src/hid/disp/display.h ****     \return &
 147:../../libDaisy//src/hid/disp/display.h ****     */
 148:../../libDaisy//src/hid/disp/display.h ****     virtual char WriteString(const char* str, FontDef font, bool on) = 0;
 149:../../libDaisy//src/hid/disp/display.h **** 
 150:../../libDaisy//src/hid/disp/display.h ****     /** 
 151:../../libDaisy//src/hid/disp/display.h ****     Similar to WriteString but justified within a bounding box.
 152:../../libDaisy//src/hid/disp/display.h ****     \param str          string to be written
 153:../../libDaisy//src/hid/disp/display.h ****     \param font         font to use
 154:../../libDaisy//src/hid/disp/display.h ****     \param boundingBox  the bounding box to draw the text in
 155:../../libDaisy//src/hid/disp/display.h ****     \param alignment    the alignment to use
 156:../../libDaisy//src/hid/disp/display.h ****     \param on           on or off
 157:../../libDaisy//src/hid/disp/display.h ****     \return The rectangle that was drawn to
 158:../../libDaisy//src/hid/disp/display.h ****     */
 159:../../libDaisy//src/hid/disp/display.h ****     virtual Rectangle WriteStringAligned(const char*    str,
 160:../../libDaisy//src/hid/disp/display.h ****                                          const FontDef& font,
 161:../../libDaisy//src/hid/disp/display.h ****                                          Rectangle      boundingBox,
 162:../../libDaisy//src/hid/disp/display.h ****                                          Alignment      alignment,
 163:../../libDaisy//src/hid/disp/display.h ****                                          bool           on)
 164:../../libDaisy//src/hid/disp/display.h ****         = 0;
 165:../../libDaisy//src/hid/disp/display.h **** 
 166:../../libDaisy//src/hid/disp/display.h ****     /** 
 167:../../libDaisy//src/hid/disp/display.h ****     Moves the 'Cursor' position used for WriteChar, and WriteStr to the specified coordinate.
 168:../../libDaisy//src/hid/disp/display.h ****     \param x x pos
 169:../../libDaisy//src/hid/disp/display.h ****     \param y y pos
 170:../../libDaisy//src/hid/disp/display.h ****     */
 171:../../libDaisy//src/hid/disp/display.h ****     void SetCursor(uint16_t x, uint16_t y)
 172:../../libDaisy//src/hid/disp/display.h ****     {
 173:../../libDaisy//src/hid/disp/display.h ****         currentX_ = (x >= Width()) ? Width() - 1 : x;
 174:../../libDaisy//src/hid/disp/display.h ****         currentY_ = (y >= Height()) ? Height() - 1 : y;
 175:../../libDaisy//src/hid/disp/display.h ****     }
 176:../../libDaisy//src/hid/disp/display.h **** 
 177:../../libDaisy//src/hid/disp/display.h ****     /** 
 178:../../libDaisy//src/hid/disp/display.h ****     Writes the current display buffer to the OLED device using SPI or I2C depending on 
 179:../../libDaisy//src/hid/disp/display.h ****     how the object was initialized.
 180:../../libDaisy//src/hid/disp/display.h ****     */
 181:../../libDaisy//src/hid/disp/display.h ****     virtual void Update() = 0;
 182:../../libDaisy//src/hid/disp/display.h **** 
 183:../../libDaisy//src/hid/disp/display.h ****   protected:
 184:../../libDaisy//src/hid/disp/display.h ****     uint16_t currentX_;
 185:../../libDaisy//src/hid/disp/display.h ****     uint16_t currentY_;
 186:../../libDaisy//src/hid/disp/display.h **** };
 187:../../libDaisy//src/hid/disp/display.h **** 
 188:../../libDaisy//src/hid/disp/display.h **** /** This class is intended as a intermediary class for your actual implementation of the OneBitGrap
 189:../../libDaisy//src/hid/disp/display.h ****  *  interface. It uses the CRTP design pattern where the template argument is the child class. It p
 190:../../libDaisy//src/hid/disp/display.h ****  *  implementations for most of the functions, except DrawPixel(), Update() and Fill(), which you'l
 191:../../libDaisy//src/hid/disp/display.h ****  *  to provide in your child class.
 192:../../libDaisy//src/hid/disp/display.h ****  *  The main goal of this class is to provide common drawing functions without relying on massive a
 193:../../libDaisy//src/hid/disp/display.h ****  *  virtual function calls that would result in a performance loss. To achieve this, any drawing fu
 194:../../libDaisy//src/hid/disp/display.h ****  *  is implemented here and internally calls other drawing functions (e.g. DrawRect() which interna
 195:../../libDaisy//src/hid/disp/display.h ****  *  DrawPixel() and DrawLine()) makes these calls via the qualified name of these functions to expl
 196:../../libDaisy//src/hid/disp/display.h ****  *  suppress the virtual dispatch mechanism like this:
ARM GAS  /tmp/ccZePa4k.s 			page 12


 197:../../libDaisy//src/hid/disp/display.h ****  * 
 198:../../libDaisy//src/hid/disp/display.h ****  *      ChildType::DrawPixel(...); // no virtual function call; direct call into the child class fu
 199:../../libDaisy//src/hid/disp/display.h ****  *  
 200:../../libDaisy//src/hid/disp/display.h ****  *  To create a custom OneBitGraphicsDisplay implementation, you can 
 201:../../libDaisy//src/hid/disp/display.h ****  *  A) inherit from OneBitGraphicsDisplay directly and provide all the drawing functions yourself
 202:../../libDaisy//src/hid/disp/display.h ****  *  B) Inherit from OneBitGraphicsDisplayImpl and only provide DrawPixel(), Fill() and Update()
 203:../../libDaisy//src/hid/disp/display.h ****  *     like this:
 204:../../libDaisy//src/hid/disp/display.h ****  *  
 205:../../libDaisy//src/hid/disp/display.h ****  *      class MyDisplayClass : public OneBitGraphicsDisplayImpl<MyDisplayClass> 
 206:../../libDaisy//src/hid/disp/display.h ****  *      {
 207:../../libDaisy//src/hid/disp/display.h ****  *      public:
 208:../../libDaisy//src/hid/disp/display.h ****  *          void Fill() override { ... };
 209:../../libDaisy//src/hid/disp/display.h ****  *          void DrawPixel(uint_fast8_t x, uint_fast8_t y, bool on) override { ... };
 210:../../libDaisy//src/hid/disp/display.h ****  *          void Update() override { ... }
 211:../../libDaisy//src/hid/disp/display.h ****  *      };
 212:../../libDaisy//src/hid/disp/display.h ****  *  
 213:../../libDaisy//src/hid/disp/display.h ****  */
 214:../../libDaisy//src/hid/disp/display.h **** template <class ChildType>
 215:../../libDaisy//src/hid/disp/display.h **** class OneBitGraphicsDisplayImpl : public OneBitGraphicsDisplay
 216:../../libDaisy//src/hid/disp/display.h **** {
 217:../../libDaisy//src/hid/disp/display.h ****   public:
 218:../../libDaisy//src/hid/disp/display.h ****     OneBitGraphicsDisplayImpl() {}
 219:../../libDaisy//src/hid/disp/display.h ****     virtual ~OneBitGraphicsDisplayImpl() {}
  86              		.loc 7 219 13 view .LVU11
  87              	.LBB323:
  88              	.LBI323:
  23:../../libDaisy//src/hid/disp/display.h **** 
  89              		.loc 7 23 13 view .LVU12
  23:../../libDaisy//src/hid/disp/display.h **** 
  90              		.loc 7 23 13 is_stmt 0 view .LVU13
  91              	.LBE323:
  92              	.LBE322:
  93              		.loc 6 18 29 view .LVU14
  94 0000 7047     		bx	lr
  95              		.cfi_endproc
  96              	.LFE2595:
  98              		.weak	_ZN5daisy11OledDisplayINS_13SSD130xDriverILj128ELj64ENS_24SSD130x4WireSpiTransportEEEED1Ev
  99              		.thumb_set _ZN5daisy11OledDisplayINS_13SSD130xDriverILj128ELj64ENS_24SSD130x4WireSpiTransportEEEED
 100 0002 00BF     		.section	.text._ZNK5daisy11OledDisplayINS_13SSD130xDriverILj128ELj64ENS_24SSD130x4WireSpiTransport
 101              		.align	1
 102              		.p2align 2,,3
 103              		.weak	_ZNK5daisy11OledDisplayINS_13SSD130xDriverILj128ELj64ENS_24SSD130x4WireSpiTransportEEEE6Heig
 104              		.syntax unified
 105              		.thumb
 106              		.thumb_func
 108              	_ZNK5daisy11OledDisplayINS_13SSD130xDriverILj128ELj64ENS_24SSD130x4WireSpiTransportEEEE6HeightEv:
 109              	.LVL2:
 110              	.LFB2598:
  19:../../libDaisy//src/hid/disp/oled_display.h **** 
  20:../../libDaisy//src/hid/disp/oled_display.h ****     struct Config
  21:../../libDaisy//src/hid/disp/oled_display.h ****     {
  22:../../libDaisy//src/hid/disp/oled_display.h ****         typename DisplayDriver::Config driver_config;
  23:../../libDaisy//src/hid/disp/oled_display.h ****     };
  24:../../libDaisy//src/hid/disp/oled_display.h **** 
  25:../../libDaisy//src/hid/disp/oled_display.h ****     void Init(Config config) { driver_.Init(config.driver_config); }
  26:../../libDaisy//src/hid/disp/oled_display.h **** 
  27:../../libDaisy//src/hid/disp/oled_display.h ****     uint16_t Height() const override { return driver_.Height(); }
ARM GAS  /tmp/ccZePa4k.s 			page 13


 111              		.loc 6 27 14 is_stmt 1 view -0
 112              		.cfi_startproc
 113              		@ args = 0, pretend = 0, frame = 0
 114              		@ frame_needed = 0, uses_anonymous_args = 0
 115              		@ link register save eliminated.
 116              		.loc 6 27 65 is_stmt 0 view .LVU16
 117 0000 4020     		movs	r0, #64
 118              	.LVL3:
 119              		.loc 6 27 65 view .LVU17
 120 0002 7047     		bx	lr
 121              		.cfi_endproc
 122              	.LFE2598:
 124              		.section	.text._ZNK5daisy11OledDisplayINS_13SSD130xDriverILj128ELj64ENS_24SSD130x4WireSpiTransport
 125              		.align	1
 126              		.p2align 2,,3
 127              		.weak	_ZNK5daisy11OledDisplayINS_13SSD130xDriverILj128ELj64ENS_24SSD130x4WireSpiTransportEEEE5Widt
 128              		.syntax unified
 129              		.thumb
 130              		.thumb_func
 132              	_ZNK5daisy11OledDisplayINS_13SSD130xDriverILj128ELj64ENS_24SSD130x4WireSpiTransportEEEE5WidthEv:
 133              	.LVL4:
 134              	.LFB2599:
  28:../../libDaisy//src/hid/disp/oled_display.h ****     uint16_t Width() const override { return driver_.Width(); }
 135              		.loc 6 28 14 is_stmt 1 view -0
 136              		.cfi_startproc
 137              		@ args = 0, pretend = 0, frame = 0
 138              		@ frame_needed = 0, uses_anonymous_args = 0
 139              		@ link register save eliminated.
 140              		.loc 6 28 63 is_stmt 0 view .LVU19
 141 0000 8020     		movs	r0, #128
 142              	.LVL5:
 143              		.loc 6 28 63 view .LVU20
 144 0002 7047     		bx	lr
 145              		.cfi_endproc
 146              	.LFE2599:
 148              		.section	.text._ZN5daisy11OledDisplayINS_13SSD130xDriverILj128ELj64ENS_24SSD130x4WireSpiTransportE
 149              		.align	1
 150              		.p2align 2,,3
 151              		.weak	_ZN5daisy11OledDisplayINS_13SSD130xDriverILj128ELj64ENS_24SSD130x4WireSpiTransportEEEE4FillE
 152              		.syntax unified
 153              		.thumb
 154              		.thumb_func
 156              	_ZN5daisy11OledDisplayINS_13SSD130xDriverILj128ELj64ENS_24SSD130x4WireSpiTransportEEEE4FillEb:
 157              	.LVL6:
 158              	.LFB2600:
  29:../../libDaisy//src/hid/disp/oled_display.h **** 
  30:../../libDaisy//src/hid/disp/oled_display.h ****     /** 
  31:../../libDaisy//src/hid/disp/oled_display.h ****     Fills the entire display with either on/off.
  32:../../libDaisy//src/hid/disp/oled_display.h ****     \param on Sets on or off.
  33:../../libDaisy//src/hid/disp/oled_display.h ****     */
  34:../../libDaisy//src/hid/disp/oled_display.h ****     void Fill(bool on) override { driver_.Fill(on); }
 159              		.loc 6 34 10 is_stmt 1 view -0
 160              		.cfi_startproc
 161              		@ args = 0, pretend = 0, frame = 0
 162              		@ frame_needed = 0, uses_anonymous_args = 0
 163              		@ link register save eliminated.
 164              	.LBB324:
ARM GAS  /tmp/ccZePa4k.s 			page 14


 165              	.LBI324:
 166              		.file 8 "../../libDaisy//src/dev/oled_ssd130x.h"
   1:../../libDaisy//src/dev/oled_ssd130x.h **** #pragma once
   2:../../libDaisy//src/dev/oled_ssd130x.h **** #ifndef SA_OLED_SSD130X_H
   3:../../libDaisy//src/dev/oled_ssd130x.h **** #define SA_OLED_SSD130X_H /**< & */
   4:../../libDaisy//src/dev/oled_ssd130x.h **** 
   5:../../libDaisy//src/dev/oled_ssd130x.h **** #include "per/i2c.h"
   6:../../libDaisy//src/dev/oled_ssd130x.h **** #include "per/spi.h"
   7:../../libDaisy//src/dev/oled_ssd130x.h **** #include "per/gpio.h"
   8:../../libDaisy//src/dev/oled_ssd130x.h **** #include "sys/system.h"
   9:../../libDaisy//src/dev/oled_ssd130x.h **** 
  10:../../libDaisy//src/dev/oled_ssd130x.h **** namespace daisy
  11:../../libDaisy//src/dev/oled_ssd130x.h **** {
  12:../../libDaisy//src/dev/oled_ssd130x.h **** /**
  13:../../libDaisy//src/dev/oled_ssd130x.h ****  * I2C Transport for SSD1306 / SSD1309 OLED display devices
  14:../../libDaisy//src/dev/oled_ssd130x.h ****  */
  15:../../libDaisy//src/dev/oled_ssd130x.h **** class SSD130xI2CTransport
  16:../../libDaisy//src/dev/oled_ssd130x.h **** {
  17:../../libDaisy//src/dev/oled_ssd130x.h ****   public:
  18:../../libDaisy//src/dev/oled_ssd130x.h ****     struct Config
  19:../../libDaisy//src/dev/oled_ssd130x.h ****     {
  20:../../libDaisy//src/dev/oled_ssd130x.h ****         Config()
  21:../../libDaisy//src/dev/oled_ssd130x.h ****         {
  22:../../libDaisy//src/dev/oled_ssd130x.h ****             // Intialize using defaults
  23:../../libDaisy//src/dev/oled_ssd130x.h ****             Defaults();
  24:../../libDaisy//src/dev/oled_ssd130x.h ****         }
  25:../../libDaisy//src/dev/oled_ssd130x.h ****         I2CHandle::Config i2c_config;
  26:../../libDaisy//src/dev/oled_ssd130x.h ****         uint8_t           i2c_address;
  27:../../libDaisy//src/dev/oled_ssd130x.h ****         void              Defaults()
  28:../../libDaisy//src/dev/oled_ssd130x.h ****         {
  29:../../libDaisy//src/dev/oled_ssd130x.h ****             i2c_config.periph         = I2CHandle::Config::Peripheral::I2C_1;
  30:../../libDaisy//src/dev/oled_ssd130x.h ****             i2c_config.speed          = I2CHandle::Config::Speed::I2C_1MHZ;
  31:../../libDaisy//src/dev/oled_ssd130x.h ****             i2c_config.mode           = I2CHandle::Config::Mode::I2C_MASTER;
  32:../../libDaisy//src/dev/oled_ssd130x.h ****             i2c_config.pin_config.scl = {DSY_GPIOB, 8};
  33:../../libDaisy//src/dev/oled_ssd130x.h ****             i2c_config.pin_config.sda = {DSY_GPIOB, 9};
  34:../../libDaisy//src/dev/oled_ssd130x.h ****             i2c_address               = 0x3C;
  35:../../libDaisy//src/dev/oled_ssd130x.h ****         }
  36:../../libDaisy//src/dev/oled_ssd130x.h ****     };
  37:../../libDaisy//src/dev/oled_ssd130x.h ****     void Init(const Config& config)
  38:../../libDaisy//src/dev/oled_ssd130x.h ****     {
  39:../../libDaisy//src/dev/oled_ssd130x.h ****         i2c_address_ = config.i2c_address;
  40:../../libDaisy//src/dev/oled_ssd130x.h ****         i2c_.Init(config.i2c_config);
  41:../../libDaisy//src/dev/oled_ssd130x.h ****     };
  42:../../libDaisy//src/dev/oled_ssd130x.h ****     void SendCommand(uint8_t cmd)
  43:../../libDaisy//src/dev/oled_ssd130x.h ****     {
  44:../../libDaisy//src/dev/oled_ssd130x.h ****         uint8_t buf[2] = {0X00, cmd};
  45:../../libDaisy//src/dev/oled_ssd130x.h ****         i2c_.TransmitBlocking(i2c_address_, buf, 2, 1000);
  46:../../libDaisy//src/dev/oled_ssd130x.h ****     };
  47:../../libDaisy//src/dev/oled_ssd130x.h **** 
  48:../../libDaisy//src/dev/oled_ssd130x.h ****     void SendData(uint8_t* buff, size_t size)
  49:../../libDaisy//src/dev/oled_ssd130x.h ****     {
  50:../../libDaisy//src/dev/oled_ssd130x.h ****         for(size_t i = 0; i < size; i++)
  51:../../libDaisy//src/dev/oled_ssd130x.h ****         {
  52:../../libDaisy//src/dev/oled_ssd130x.h ****             uint8_t buf[2] = {0X40, buff[i]};
  53:../../libDaisy//src/dev/oled_ssd130x.h ****             i2c_.TransmitBlocking(i2c_address_, buf, 2, 1000);
  54:../../libDaisy//src/dev/oled_ssd130x.h ****         }
  55:../../libDaisy//src/dev/oled_ssd130x.h ****     };
ARM GAS  /tmp/ccZePa4k.s 			page 15


  56:../../libDaisy//src/dev/oled_ssd130x.h **** 
  57:../../libDaisy//src/dev/oled_ssd130x.h ****   private:
  58:../../libDaisy//src/dev/oled_ssd130x.h ****     daisy::I2CHandle i2c_;
  59:../../libDaisy//src/dev/oled_ssd130x.h ****     uint8_t          i2c_address_;
  60:../../libDaisy//src/dev/oled_ssd130x.h **** };
  61:../../libDaisy//src/dev/oled_ssd130x.h **** 
  62:../../libDaisy//src/dev/oled_ssd130x.h **** /**
  63:../../libDaisy//src/dev/oled_ssd130x.h ****  * 4 Wire SPI Transport for SSD1306 / SSD1309 OLED display devices
  64:../../libDaisy//src/dev/oled_ssd130x.h ****  */
  65:../../libDaisy//src/dev/oled_ssd130x.h **** class SSD130x4WireSpiTransport
  66:../../libDaisy//src/dev/oled_ssd130x.h **** {
  67:../../libDaisy//src/dev/oled_ssd130x.h ****   public:
  68:../../libDaisy//src/dev/oled_ssd130x.h ****     struct Config
  69:../../libDaisy//src/dev/oled_ssd130x.h ****     {
  70:../../libDaisy//src/dev/oled_ssd130x.h ****         Config()
  71:../../libDaisy//src/dev/oled_ssd130x.h ****         {
  72:../../libDaisy//src/dev/oled_ssd130x.h ****             // Initialize using defaults
  73:../../libDaisy//src/dev/oled_ssd130x.h ****             Defaults();
  74:../../libDaisy//src/dev/oled_ssd130x.h ****         }
  75:../../libDaisy//src/dev/oled_ssd130x.h ****         SpiHandle::Config spi_config;
  76:../../libDaisy//src/dev/oled_ssd130x.h ****         struct
  77:../../libDaisy//src/dev/oled_ssd130x.h ****         {
  78:../../libDaisy//src/dev/oled_ssd130x.h ****             dsy_gpio_pin dc;    /**< & */
  79:../../libDaisy//src/dev/oled_ssd130x.h ****             dsy_gpio_pin reset; /**< & */
  80:../../libDaisy//src/dev/oled_ssd130x.h ****         } pin_config;
  81:../../libDaisy//src/dev/oled_ssd130x.h ****         void Defaults()
  82:../../libDaisy//src/dev/oled_ssd130x.h ****         {
  83:../../libDaisy//src/dev/oled_ssd130x.h ****             // SPI peripheral config
  84:../../libDaisy//src/dev/oled_ssd130x.h ****             spi_config.periph = SpiHandle::Config::Peripheral::SPI_1;
  85:../../libDaisy//src/dev/oled_ssd130x.h ****             spi_config.mode   = SpiHandle::Config::Mode::MASTER;
  86:../../libDaisy//src/dev/oled_ssd130x.h ****             spi_config.direction
  87:../../libDaisy//src/dev/oled_ssd130x.h ****                 = SpiHandle::Config::Direction::TWO_LINES_TX_ONLY;
  88:../../libDaisy//src/dev/oled_ssd130x.h ****             spi_config.datasize       = 8;
  89:../../libDaisy//src/dev/oled_ssd130x.h ****             spi_config.clock_polarity = SpiHandle::Config::ClockPolarity::LOW;
  90:../../libDaisy//src/dev/oled_ssd130x.h ****             spi_config.clock_phase    = SpiHandle::Config::ClockPhase::ONE_EDGE;
  91:../../libDaisy//src/dev/oled_ssd130x.h ****             spi_config.nss            = SpiHandle::Config::NSS::HARD_OUTPUT;
  92:../../libDaisy//src/dev/oled_ssd130x.h ****             spi_config.baud_prescaler = SpiHandle::Config::BaudPrescaler::PS_8;
  93:../../libDaisy//src/dev/oled_ssd130x.h ****             // SPI pin config
  94:../../libDaisy//src/dev/oled_ssd130x.h ****             spi_config.pin_config.sclk = {DSY_GPIOG, 11};
  95:../../libDaisy//src/dev/oled_ssd130x.h ****             spi_config.pin_config.miso = {DSY_GPIOX, 0};
  96:../../libDaisy//src/dev/oled_ssd130x.h ****             spi_config.pin_config.mosi = {DSY_GPIOB, 5};
  97:../../libDaisy//src/dev/oled_ssd130x.h ****             spi_config.pin_config.nss  = {DSY_GPIOG, 10};
  98:../../libDaisy//src/dev/oled_ssd130x.h ****             // SSD130x control pin config
  99:../../libDaisy//src/dev/oled_ssd130x.h ****             pin_config.dc    = {DSY_GPIOB, 4};
 100:../../libDaisy//src/dev/oled_ssd130x.h ****             pin_config.reset = {DSY_GPIOB, 15};
 101:../../libDaisy//src/dev/oled_ssd130x.h ****         }
 102:../../libDaisy//src/dev/oled_ssd130x.h ****     };
 103:../../libDaisy//src/dev/oled_ssd130x.h ****     void Init(const Config& config)
 104:../../libDaisy//src/dev/oled_ssd130x.h ****     {
 105:../../libDaisy//src/dev/oled_ssd130x.h ****         // Initialize both GPIO
 106:../../libDaisy//src/dev/oled_ssd130x.h ****         pin_dc_.mode = DSY_GPIO_MODE_OUTPUT_PP;
 107:../../libDaisy//src/dev/oled_ssd130x.h ****         pin_dc_.pin  = config.pin_config.dc;
 108:../../libDaisy//src/dev/oled_ssd130x.h ****         dsy_gpio_init(&pin_dc_);
 109:../../libDaisy//src/dev/oled_ssd130x.h ****         pin_reset_.mode = DSY_GPIO_MODE_OUTPUT_PP;
 110:../../libDaisy//src/dev/oled_ssd130x.h ****         pin_reset_.pin  = config.pin_config.reset;
 111:../../libDaisy//src/dev/oled_ssd130x.h ****         dsy_gpio_init(&pin_reset_);
 112:../../libDaisy//src/dev/oled_ssd130x.h **** 
ARM GAS  /tmp/ccZePa4k.s 			page 16


 113:../../libDaisy//src/dev/oled_ssd130x.h ****         // Initialize SPI
 114:../../libDaisy//src/dev/oled_ssd130x.h ****         spi_.Init(config.spi_config);
 115:../../libDaisy//src/dev/oled_ssd130x.h **** 
 116:../../libDaisy//src/dev/oled_ssd130x.h ****         // Reset and Configure OLED.
 117:../../libDaisy//src/dev/oled_ssd130x.h ****         dsy_gpio_write(&pin_reset_, 0);
 118:../../libDaisy//src/dev/oled_ssd130x.h ****         System::Delay(10);
 119:../../libDaisy//src/dev/oled_ssd130x.h ****         dsy_gpio_write(&pin_reset_, 1);
 120:../../libDaisy//src/dev/oled_ssd130x.h ****         System::Delay(10);
 121:../../libDaisy//src/dev/oled_ssd130x.h ****     };
 122:../../libDaisy//src/dev/oled_ssd130x.h ****     void SendCommand(uint8_t cmd)
 123:../../libDaisy//src/dev/oled_ssd130x.h ****     {
 124:../../libDaisy//src/dev/oled_ssd130x.h ****         dsy_gpio_write(&pin_dc_, 0);
 125:../../libDaisy//src/dev/oled_ssd130x.h ****         spi_.BlockingTransmit(&cmd, 1);
 126:../../libDaisy//src/dev/oled_ssd130x.h ****     };
 127:../../libDaisy//src/dev/oled_ssd130x.h **** 
 128:../../libDaisy//src/dev/oled_ssd130x.h ****     void SendData(uint8_t* buff, size_t size)
 129:../../libDaisy//src/dev/oled_ssd130x.h ****     {
 130:../../libDaisy//src/dev/oled_ssd130x.h ****         dsy_gpio_write(&pin_dc_, 1);
 131:../../libDaisy//src/dev/oled_ssd130x.h ****         spi_.BlockingTransmit(buff, size);
 132:../../libDaisy//src/dev/oled_ssd130x.h ****     };
 133:../../libDaisy//src/dev/oled_ssd130x.h **** 
 134:../../libDaisy//src/dev/oled_ssd130x.h ****   private:
 135:../../libDaisy//src/dev/oled_ssd130x.h ****     SpiHandle spi_;
 136:../../libDaisy//src/dev/oled_ssd130x.h ****     dsy_gpio  pin_reset_;
 137:../../libDaisy//src/dev/oled_ssd130x.h ****     dsy_gpio  pin_dc_;
 138:../../libDaisy//src/dev/oled_ssd130x.h **** };
 139:../../libDaisy//src/dev/oled_ssd130x.h **** 
 140:../../libDaisy//src/dev/oled_ssd130x.h **** 
 141:../../libDaisy//src/dev/oled_ssd130x.h **** /**
 142:../../libDaisy//src/dev/oled_ssd130x.h ****  * A driver implementation for the SSD1306/SSD1309
 143:../../libDaisy//src/dev/oled_ssd130x.h ****  */
 144:../../libDaisy//src/dev/oled_ssd130x.h **** template <size_t width, size_t height, typename Transport>
 145:../../libDaisy//src/dev/oled_ssd130x.h **** class SSD130xDriver
 146:../../libDaisy//src/dev/oled_ssd130x.h **** {
 147:../../libDaisy//src/dev/oled_ssd130x.h ****   public:
 148:../../libDaisy//src/dev/oled_ssd130x.h ****     struct Config
 149:../../libDaisy//src/dev/oled_ssd130x.h ****     {
 150:../../libDaisy//src/dev/oled_ssd130x.h ****         typename Transport::Config transport_config;
 151:../../libDaisy//src/dev/oled_ssd130x.h ****     };
 152:../../libDaisy//src/dev/oled_ssd130x.h **** 
 153:../../libDaisy//src/dev/oled_ssd130x.h ****     void Init(Config config)
 154:../../libDaisy//src/dev/oled_ssd130x.h ****     {
 155:../../libDaisy//src/dev/oled_ssd130x.h ****         transport_.Init(config.transport_config);
 156:../../libDaisy//src/dev/oled_ssd130x.h **** 
 157:../../libDaisy//src/dev/oled_ssd130x.h ****         // Init routine...
 158:../../libDaisy//src/dev/oled_ssd130x.h **** 
 159:../../libDaisy//src/dev/oled_ssd130x.h ****         // Display Off
 160:../../libDaisy//src/dev/oled_ssd130x.h ****         transport_.SendCommand(0xaE);
 161:../../libDaisy//src/dev/oled_ssd130x.h ****         // Dimension dependent commands...
 162:../../libDaisy//src/dev/oled_ssd130x.h ****         switch(height)
 163:../../libDaisy//src/dev/oled_ssd130x.h ****         {
 164:../../libDaisy//src/dev/oled_ssd130x.h ****             case 16:
 165:../../libDaisy//src/dev/oled_ssd130x.h ****                 // Display Clock Divide Ratio
 166:../../libDaisy//src/dev/oled_ssd130x.h ****                 transport_.SendCommand(0xD5);
 167:../../libDaisy//src/dev/oled_ssd130x.h ****                 transport_.SendCommand(0x60);
 168:../../libDaisy//src/dev/oled_ssd130x.h ****                 // Multiplex Ratio
 169:../../libDaisy//src/dev/oled_ssd130x.h ****                 transport_.SendCommand(0xA8);
ARM GAS  /tmp/ccZePa4k.s 			page 17


 170:../../libDaisy//src/dev/oled_ssd130x.h ****                 transport_.SendCommand(0x0F);
 171:../../libDaisy//src/dev/oled_ssd130x.h ****                 // COM Pins
 172:../../libDaisy//src/dev/oled_ssd130x.h ****                 transport_.SendCommand(0xDA);
 173:../../libDaisy//src/dev/oled_ssd130x.h ****                 transport_.SendCommand(0x02);
 174:../../libDaisy//src/dev/oled_ssd130x.h ****                 break;
 175:../../libDaisy//src/dev/oled_ssd130x.h ****             case 32:
 176:../../libDaisy//src/dev/oled_ssd130x.h ****                 // Display Clock Divide Ratio
 177:../../libDaisy//src/dev/oled_ssd130x.h ****                 transport_.SendCommand(0xD5);
 178:../../libDaisy//src/dev/oled_ssd130x.h ****                 transport_.SendCommand(0x80);
 179:../../libDaisy//src/dev/oled_ssd130x.h ****                 // Multiplex Ratio
 180:../../libDaisy//src/dev/oled_ssd130x.h ****                 transport_.SendCommand(0xA8);
 181:../../libDaisy//src/dev/oled_ssd130x.h ****                 transport_.SendCommand(0x1F);
 182:../../libDaisy//src/dev/oled_ssd130x.h ****                 // COM Pins
 183:../../libDaisy//src/dev/oled_ssd130x.h ****                 transport_.SendCommand(0xDA);
 184:../../libDaisy//src/dev/oled_ssd130x.h ****                 if(width == 64)
 185:../../libDaisy//src/dev/oled_ssd130x.h ****                 {
 186:../../libDaisy//src/dev/oled_ssd130x.h ****                     transport_.SendCommand(0x12);
 187:../../libDaisy//src/dev/oled_ssd130x.h ****                 }
 188:../../libDaisy//src/dev/oled_ssd130x.h ****                 else
 189:../../libDaisy//src/dev/oled_ssd130x.h ****                 {
 190:../../libDaisy//src/dev/oled_ssd130x.h ****                     transport_.SendCommand(0x02);
 191:../../libDaisy//src/dev/oled_ssd130x.h ****                 }
 192:../../libDaisy//src/dev/oled_ssd130x.h **** 
 193:../../libDaisy//src/dev/oled_ssd130x.h ****                 break;
 194:../../libDaisy//src/dev/oled_ssd130x.h ****             case 48:
 195:../../libDaisy//src/dev/oled_ssd130x.h ****                 // Display Clock Divide Ratio
 196:../../libDaisy//src/dev/oled_ssd130x.h ****                 transport_.SendCommand(0xD5);
 197:../../libDaisy//src/dev/oled_ssd130x.h ****                 transport_.SendCommand(0x80);
 198:../../libDaisy//src/dev/oled_ssd130x.h ****                 // Multiplex Ratio
 199:../../libDaisy//src/dev/oled_ssd130x.h ****                 transport_.SendCommand(0xA8);
 200:../../libDaisy//src/dev/oled_ssd130x.h ****                 transport_.SendCommand(0x2F);
 201:../../libDaisy//src/dev/oled_ssd130x.h ****                 // COM Pins
 202:../../libDaisy//src/dev/oled_ssd130x.h ****                 transport_.SendCommand(0xDA);
 203:../../libDaisy//src/dev/oled_ssd130x.h ****                 transport_.SendCommand(0x12);
 204:../../libDaisy//src/dev/oled_ssd130x.h ****                 break;
 205:../../libDaisy//src/dev/oled_ssd130x.h ****             default: // 128
 206:../../libDaisy//src/dev/oled_ssd130x.h ****                 // Display Clock Divide Ratio
 207:../../libDaisy//src/dev/oled_ssd130x.h ****                 transport_.SendCommand(0xD5);
 208:../../libDaisy//src/dev/oled_ssd130x.h ****                 transport_.SendCommand(0x80);
 209:../../libDaisy//src/dev/oled_ssd130x.h ****                 // Multiplex Ratio
 210:../../libDaisy//src/dev/oled_ssd130x.h ****                 transport_.SendCommand(0xA8);
 211:../../libDaisy//src/dev/oled_ssd130x.h ****                 transport_.SendCommand(0x3F);
 212:../../libDaisy//src/dev/oled_ssd130x.h ****                 // COM Pins
 213:../../libDaisy//src/dev/oled_ssd130x.h ****                 transport_.SendCommand(0xDA);
 214:../../libDaisy//src/dev/oled_ssd130x.h ****                 transport_.SendCommand(0x12);
 215:../../libDaisy//src/dev/oled_ssd130x.h ****                 break;
 216:../../libDaisy//src/dev/oled_ssd130x.h ****         }
 217:../../libDaisy//src/dev/oled_ssd130x.h **** 
 218:../../libDaisy//src/dev/oled_ssd130x.h ****         // Display Offset
 219:../../libDaisy//src/dev/oled_ssd130x.h ****         transport_.SendCommand(0xD3);
 220:../../libDaisy//src/dev/oled_ssd130x.h ****         transport_.SendCommand(0x00);
 221:../../libDaisy//src/dev/oled_ssd130x.h ****         // Start Line Address
 222:../../libDaisy//src/dev/oled_ssd130x.h ****         transport_.SendCommand(0x40);
 223:../../libDaisy//src/dev/oled_ssd130x.h ****         // Normal Display
 224:../../libDaisy//src/dev/oled_ssd130x.h ****         transport_.SendCommand(0xA6);
 225:../../libDaisy//src/dev/oled_ssd130x.h ****         // All On Resume
 226:../../libDaisy//src/dev/oled_ssd130x.h ****         transport_.SendCommand(0xA4);
ARM GAS  /tmp/ccZePa4k.s 			page 18


 227:../../libDaisy//src/dev/oled_ssd130x.h ****         // Charge Pump
 228:../../libDaisy//src/dev/oled_ssd130x.h ****         transport_.SendCommand(0x8D);
 229:../../libDaisy//src/dev/oled_ssd130x.h ****         transport_.SendCommand(0x14);
 230:../../libDaisy//src/dev/oled_ssd130x.h ****         // Set Segment Remap
 231:../../libDaisy//src/dev/oled_ssd130x.h ****         transport_.SendCommand(0xA1);
 232:../../libDaisy//src/dev/oled_ssd130x.h ****         // COM Output Scan Direction
 233:../../libDaisy//src/dev/oled_ssd130x.h ****         transport_.SendCommand(0xC8);
 234:../../libDaisy//src/dev/oled_ssd130x.h ****         // Contrast Control
 235:../../libDaisy//src/dev/oled_ssd130x.h ****         transport_.SendCommand(0x81);
 236:../../libDaisy//src/dev/oled_ssd130x.h ****         transport_.SendCommand(0x8F);
 237:../../libDaisy//src/dev/oled_ssd130x.h ****         // Pre Charge
 238:../../libDaisy//src/dev/oled_ssd130x.h ****         transport_.SendCommand(0xD9);
 239:../../libDaisy//src/dev/oled_ssd130x.h ****         transport_.SendCommand(0x25);
 240:../../libDaisy//src/dev/oled_ssd130x.h ****         // VCOM Detect
 241:../../libDaisy//src/dev/oled_ssd130x.h ****         transport_.SendCommand(0xDB);
 242:../../libDaisy//src/dev/oled_ssd130x.h ****         transport_.SendCommand(0x34);
 243:../../libDaisy//src/dev/oled_ssd130x.h **** 
 244:../../libDaisy//src/dev/oled_ssd130x.h **** 
 245:../../libDaisy//src/dev/oled_ssd130x.h ****         // Display On
 246:../../libDaisy//src/dev/oled_ssd130x.h ****         transport_.SendCommand(0xAF); //--turn on oled panel
 247:../../libDaisy//src/dev/oled_ssd130x.h ****     };
 248:../../libDaisy//src/dev/oled_ssd130x.h **** 
 249:../../libDaisy//src/dev/oled_ssd130x.h ****     size_t Width() const { return width; };
 250:../../libDaisy//src/dev/oled_ssd130x.h ****     size_t Height() const { return height; };
 251:../../libDaisy//src/dev/oled_ssd130x.h **** 
 252:../../libDaisy//src/dev/oled_ssd130x.h ****     void DrawPixel(uint_fast8_t x, uint_fast8_t y, bool on)
 253:../../libDaisy//src/dev/oled_ssd130x.h ****     {
 254:../../libDaisy//src/dev/oled_ssd130x.h ****         if(x >= width || y >= height)
 255:../../libDaisy//src/dev/oled_ssd130x.h ****             return;
 256:../../libDaisy//src/dev/oled_ssd130x.h ****         if(on)
 257:../../libDaisy//src/dev/oled_ssd130x.h ****             buffer_[x + (y / 8) * width] |= (1 << (y % 8));
 258:../../libDaisy//src/dev/oled_ssd130x.h ****         else
 259:../../libDaisy//src/dev/oled_ssd130x.h ****             buffer_[x + (y / 8) * width] &= ~(1 << (y % 8));
 260:../../libDaisy//src/dev/oled_ssd130x.h ****     }
 261:../../libDaisy//src/dev/oled_ssd130x.h **** 
 262:../../libDaisy//src/dev/oled_ssd130x.h ****     void Fill(bool on)
 167              		.loc 8 262 10 view .LVU22
 168              	.LBB325:
 263:../../libDaisy//src/dev/oled_ssd130x.h ****     {
 264:../../libDaisy//src/dev/oled_ssd130x.h ****         for(size_t i = 0; i < sizeof(buffer_); i++)
 169              		.loc 8 264 29 view .LVU23
 265:../../libDaisy//src/dev/oled_ssd130x.h ****         {
 266:../../libDaisy//src/dev/oled_ssd130x.h ****             buffer_[i] = on ? 0xff : 0x00;
 170              		.loc 8 266 24 is_stmt 0 view .LVU24
 171 0000 4942     		rsbs	r1, r1, #0
 172              	.LVL7:
 173              		.loc 8 266 24 view .LVU25
 174 0002 4FF48062 		mov	r2, #1024
 175 0006 1430     		adds	r0, r0, #20
 176              	.LVL8:
 177              		.loc 8 266 24 view .LVU26
 178 0008 C9B2     		uxtb	r1, r1
 179 000a FFF7FEBF 		b	memset
 180              	.LVL9:
 181              		.loc 8 266 24 view .LVU27
 182              	.LBE325:
 183              	.LBE324:
ARM GAS  /tmp/ccZePa4k.s 			page 19


 184              		.cfi_endproc
 185              	.LFE2600:
 187 000e 00BF     		.section	.text._ZN5daisy11OledDisplayINS_13SSD130xDriverILj128ELj64ENS_24SSD130x4WireSpiTransportE
 188              		.align	1
 189              		.p2align 2,,3
 190              		.weak	_ZN5daisy11OledDisplayINS_13SSD130xDriverILj128ELj64ENS_24SSD130x4WireSpiTransportEEEED0Ev
 191              		.syntax unified
 192              		.thumb
 193              		.thumb_func
 195              	_ZN5daisy11OledDisplayINS_13SSD130xDriverILj128ELj64ENS_24SSD130x4WireSpiTransportEEEED0Ev:
 196              	.LVL10:
 197              	.LFB2597:
  18:../../libDaisy//src/hid/disp/oled_display.h **** 
 198              		.loc 6 18 13 is_stmt 1 view -0
 199              		.cfi_startproc
 200              		@ args = 0, pretend = 0, frame = 0
 201              		@ frame_needed = 0, uses_anonymous_args = 0
  18:../../libDaisy//src/hid/disp/oled_display.h **** 
 202              		.loc 6 18 13 is_stmt 0 view .LVU29
 203 0000 10B5     		push	{r4, lr}
 204              		.cfi_def_cfa_offset 8
 205              		.cfi_offset 4, -8
 206              		.cfi_offset 14, -4
  18:../../libDaisy//src/hid/disp/oled_display.h **** 
 207              		.loc 6 18 13 view .LVU30
 208 0002 0446     		mov	r4, r0
 209              	.LVL11:
 210              	.LBB326:
 211              	.LBI326:
  18:../../libDaisy//src/hid/disp/oled_display.h **** 
 212              		.loc 6 18 13 is_stmt 1 view .LVU31
 213              	.LBB327:
 214              	.LBI327:
 215              		.loc 7 219 13 view .LVU32
 216              	.LBB328:
 217              	.LBI328:
  23:../../libDaisy//src/hid/disp/display.h **** 
 218              		.loc 7 23 13 view .LVU33
  23:../../libDaisy//src/hid/disp/display.h **** 
 219              		.loc 7 23 13 is_stmt 0 view .LVU34
 220              	.LBE328:
 221              	.LBE327:
 222              	.LBE326:
  18:../../libDaisy//src/hid/disp/oled_display.h **** 
 223              		.loc 6 18 29 view .LVU35
 224 0004 40F21441 		movw	r1, #1044
 225 0008 FFF7FEFF 		bl	_ZdlPvj
 226              	.LVL12:
  18:../../libDaisy//src/hid/disp/oled_display.h **** 
 227              		.loc 6 18 29 view .LVU36
 228 000c 2046     		mov	r0, r4
 229 000e 10BD     		pop	{r4, pc}
  18:../../libDaisy//src/hid/disp/oled_display.h **** 
 230              		.loc 6 18 29 view .LVU37
 231              		.cfi_endproc
 232              	.LFE2597:
 234              		.section	.text._ZN5daisy11OledDisplayINS_13SSD130xDriverILj128ELj64ENS_24SSD130x4WireSpiTransportE
ARM GAS  /tmp/ccZePa4k.s 			page 20


 235              		.align	1
 236              		.p2align 2,,3
 237              		.weak	_ZN5daisy11OledDisplayINS_13SSD130xDriverILj128ELj64ENS_24SSD130x4WireSpiTransportEEEE6Updat
 238              		.syntax unified
 239              		.thumb
 240              		.thumb_func
 242              	_ZN5daisy11OledDisplayINS_13SSD130xDriverILj128ELj64ENS_24SSD130x4WireSpiTransportEEEE6UpdateEv:
 243              	.LVL13:
 244              	.LFB2608:
  35:../../libDaisy//src/hid/disp/oled_display.h **** 
  36:../../libDaisy//src/hid/disp/oled_display.h ****     /**
  37:../../libDaisy//src/hid/disp/oled_display.h ****     Sets the pixel at the specified coordinate to be on/off.
  38:../../libDaisy//src/hid/disp/oled_display.h ****     \param x   x Coordinate
  39:../../libDaisy//src/hid/disp/oled_display.h ****     \param y   y coordinate
  40:../../libDaisy//src/hid/disp/oled_display.h ****     \param on  on or off
  41:../../libDaisy//src/hid/disp/oled_display.h ****     */
  42:../../libDaisy//src/hid/disp/oled_display.h ****     void DrawPixel(uint_fast8_t x, uint_fast8_t y, bool on) override
  43:../../libDaisy//src/hid/disp/oled_display.h ****     {
  44:../../libDaisy//src/hid/disp/oled_display.h ****         driver_.DrawPixel(x, y, on);
  45:../../libDaisy//src/hid/disp/oled_display.h ****     }
  46:../../libDaisy//src/hid/disp/oled_display.h **** 
  47:../../libDaisy//src/hid/disp/oled_display.h ****     /** 
  48:../../libDaisy//src/hid/disp/oled_display.h ****     Writes the current display buffer to the OLED device using SPI or I2C depending on 
  49:../../libDaisy//src/hid/disp/oled_display.h ****     how the object was initialized.
  50:../../libDaisy//src/hid/disp/oled_display.h ****     */
  51:../../libDaisy//src/hid/disp/oled_display.h ****     void Update() override { driver_.Update(); }
 245              		.loc 6 51 10 is_stmt 1 view -0
 246              		.cfi_startproc
 247              		@ args = 0, pretend = 0, frame = 8
 248              		@ frame_needed = 0, uses_anonymous_args = 0
 249              	.LBB339:
 250              	.LBI339:
 267:../../libDaisy//src/dev/oled_ssd130x.h ****         }
 268:../../libDaisy//src/dev/oled_ssd130x.h ****     };
 269:../../libDaisy//src/dev/oled_ssd130x.h **** 
 270:../../libDaisy//src/dev/oled_ssd130x.h ****     /**
 271:../../libDaisy//src/dev/oled_ssd130x.h ****      * Update the display 
 272:../../libDaisy//src/dev/oled_ssd130x.h ****     */
 273:../../libDaisy//src/dev/oled_ssd130x.h ****     void Update()
 251              		.loc 8 273 10 view .LVU39
 252              	.LBB340:
 274:../../libDaisy//src/dev/oled_ssd130x.h ****     {
 275:../../libDaisy//src/dev/oled_ssd130x.h ****         uint8_t i;
 276:../../libDaisy//src/dev/oled_ssd130x.h ****         uint8_t high_column_addr;
 277:../../libDaisy//src/dev/oled_ssd130x.h ****         switch(height)
 278:../../libDaisy//src/dev/oled_ssd130x.h ****         {
 279:../../libDaisy//src/dev/oled_ssd130x.h ****             case 32: high_column_addr = 0x12; break;
 280:../../libDaisy//src/dev/oled_ssd130x.h **** 
 281:../../libDaisy//src/dev/oled_ssd130x.h ****             default: high_column_addr = 0x10; break;
 282:../../libDaisy//src/dev/oled_ssd130x.h ****         }
 283:../../libDaisy//src/dev/oled_ssd130x.h ****         for(i = 0; i < (height / 8); i++)
 253              		.loc 8 283 22 view .LVU40
 254              	.LBE340:
 255              	.LBE339:
 256              		.loc 6 51 10 is_stmt 0 view .LVU41
 257 0000 2DE9F041 		push	{r4, r5, r6, r7, r8, lr}
 258              		.cfi_def_cfa_offset 24
ARM GAS  /tmp/ccZePa4k.s 			page 21


 259              		.cfi_offset 4, -24
 260              		.cfi_offset 5, -20
 261              		.cfi_offset 6, -16
 262              		.cfi_offset 7, -12
 263              		.cfi_offset 8, -8
 264              		.cfi_offset 14, -4
 265              	.LBB362:
 266              	.LBB360:
 267              	.LBB341:
 268              	.LBB342:
 125:../../libDaisy//src/dev/oled_ssd130x.h ****     };
 269              		.loc 8 125 30 view .LVU42
 270 0004 B024     		movs	r4, #176
 271              	.LBE342:
 272              	.LBE341:
 273              	.LBE360:
 274              	.LBE362:
 275              		.loc 6 51 10 view .LVU43
 276 0006 82B0     		sub	sp, sp, #8
 277              		.cfi_def_cfa_offset 32
 278              	.LBB363:
 279              	.LBB361:
 280              	.LBB347:
 281              	.LBB343:
 124:../../libDaisy//src/dev/oled_ssd130x.h ****         spi_.BlockingTransmit(&cmd, 1);
 282              		.loc 8 124 24 view .LVU44
 283 0008 00F10806 		add	r6, r0, #8
 284 000c 00F11005 		add	r5, r0, #16
 285 0010 00F11408 		add	r8, r0, #20
 286              	.LVL14:
 287              	.L10:
 124:../../libDaisy//src/dev/oled_ssd130x.h ****         spi_.BlockingTransmit(&cmd, 1);
 288              		.loc 8 124 24 view .LVU45
 289 0014 0027     		movs	r7, #0
 124:../../libDaisy//src/dev/oled_ssd130x.h ****         spi_.BlockingTransmit(&cmd, 1);
 290              		.loc 8 124 23 view .LVU46
 291 0016 2846     		mov	r0, r5
 292 0018 8DF80740 		strb	r4, [sp, #7]
 293              	.LVL15:
 124:../../libDaisy//src/dev/oled_ssd130x.h ****         spi_.BlockingTransmit(&cmd, 1);
 294              		.loc 8 124 23 view .LVU47
 295              	.LBE343:
 296              	.LBI341:
 122:../../libDaisy//src/dev/oled_ssd130x.h ****     {
 297              		.loc 8 122 10 is_stmt 1 view .LVU48
 298              	.LBB344:
 124:../../libDaisy//src/dev/oled_ssd130x.h ****         spi_.BlockingTransmit(&cmd, 1);
 299              		.loc 8 124 9 view .LVU49
 300              	.LBE344:
 301              	.LBE347:
 302              		.loc 8 283 22 is_stmt 0 view .LVU50
 303 001c 0134     		adds	r4, r4, #1
 304              	.LVL16:
 305              	.LBB348:
 306              	.LBB345:
 124:../../libDaisy//src/dev/oled_ssd130x.h ****         spi_.BlockingTransmit(&cmd, 1);
 307              		.loc 8 124 23 view .LVU51
ARM GAS  /tmp/ccZePa4k.s 			page 22


 308 001e 3946     		mov	r1, r7
 309 0020 FFF7FEFF 		bl	dsy_gpio_write
 310              	.LVL17:
 125:../../libDaisy//src/dev/oled_ssd130x.h ****     };
 311              		.loc 8 125 9 is_stmt 1 view .LVU52
 125:../../libDaisy//src/dev/oled_ssd130x.h ****     };
 312              		.loc 8 125 30 is_stmt 0 view .LVU53
 313 0024 6423     		movs	r3, #100
 314 0026 0122     		movs	r2, #1
 315 0028 0DF10701 		add	r1, sp, #7
 316 002c 3046     		mov	r0, r6
 317              	.LBE345:
 318              	.LBE348:
 319              		.loc 8 283 22 view .LVU54
 320 002e E4B2     		uxtb	r4, r4
 321              	.LBB349:
 322              	.LBB346:
 125:../../libDaisy//src/dev/oled_ssd130x.h ****     };
 323              		.loc 8 125 30 view .LVU55
 324 0030 FFF7FEFF 		bl	_ZN5daisy9SpiHandle16BlockingTransmitEPhjm
 325              	.LVL18:
 125:../../libDaisy//src/dev/oled_ssd130x.h ****     };
 326              		.loc 8 125 30 view .LVU56
 327              	.LBE346:
 328              	.LBE349:
 329              	.LBB350:
 330              	.LBB351:
 124:../../libDaisy//src/dev/oled_ssd130x.h ****         spi_.BlockingTransmit(&cmd, 1);
 331              		.loc 8 124 23 view .LVU57
 332 0034 3946     		mov	r1, r7
 333 0036 2846     		mov	r0, r5
 334 0038 8DF80770 		strb	r7, [sp, #7]
 335              	.LVL19:
 124:../../libDaisy//src/dev/oled_ssd130x.h ****         spi_.BlockingTransmit(&cmd, 1);
 336              		.loc 8 124 23 view .LVU58
 337              	.LBE351:
 338              	.LBI350:
 122:../../libDaisy//src/dev/oled_ssd130x.h ****     {
 339              		.loc 8 122 10 is_stmt 1 view .LVU59
 340              	.LBB352:
 124:../../libDaisy//src/dev/oled_ssd130x.h ****         spi_.BlockingTransmit(&cmd, 1);
 341              		.loc 8 124 9 view .LVU60
 124:../../libDaisy//src/dev/oled_ssd130x.h ****         spi_.BlockingTransmit(&cmd, 1);
 342              		.loc 8 124 23 is_stmt 0 view .LVU61
 343 003c FFF7FEFF 		bl	dsy_gpio_write
 344              	.LVL20:
 125:../../libDaisy//src/dev/oled_ssd130x.h ****     };
 345              		.loc 8 125 9 is_stmt 1 view .LVU62
 125:../../libDaisy//src/dev/oled_ssd130x.h ****     };
 346              		.loc 8 125 30 is_stmt 0 view .LVU63
 347 0040 0122     		movs	r2, #1
 348 0042 6423     		movs	r3, #100
 349 0044 0DF10701 		add	r1, sp, #7
 350 0048 3046     		mov	r0, r6
 351 004a FFF7FEFF 		bl	_ZN5daisy9SpiHandle16BlockingTransmitEPhjm
 352              	.LVL21:
 125:../../libDaisy//src/dev/oled_ssd130x.h ****     };
ARM GAS  /tmp/ccZePa4k.s 			page 23


 353              		.loc 8 125 30 view .LVU64
 354 004e 1023     		movs	r3, #16
 355              	.LBE352:
 356              	.LBE350:
 357              	.LBB353:
 358              	.LBB354:
 124:../../libDaisy//src/dev/oled_ssd130x.h ****         spi_.BlockingTransmit(&cmd, 1);
 359              		.loc 8 124 23 view .LVU65
 360 0050 3946     		mov	r1, r7
 361 0052 2846     		mov	r0, r5
 362 0054 8DF80730 		strb	r3, [sp, #7]
 363              	.LVL22:
 124:../../libDaisy//src/dev/oled_ssd130x.h ****         spi_.BlockingTransmit(&cmd, 1);
 364              		.loc 8 124 23 view .LVU66
 365              	.LBE354:
 366              	.LBI353:
 122:../../libDaisy//src/dev/oled_ssd130x.h ****     {
 367              		.loc 8 122 10 is_stmt 1 view .LVU67
 368              	.LBB355:
 124:../../libDaisy//src/dev/oled_ssd130x.h ****         spi_.BlockingTransmit(&cmd, 1);
 369              		.loc 8 124 9 view .LVU68
 124:../../libDaisy//src/dev/oled_ssd130x.h ****         spi_.BlockingTransmit(&cmd, 1);
 370              		.loc 8 124 23 is_stmt 0 view .LVU69
 371 0058 FFF7FEFF 		bl	dsy_gpio_write
 372              	.LVL23:
 125:../../libDaisy//src/dev/oled_ssd130x.h ****     };
 373              		.loc 8 125 9 is_stmt 1 view .LVU70
 125:../../libDaisy//src/dev/oled_ssd130x.h ****     };
 374              		.loc 8 125 30 is_stmt 0 view .LVU71
 375 005c 6423     		movs	r3, #100
 376 005e 0122     		movs	r2, #1
 377 0060 0DF10701 		add	r1, sp, #7
 378 0064 3046     		mov	r0, r6
 379 0066 FFF7FEFF 		bl	_ZN5daisy9SpiHandle16BlockingTransmitEPhjm
 380              	.LVL24:
 125:../../libDaisy//src/dev/oled_ssd130x.h ****     };
 381              		.loc 8 125 30 view .LVU72
 382              	.LBE355:
 383              	.LBE353:
 384              	.LBB356:
 385              	.LBI356:
 128:../../libDaisy//src/dev/oled_ssd130x.h ****     {
 386              		.loc 8 128 10 is_stmt 1 view .LVU73
 387              	.LBB357:
 130:../../libDaisy//src/dev/oled_ssd130x.h ****         spi_.BlockingTransmit(buff, size);
 388              		.loc 8 130 9 view .LVU74
 130:../../libDaisy//src/dev/oled_ssd130x.h ****         spi_.BlockingTransmit(buff, size);
 389              		.loc 8 130 23 is_stmt 0 view .LVU75
 390 006a 0121     		movs	r1, #1
 391 006c 2846     		mov	r0, r5
 392 006e FFF7FEFF 		bl	dsy_gpio_write
 393              	.LVL25:
 131:../../libDaisy//src/dev/oled_ssd130x.h ****     };
 394              		.loc 8 131 9 is_stmt 1 view .LVU76
 131:../../libDaisy//src/dev/oled_ssd130x.h ****     };
 395              		.loc 8 131 30 is_stmt 0 view .LVU77
 396 0072 8022     		movs	r2, #128
ARM GAS  /tmp/ccZePa4k.s 			page 24


 397 0074 4146     		mov	r1, r8
 398 0076 6423     		movs	r3, #100
 399 0078 3046     		mov	r0, r6
 400              	.LBE357:
 401              	.LBE356:
 402              		.loc 8 283 22 view .LVU78
 403 007a 9044     		add	r8, r8, r2
 404              	.LVL26:
 405              	.LBB359:
 406              	.LBB358:
 131:../../libDaisy//src/dev/oled_ssd130x.h ****     };
 407              		.loc 8 131 30 view .LVU79
 408 007c FFF7FEFF 		bl	_ZN5daisy9SpiHandle16BlockingTransmitEPhjm
 409              	.LVL27:
 131:../../libDaisy//src/dev/oled_ssd130x.h ****     };
 410              		.loc 8 131 30 view .LVU80
 411              	.LBE358:
 412              	.LBE359:
 413              		.loc 8 283 9 is_stmt 1 view .LVU81
 414              		.loc 8 283 22 view .LVU82
 415 0080 B82C     		cmp	r4, #184
 416 0082 C7D1     		bne	.L10
 417              	.LBE361:
 418              	.LBE363:
 419              		.loc 6 51 48 is_stmt 0 view .LVU83
 420 0084 02B0     		add	sp, sp, #8
 421              		.cfi_def_cfa_offset 24
 422              		@ sp needed
 423 0086 BDE8F081 		pop	{r4, r5, r6, r7, r8, pc}
 424              		.loc 6 51 48 view .LVU84
 425              		.cfi_endproc
 426              	.LFE2608:
 428 008a 00BF     		.section	.text._ZN5daisy25OneBitGraphicsDisplayImplINS_11OledDisplayINS_13SSD130xDriverILj128ELj64
 429              		.align	1
 430              		.p2align 2,,3
 431              		.weak	_ZN5daisy25OneBitGraphicsDisplayImplINS_11OledDisplayINS_13SSD130xDriverILj128ELj64ENS_24SSD
 432              		.syntax unified
 433              		.thumb
 434              		.thumb_func
 436              	_ZN5daisy25OneBitGraphicsDisplayImplINS_11OledDisplayINS_13SSD130xDriverILj128ELj64ENS_24SSD130x4Wi
 437              	.LVL28:
 438              	.LFB2606:
 220:../../libDaisy//src/hid/disp/display.h **** 
 221:../../libDaisy//src/hid/disp/display.h ****     void DrawLine(uint_fast8_t x1,
 222:../../libDaisy//src/hid/disp/display.h ****                   uint_fast8_t y1,
 223:../../libDaisy//src/hid/disp/display.h ****                   uint_fast8_t x2,
 224:../../libDaisy//src/hid/disp/display.h ****                   uint_fast8_t y2,
 225:../../libDaisy//src/hid/disp/display.h ****                   bool         on) override
 226:../../libDaisy//src/hid/disp/display.h ****     {
 227:../../libDaisy//src/hid/disp/display.h ****         int_fast16_t deltaX = abs((int_fast16_t)x2 - (int_fast16_t)x1);
 228:../../libDaisy//src/hid/disp/display.h ****         int_fast16_t deltaY = abs((int_fast16_t)y2 - (int_fast16_t)y1);
 229:../../libDaisy//src/hid/disp/display.h ****         int_fast16_t signX  = ((x1 < x2) ? 1 : -1);
 230:../../libDaisy//src/hid/disp/display.h ****         int_fast16_t signY  = ((y1 < y2) ? 1 : -1);
 231:../../libDaisy//src/hid/disp/display.h ****         int_fast16_t error  = deltaX - deltaY;
 232:../../libDaisy//src/hid/disp/display.h ****         int_fast16_t error2;
 233:../../libDaisy//src/hid/disp/display.h **** 
 234:../../libDaisy//src/hid/disp/display.h ****         // If we write "ChildType::DrawPixel(x2, y2, on);", we end up with
ARM GAS  /tmp/ccZePa4k.s 			page 25


 235:../../libDaisy//src/hid/disp/display.h ****         // all sorts of weird compiler errors when the Child class is a template
 236:../../libDaisy//src/hid/disp/display.h ****         // class. The only way around this is to use this very verbose syntax:
 237:../../libDaisy//src/hid/disp/display.h ****         ((ChildType*)(this))->ChildType::DrawPixel(x2, y2, on);
 238:../../libDaisy//src/hid/disp/display.h **** 
 239:../../libDaisy//src/hid/disp/display.h ****         while((x1 != x2) || (y1 != y2))
 240:../../libDaisy//src/hid/disp/display.h ****         {
 241:../../libDaisy//src/hid/disp/display.h ****             ((ChildType*)(this))->ChildType::DrawPixel(x1, y1, on);
 242:../../libDaisy//src/hid/disp/display.h ****             error2 = error * 2;
 243:../../libDaisy//src/hid/disp/display.h ****             if(error2 > -deltaY)
 244:../../libDaisy//src/hid/disp/display.h ****             {
 245:../../libDaisy//src/hid/disp/display.h ****                 error -= deltaY;
 246:../../libDaisy//src/hid/disp/display.h ****                 x1 += signX;
 247:../../libDaisy//src/hid/disp/display.h ****             }
 248:../../libDaisy//src/hid/disp/display.h **** 
 249:../../libDaisy//src/hid/disp/display.h ****             if(error2 < deltaX)
 250:../../libDaisy//src/hid/disp/display.h ****             {
 251:../../libDaisy//src/hid/disp/display.h ****                 error += deltaX;
 252:../../libDaisy//src/hid/disp/display.h ****                 y1 += signY;
 253:../../libDaisy//src/hid/disp/display.h ****             }
 254:../../libDaisy//src/hid/disp/display.h ****         }
 255:../../libDaisy//src/hid/disp/display.h ****     }
 256:../../libDaisy//src/hid/disp/display.h **** 
 257:../../libDaisy//src/hid/disp/display.h ****     void DrawRect(uint_fast8_t x1,
 258:../../libDaisy//src/hid/disp/display.h ****                   uint_fast8_t y1,
 259:../../libDaisy//src/hid/disp/display.h ****                   uint_fast8_t x2,
 260:../../libDaisy//src/hid/disp/display.h ****                   uint_fast8_t y2,
 261:../../libDaisy//src/hid/disp/display.h ****                   bool         on,
 262:../../libDaisy//src/hid/disp/display.h ****                   bool         fill = false) override
 263:../../libDaisy//src/hid/disp/display.h ****     {
 264:../../libDaisy//src/hid/disp/display.h ****         if(fill)
 265:../../libDaisy//src/hid/disp/display.h ****         {
 266:../../libDaisy//src/hid/disp/display.h ****             for(uint_fast8_t x = x1; x <= x2; x++)
 267:../../libDaisy//src/hid/disp/display.h ****             {
 268:../../libDaisy//src/hid/disp/display.h ****                 for(uint_fast8_t y = y1; y <= y2; y++)
 269:../../libDaisy//src/hid/disp/display.h ****                 {
 270:../../libDaisy//src/hid/disp/display.h ****                     ((ChildType*)(this))->ChildType::DrawPixel(x, y, on);
 271:../../libDaisy//src/hid/disp/display.h ****                 }
 272:../../libDaisy//src/hid/disp/display.h ****             }
 273:../../libDaisy//src/hid/disp/display.h ****         }
 274:../../libDaisy//src/hid/disp/display.h ****         else
 275:../../libDaisy//src/hid/disp/display.h ****         {
 276:../../libDaisy//src/hid/disp/display.h ****             ((ChildType*)(this))->ChildType::DrawLine(x1, y1, x2, y1, on);
 277:../../libDaisy//src/hid/disp/display.h ****             ((ChildType*)(this))->ChildType::DrawLine(x2, y1, x2, y2, on);
 278:../../libDaisy//src/hid/disp/display.h ****             ((ChildType*)(this))->ChildType::DrawLine(x2, y2, x1, y2, on);
 279:../../libDaisy//src/hid/disp/display.h ****             ((ChildType*)(this))->ChildType::DrawLine(x1, y2, x1, y1, on);
 280:../../libDaisy//src/hid/disp/display.h ****         }
 281:../../libDaisy//src/hid/disp/display.h ****     }
 282:../../libDaisy//src/hid/disp/display.h **** 
 283:../../libDaisy//src/hid/disp/display.h ****     void DrawArc(uint_fast8_t x,
 284:../../libDaisy//src/hid/disp/display.h ****                  uint_fast8_t y,
 285:../../libDaisy//src/hid/disp/display.h ****                  uint_fast8_t radius,
 286:../../libDaisy//src/hid/disp/display.h ****                  int_fast16_t start_angle,
 287:../../libDaisy//src/hid/disp/display.h ****                  int_fast16_t sweep,
 288:../../libDaisy//src/hid/disp/display.h ****                  bool         on) override
 289:../../libDaisy//src/hid/disp/display.h ****     {
 290:../../libDaisy//src/hid/disp/display.h ****         // Values to calculate the circle
 291:../../libDaisy//src/hid/disp/display.h ****         int_fast16_t t_x, t_y, err, e2;
ARM GAS  /tmp/ccZePa4k.s 			page 26


 292:../../libDaisy//src/hid/disp/display.h **** 
 293:../../libDaisy//src/hid/disp/display.h ****         // Temporary values to speed up comparisons
 294:../../libDaisy//src/hid/disp/display.h ****         float t_sxy, t_syx, t_sxny, t_synx;
 295:../../libDaisy//src/hid/disp/display.h ****         float t_exy, t_eyx, t_exny, t_eynx;
 296:../../libDaisy//src/hid/disp/display.h **** 
 297:../../libDaisy//src/hid/disp/display.h ****         float start_angle_rad, end_angle_rad;
 298:../../libDaisy//src/hid/disp/display.h ****         float start_x, start_y, end_x, end_y;
 299:../../libDaisy//src/hid/disp/display.h **** 
 300:../../libDaisy//src/hid/disp/display.h ****         bool d1, d2, d3, d4;
 301:../../libDaisy//src/hid/disp/display.h **** 
 302:../../libDaisy//src/hid/disp/display.h ****         d1 = d2 = d3 = d4 = true;
 303:../../libDaisy//src/hid/disp/display.h **** 
 304:../../libDaisy//src/hid/disp/display.h ****         bool circle = false;
 305:../../libDaisy//src/hid/disp/display.h **** 
 306:../../libDaisy//src/hid/disp/display.h ****         if(sweep < 0)
 307:../../libDaisy//src/hid/disp/display.h ****         {
 308:../../libDaisy//src/hid/disp/display.h ****             start_angle += sweep;
 309:../../libDaisy//src/hid/disp/display.h ****             sweep = -sweep;
 310:../../libDaisy//src/hid/disp/display.h ****         }
 311:../../libDaisy//src/hid/disp/display.h **** 
 312:../../libDaisy//src/hid/disp/display.h ****         start_angle_rad = deg2rad(start_angle);
 313:../../libDaisy//src/hid/disp/display.h ****         end_angle_rad   = deg2rad(start_angle + sweep);
 314:../../libDaisy//src/hid/disp/display.h **** 
 315:../../libDaisy//src/hid/disp/display.h ****         start_x = cos(start_angle_rad) * radius;
 316:../../libDaisy//src/hid/disp/display.h ****         start_y = -sin(start_angle_rad) * radius;
 317:../../libDaisy//src/hid/disp/display.h ****         end_x   = cos(end_angle_rad) * radius;
 318:../../libDaisy//src/hid/disp/display.h ****         end_y   = -sin(end_angle_rad) * radius;
 319:../../libDaisy//src/hid/disp/display.h **** 
 320:../../libDaisy//src/hid/disp/display.h ****         // Check if start and endpoint are very near
 321:../../libDaisy//src/hid/disp/display.h ****         if((end_x - start_x) * (end_x - start_x)
 322:../../libDaisy//src/hid/disp/display.h ****                + (end_y - start_y) * (end_y - start_y)
 323:../../libDaisy//src/hid/disp/display.h ****            < 2.0f)
 324:../../libDaisy//src/hid/disp/display.h ****         {
 325:../../libDaisy//src/hid/disp/display.h ****             if(sweep > 180)
 326:../../libDaisy//src/hid/disp/display.h ****                 circle = true;
 327:../../libDaisy//src/hid/disp/display.h ****             else
 328:../../libDaisy//src/hid/disp/display.h ****                 // Nothing to draw
 329:../../libDaisy//src/hid/disp/display.h ****                 return;
 330:../../libDaisy//src/hid/disp/display.h ****         }
 331:../../libDaisy//src/hid/disp/display.h **** 
 332:../../libDaisy//src/hid/disp/display.h ****         t_x = -radius;
 333:../../libDaisy//src/hid/disp/display.h ****         t_y = 0;
 334:../../libDaisy//src/hid/disp/display.h ****         err = 2 - 2 * radius;
 335:../../libDaisy//src/hid/disp/display.h **** 
 336:../../libDaisy//src/hid/disp/display.h ****         do
 337:../../libDaisy//src/hid/disp/display.h ****         {
 338:../../libDaisy//src/hid/disp/display.h ****             if(!circle)
 339:../../libDaisy//src/hid/disp/display.h ****             {
 340:../../libDaisy//src/hid/disp/display.h ****                 t_sxy  = start_x * t_y;
 341:../../libDaisy//src/hid/disp/display.h ****                 t_syx  = start_y * t_x;
 342:../../libDaisy//src/hid/disp/display.h ****                 t_sxny = start_x * -t_y;
 343:../../libDaisy//src/hid/disp/display.h ****                 t_synx = start_y * -t_x;
 344:../../libDaisy//src/hid/disp/display.h ****                 t_exy  = end_x * t_y;
 345:../../libDaisy//src/hid/disp/display.h ****                 t_eyx  = end_y * t_x;
 346:../../libDaisy//src/hid/disp/display.h ****                 t_exny = end_x * -t_y;
 347:../../libDaisy//src/hid/disp/display.h ****                 t_eynx = end_y * -t_x;
 348:../../libDaisy//src/hid/disp/display.h **** 
ARM GAS  /tmp/ccZePa4k.s 			page 27


 349:../../libDaisy//src/hid/disp/display.h ****                 if(sweep > 180)
 350:../../libDaisy//src/hid/disp/display.h ****                 {
 351:../../libDaisy//src/hid/disp/display.h ****                     d1 = (t_sxy - t_synx < 0 || t_exy - t_eynx > 0);
 352:../../libDaisy//src/hid/disp/display.h ****                     d2 = (t_sxy - t_syx < 0 || t_exy - t_eyx > 0);
 353:../../libDaisy//src/hid/disp/display.h ****                     d3 = (t_sxny - t_syx < 0 || t_exny - t_eyx > 0);
 354:../../libDaisy//src/hid/disp/display.h ****                     d4 = (t_sxny - t_synx < 0 || t_exny - t_eynx > 0);
 355:../../libDaisy//src/hid/disp/display.h ****                 }
 356:../../libDaisy//src/hid/disp/display.h ****                 else
 357:../../libDaisy//src/hid/disp/display.h ****                 {
 358:../../libDaisy//src/hid/disp/display.h ****                     d1 = (t_sxy - t_synx < 0 && t_exy - t_eynx > 0);
 359:../../libDaisy//src/hid/disp/display.h ****                     d2 = (t_sxy - t_syx < 0 && t_exy - t_eyx > 0);
 360:../../libDaisy//src/hid/disp/display.h ****                     d3 = (t_sxny - t_syx < 0 && t_exny - t_eyx > 0);
 361:../../libDaisy//src/hid/disp/display.h ****                     d4 = (t_sxny - t_synx < 0 && t_exny - t_eynx > 0);
 362:../../libDaisy//src/hid/disp/display.h ****                 }
 363:../../libDaisy//src/hid/disp/display.h ****             }
 364:../../libDaisy//src/hid/disp/display.h **** 
 365:../../libDaisy//src/hid/disp/display.h ****             if(d1)
 366:../../libDaisy//src/hid/disp/display.h ****                 ((ChildType*)(this))
 367:../../libDaisy//src/hid/disp/display.h ****                     ->ChildType::DrawPixel(x - t_x, y + t_y, on);
 368:../../libDaisy//src/hid/disp/display.h ****             if(d2)
 369:../../libDaisy//src/hid/disp/display.h ****                 ((ChildType*)(this))
 370:../../libDaisy//src/hid/disp/display.h ****                     ->ChildType::DrawPixel(x + t_x, y + t_y, on);
 371:../../libDaisy//src/hid/disp/display.h ****             if(d3)
 372:../../libDaisy//src/hid/disp/display.h ****                 ((ChildType*)(this))
 373:../../libDaisy//src/hid/disp/display.h ****                     ->ChildType::DrawPixel(x + t_x, y - t_y, on);
 374:../../libDaisy//src/hid/disp/display.h ****             if(d4)
 375:../../libDaisy//src/hid/disp/display.h ****                 ((ChildType*)(this))
 376:../../libDaisy//src/hid/disp/display.h ****                     ->ChildType::DrawPixel(x - t_x, y - t_y, on);
 377:../../libDaisy//src/hid/disp/display.h **** 
 378:../../libDaisy//src/hid/disp/display.h ****             e2 = err;
 379:../../libDaisy//src/hid/disp/display.h ****             if(e2 <= t_y)
 380:../../libDaisy//src/hid/disp/display.h ****             {
 381:../../libDaisy//src/hid/disp/display.h ****                 t_y++;
 382:../../libDaisy//src/hid/disp/display.h ****                 err = err + (t_y * 2 + 1);
 383:../../libDaisy//src/hid/disp/display.h ****                 if(-t_x == t_y && e2 <= t_x)
 384:../../libDaisy//src/hid/disp/display.h ****                 {
 385:../../libDaisy//src/hid/disp/display.h ****                     e2 = 0;
 386:../../libDaisy//src/hid/disp/display.h ****                 }
 387:../../libDaisy//src/hid/disp/display.h ****             }
 388:../../libDaisy//src/hid/disp/display.h ****             if(e2 > t_x)
 389:../../libDaisy//src/hid/disp/display.h ****             {
 390:../../libDaisy//src/hid/disp/display.h ****                 t_x++;
 391:../../libDaisy//src/hid/disp/display.h ****                 err = err + (t_x * 2 + 1);
 392:../../libDaisy//src/hid/disp/display.h ****             }
 393:../../libDaisy//src/hid/disp/display.h ****         } while(t_x <= 0);
 394:../../libDaisy//src/hid/disp/display.h ****     }
 395:../../libDaisy//src/hid/disp/display.h **** 
 396:../../libDaisy//src/hid/disp/display.h ****     char WriteChar(char ch, FontDef font, bool on) override
 397:../../libDaisy//src/hid/disp/display.h ****     {
 398:../../libDaisy//src/hid/disp/display.h ****         uint32_t i, b, j;
 399:../../libDaisy//src/hid/disp/display.h **** 
 400:../../libDaisy//src/hid/disp/display.h ****         // Check if character is valid
 401:../../libDaisy//src/hid/disp/display.h ****         if(ch < 32 || ch > 126)
 402:../../libDaisy//src/hid/disp/display.h ****             return 0;
 403:../../libDaisy//src/hid/disp/display.h **** 
 404:../../libDaisy//src/hid/disp/display.h ****         // Check remaining space on current line
 405:../../libDaisy//src/hid/disp/display.h ****         if(Width() < (currentX_ + font.FontWidth)
ARM GAS  /tmp/ccZePa4k.s 			page 28


 406:../../libDaisy//src/hid/disp/display.h ****            || Height() < (currentY_ + font.FontHeight))
 407:../../libDaisy//src/hid/disp/display.h ****         {
 408:../../libDaisy//src/hid/disp/display.h ****             // Not enough space on current line
 409:../../libDaisy//src/hid/disp/display.h ****             return 0;
 410:../../libDaisy//src/hid/disp/display.h ****         }
 411:../../libDaisy//src/hid/disp/display.h **** 
 412:../../libDaisy//src/hid/disp/display.h ****         // Use the font to write
 413:../../libDaisy//src/hid/disp/display.h ****         for(i = 0; i < font.FontHeight; i++)
 414:../../libDaisy//src/hid/disp/display.h ****         {
 415:../../libDaisy//src/hid/disp/display.h ****             b = font.data[(ch - 32) * font.FontHeight + i];
 416:../../libDaisy//src/hid/disp/display.h ****             for(j = 0; j < font.FontWidth; j++)
 417:../../libDaisy//src/hid/disp/display.h ****             {
 418:../../libDaisy//src/hid/disp/display.h ****                 if((b << j) & 0x8000)
 419:../../libDaisy//src/hid/disp/display.h ****                 {
 420:../../libDaisy//src/hid/disp/display.h ****                     ((ChildType*)(this))
 421:../../libDaisy//src/hid/disp/display.h ****                         ->ChildType::DrawPixel(
 422:../../libDaisy//src/hid/disp/display.h ****                             currentX_ + j, (currentY_ + i), on);
 423:../../libDaisy//src/hid/disp/display.h ****                 }
 424:../../libDaisy//src/hid/disp/display.h ****                 else
 425:../../libDaisy//src/hid/disp/display.h ****                 {
 426:../../libDaisy//src/hid/disp/display.h ****                     ((ChildType*)(this))
 427:../../libDaisy//src/hid/disp/display.h ****                         ->ChildType::DrawPixel(
 428:../../libDaisy//src/hid/disp/display.h ****                             currentX_ + j, (currentY_ + i), !on);
 429:../../libDaisy//src/hid/disp/display.h ****                 }
 430:../../libDaisy//src/hid/disp/display.h ****             }
 431:../../libDaisy//src/hid/disp/display.h ****         }
 432:../../libDaisy//src/hid/disp/display.h **** 
 433:../../libDaisy//src/hid/disp/display.h ****         // The current space is now taken
 434:../../libDaisy//src/hid/disp/display.h ****         SetCursor(currentX_ + font.FontWidth, currentY_);
 435:../../libDaisy//src/hid/disp/display.h **** 
 436:../../libDaisy//src/hid/disp/display.h ****         // Return written char for validation
 437:../../libDaisy//src/hid/disp/display.h ****         return ch;
 438:../../libDaisy//src/hid/disp/display.h ****     }
 439:../../libDaisy//src/hid/disp/display.h **** 
 440:../../libDaisy//src/hid/disp/display.h ****     char WriteString(const char* str, FontDef font, bool on) override
 439              		.loc 7 440 10 is_stmt 1 view -0
 440              		.cfi_startproc
 441              		@ args = 4, pretend = 0, frame = 32
 442              		@ frame_needed = 0, uses_anonymous_args = 0
 443              		.loc 7 440 10 is_stmt 0 view .LVU86
 444 0000 2DE9F04F 		push	{r4, r5, r6, r7, r8, r9, r10, fp, lr}
 445              		.cfi_def_cfa_offset 36
 446              		.cfi_offset 4, -36
 447              		.cfi_offset 5, -32
 448              		.cfi_offset 6, -28
 449              		.cfi_offset 7, -24
 450              		.cfi_offset 8, -20
 451              		.cfi_offset 9, -16
 452              		.cfi_offset 10, -12
 453              		.cfi_offset 11, -8
 454              		.cfi_offset 14, -4
 455 0004 89B0     		sub	sp, sp, #36
 456              		.cfi_def_cfa_offset 72
 457              		.loc 7 440 10 view .LVU87
 458 0006 08AC     		add	r4, sp, #32
 459 0008 9DF84870 		ldrb	r7, [sp, #72]	@ zero_extendqisi2
 460 000c 0191     		str	r1, [sp, #4]
ARM GAS  /tmp/ccZePa4k.s 			page 29


 461 000e 04E90C00 		stmdb	r4, {r2, r3}
 441:../../libDaisy//src/hid/disp/display.h ****     {
 442:../../libDaisy//src/hid/disp/display.h ****         // Write until null-byte
 443:../../libDaisy//src/hid/disp/display.h ****         while(*str)
 462              		.loc 7 443 9 is_stmt 1 view .LVU88
 463 0012 0B78     		ldrb	r3, [r1]	@ zero_extendqisi2
 464 0014 002B     		cmp	r3, #0
 465 0016 00F0AB80 		beq	.L37
 466 001a 1A46     		mov	r2, r3
 467 001c 9DF81880 		ldrb	r8, [sp, #24]	@ zero_extendqisi2
 468 0020 9DF81930 		ldrb	r3, [sp, #25]	@ zero_extendqisi2
 469 0024 0646     		mov	r6, r0
 470 0026 4546     		mov	r5, r8
 471 0028 9046     		mov	r8, r2
 472 002a 0393     		str	r3, [sp, #12]
 473 002c 079B     		ldr	r3, [sp, #28]
 474 002e 0593     		str	r3, [sp, #20]
 475              	.LVL29:
 476              	.L38:
 477              	.LBB392:
 478              	.LBI392:
 396:../../libDaisy//src/hid/disp/display.h ****     {
 479              		.loc 7 396 10 view .LVU89
 480              	.LBB393:
 401:../../libDaisy//src/hid/disp/display.h ****             return 0;
 481              		.loc 7 401 20 is_stmt 0 view .LVU90
 482 0030 A8F12004 		sub	r4, r8, #32
 401:../../libDaisy//src/hid/disp/display.h ****             return 0;
 483              		.loc 7 401 9 view .LVU91
 484 0034 E3B2     		uxtb	r3, r4
 485 0036 5E2B     		cmp	r3, #94
 486 0038 00F29E80 		bhi	.L19
 405:../../libDaisy//src/hid/disp/display.h ****            || Height() < (currentY_ + font.FontHeight))
 487              		.loc 7 405 17 view .LVU92
 488 003c 3368     		ldr	r3, [r6]
 489 003e 5E4A     		ldr	r2, .L59
 490 0040 DB68     		ldr	r3, [r3, #12]
 491 0042 9342     		cmp	r3, r2
 492 0044 40F09B80 		bne	.L52
 493 0048 8020     		movs	r0, #128
 494              	.L18:
 405:../../libDaisy//src/hid/disp/display.h ****            || Height() < (currentY_ + font.FontHeight))
 495              		.loc 7 405 23 view .LVU93
 496 004a B388     		ldrh	r3, [r6, #4]
 405:../../libDaisy//src/hid/disp/display.h ****            || Height() < (currentY_ + font.FontHeight))
 497              		.loc 7 405 33 view .LVU94
 498 004c 2B44     		add	r3, r3, r5
 406:../../libDaisy//src/hid/disp/display.h ****         {
 499              		.loc 7 406 12 view .LVU95
 500 004e 8342     		cmp	r3, r0
 501 0050 00F39280 		bgt	.L19
 406:../../libDaisy//src/hid/disp/display.h ****         {
 502              		.loc 7 406 21 view .LVU96
 503 0054 3368     		ldr	r3, [r6]
 504 0056 594A     		ldr	r2, .L59+4
 505 0058 9B68     		ldr	r3, [r3, #8]
 506 005a 9342     		cmp	r3, r2
ARM GAS  /tmp/ccZePa4k.s 			page 30


 507 005c 40F09280 		bne	.L53
 508 0060 4020     		movs	r0, #64
 509              	.L20:
 406:../../libDaisy//src/hid/disp/display.h ****         {
 510              		.loc 7 406 27 view .LVU97
 511 0062 F188     		ldrh	r1, [r6, #6]
 406:../../libDaisy//src/hid/disp/display.h ****         {
 512              		.loc 7 406 37 view .LVU98
 513 0064 039A     		ldr	r2, [sp, #12]
 406:../../libDaisy//src/hid/disp/display.h ****         {
 514              		.loc 7 406 27 view .LVU99
 515 0066 0291     		str	r1, [sp, #8]
 406:../../libDaisy//src/hid/disp/display.h ****         {
 516              		.loc 7 406 37 view .LVU100
 517 0068 8B18     		adds	r3, r1, r2
 406:../../libDaisy//src/hid/disp/display.h ****         {
 518              		.loc 7 406 12 view .LVU101
 519 006a 8342     		cmp	r3, r0
 520 006c 00F38480 		bgt	.L19
 521              	.LVL30:
 413:../../libDaisy//src/hid/disp/display.h ****         {
 522              		.loc 7 413 22 is_stmt 1 view .LVU102
 523 0070 002A     		cmp	r2, #0
 524 0072 00F09180 		beq	.L21
 415:../../libDaisy//src/hid/disp/display.h ****             for(j = 0; j < font.FontWidth; j++)
 525              		.loc 7 415 37 is_stmt 0 view .LVU103
 526 0076 02FB04F4 		mul	r4, r2, r4
 527 007a 6FF00049 		mvn	r9, #-2147483648
 528 007e 059B     		ldr	r3, [sp, #20]
 529 0080 A144     		add	r9, r9, r4
 530 0082 1444     		add	r4, r4, r2
 434:../../libDaisy//src/hid/disp/display.h **** 
 531              		.loc 7 434 19 view .LVU104
 532 0084 B6F804B0 		ldrh	fp, [r6, #4]
 533 0088 03EB4909 		add	r9, r3, r9, lsl #1
 534 008c 023B     		subs	r3, r3, #2
 535 008e CDF81080 		str	r8, [sp, #16]
 536 0092 03EB4403 		add	r3, r3, r4, lsl #1
 537 0096 0C46     		mov	r4, r1
 538 0098 9A46     		mov	r10, r3
 539              	.LVL31:
 540              	.L24:
 415:../../libDaisy//src/hid/disp/display.h ****             for(j = 0; j < font.FontWidth; j++)
 541              		.loc 7 415 15 view .LVU105
 542 009a 39F802CF 		ldrh	ip, [r9, #2]!
 543              	.LVL32:
 416:../../libDaisy//src/hid/disp/display.h ****             {
 544              		.loc 7 416 26 is_stmt 1 view .LVU106
 545 009e A5B3     		cbz	r5, .L29
 546              	.LBB394:
 547              	.LBB395:
 548              	.LBB396:
 549              	.LBB397:
 550              	.LBB398:
 259:../../libDaisy//src/dev/oled_ssd130x.h ****     }
 551              		.loc 8 259 55 is_stmt 0 view .LVU107
 552 00a0 04F00703 		and	r3, r4, #7
ARM GAS  /tmp/ccZePa4k.s 			page 31


 259:../../libDaisy//src/dev/oled_ssd130x.h ****     }
 553              		.loc 8 259 49 view .LVU108
 554 00a4 4FF0010E 		mov	lr, #1
 259:../../libDaisy//src/dev/oled_ssd130x.h ****     }
 555              		.loc 8 259 28 view .LVU109
 556 00a8 E208     		lsrs	r2, r4, #3
 557 00aa 5946     		mov	r1, fp
 259:../../libDaisy//src/dev/oled_ssd130x.h ****     }
 558              		.loc 8 259 49 view .LVU110
 559 00ac 0EFA03FE 		lsl	lr, lr, r3
 560 00b0 0BF11403 		add	r3, fp, #20
 259:../../libDaisy//src/dev/oled_ssd130x.h ****     }
 561              		.loc 8 259 42 view .LVU111
 562 00b4 4FFA8EFE 		sxtb	lr, lr
 563 00b8 03EBC212 		add	r2, r3, r2, lsl #7
 564              	.LBE398:
 565              	.LBE397:
 566              	.LBE396:
 567              	.LBE395:
 568              	.LBE394:
 416:../../libDaisy//src/hid/disp/display.h ****             {
 569              		.loc 7 416 19 view .LVU112
 570 00bc 0023     		movs	r3, #0
 571              	.LBB416:
 572              	.LBB411:
 573              	.LBB406:
 574              	.LBB402:
 575              	.LBB399:
 259:../../libDaisy//src/dev/oled_ssd130x.h ****     }
 576              		.loc 8 259 42 view .LVU113
 577 00be 6FEA0E08 		mvn	r8, lr
 578 00c2 3244     		add	r2, r2, r6
 579 00c4 0DE0     		b	.L30
 580              	.LVL33:
 581              	.L54:
 259:../../libDaisy//src/dev/oled_ssd130x.h ****     }
 582              		.loc 8 259 42 view .LVU114
 583              	.LBE399:
 584              	.LBE402:
 585              	.LBE406:
 586              	.LBE411:
 587              	.LBE416:
 588              	.LBB417:
 589              	.LBI417:
  42:../../libDaisy//src/hid/disp/oled_display.h ****     {
 590              		.loc 6 42 10 is_stmt 1 view .LVU115
 591              	.LBB418:
 592              	.LBI418:
 252:../../libDaisy//src/dev/oled_ssd130x.h ****     {
 593              		.loc 8 252 10 view .LVU116
 594              	.LBB419:
 254:../../libDaisy//src/dev/oled_ssd130x.h ****             return;
 595              		.loc 8 254 9 is_stmt 0 view .LVU117
 596 00c6 7F29     		cmp	r1, #127
 597 00c8 06D8     		bhi	.L26
 598 00ca 3F2C     		cmp	r4, #63
 599 00cc 04D8     		bhi	.L26
ARM GAS  /tmp/ccZePa4k.s 			page 32


 257:../../libDaisy//src/dev/oled_ssd130x.h ****         else
 600              		.loc 8 257 42 view .LVU118
 601 00ce 1078     		ldrb	r0, [r2]	@ zero_extendqisi2
 256:../../libDaisy//src/dev/oled_ssd130x.h ****             buffer_[x + (y / 8) * width] |= (1 << (y % 8));
 602              		.loc 8 256 9 view .LVU119
 603 00d0 97B1     		cbz	r7, .L28
 604              	.L51:
 256:../../libDaisy//src/dev/oled_ssd130x.h ****             buffer_[x + (y / 8) * width] |= (1 << (y % 8));
 605              		.loc 8 256 9 view .LVU120
 606              	.LBE419:
 607              	.LBE418:
 608              	.LBE417:
 609              	.LBB420:
 610              	.LBB412:
 611              	.LBB407:
 257:../../libDaisy//src/dev/oled_ssd130x.h ****         else
 612              		.loc 8 257 42 view .LVU121
 613 00d2 4EEA0000 		orr	r0, lr, r0
 614 00d6 1070     		strb	r0, [r2]
 615              	.L26:
 616              	.LBE407:
 617              	.LBE412:
 618              	.LBE420:
 416:../../libDaisy//src/hid/disp/display.h ****             {
 619              		.loc 7 416 13 is_stmt 1 view .LVU122
 620 00d8 0133     		adds	r3, r3, #1
 621              	.LVL34:
 416:../../libDaisy//src/hid/disp/display.h ****             {
 622              		.loc 7 416 26 view .LVU123
 623 00da 0132     		adds	r2, r2, #1
 624 00dc 0131     		adds	r1, r1, #1
 625 00de AB42     		cmp	r3, r5
 626 00e0 13D0     		beq	.L29
 627              	.LVL35:
 628              	.L30:
 418:../../libDaisy//src/hid/disp/display.h ****                 {
 629              		.loc 7 418 23 is_stmt 0 view .LVU124
 630 00e2 0CFA03F0 		lsl	r0, ip, r3
 418:../../libDaisy//src/hid/disp/display.h ****                 {
 631              		.loc 7 418 17 view .LVU125
 632 00e6 0004     		lsls	r0, r0, #16
 633 00e8 EDD4     		bmi	.L54
 634              	.LVL36:
 635              	.LBB421:
 636              	.LBI394:
  42:../../libDaisy//src/hid/disp/oled_display.h ****     {
 637              		.loc 6 42 10 is_stmt 1 view .LVU126
 638              	.LBB413:
 639              	.LBI395:
 252:../../libDaisy//src/dev/oled_ssd130x.h ****     {
 640              		.loc 8 252 10 view .LVU127
 641              	.LBB408:
 254:../../libDaisy//src/dev/oled_ssd130x.h ****             return;
 642              		.loc 8 254 9 is_stmt 0 view .LVU128
 643 00ea 7F29     		cmp	r1, #127
 644 00ec F4D8     		bhi	.L26
 645 00ee 3F2C     		cmp	r4, #63
ARM GAS  /tmp/ccZePa4k.s 			page 33


 646 00f0 F2D8     		bhi	.L26
 257:../../libDaisy//src/dev/oled_ssd130x.h ****         else
 647              		.loc 8 257 42 view .LVU129
 648 00f2 1078     		ldrb	r0, [r2]	@ zero_extendqisi2
 256:../../libDaisy//src/dev/oled_ssd130x.h ****             buffer_[x + (y / 8) * width] |= (1 << (y % 8));
 649              		.loc 8 256 9 view .LVU130
 650 00f4 002F     		cmp	r7, #0
 651 00f6 ECD0     		beq	.L51
 652              	.L28:
 653              	.LVL37:
 654              	.LBB403:
 655              	.LBI397:
 252:../../libDaisy//src/dev/oled_ssd130x.h ****     {
 656              		.loc 8 252 10 is_stmt 1 view .LVU131
 252:../../libDaisy//src/dev/oled_ssd130x.h ****     {
 657              		.loc 8 252 10 is_stmt 0 view .LVU132
 658              	.LBE403:
 659              	.LBE408:
 660              	.LBE413:
 661              	.LBE421:
 416:../../libDaisy//src/hid/disp/display.h ****             {
 662              		.loc 7 416 13 view .LVU133
 663 00f8 0133     		adds	r3, r3, #1
 664              	.LVL38:
 665              	.LBB422:
 666              	.LBB414:
 667              	.LBB409:
 668              	.LBB404:
 669              	.LBB400:
 259:../../libDaisy//src/dev/oled_ssd130x.h ****     }
 670              		.loc 8 259 42 view .LVU134
 671 00fa 08EA0000 		and	r0, r8, r0
 672              	.LBE400:
 673              	.LBE404:
 674              	.LBE409:
 675              	.LBE414:
 676              	.LBE422:
 416:../../libDaisy//src/hid/disp/display.h ****             {
 677              		.loc 7 416 26 view .LVU135
 678 00fe 0132     		adds	r2, r2, #1
 679 0100 0131     		adds	r1, r1, #1
 680 0102 AB42     		cmp	r3, r5
 681              	.LBB423:
 682              	.LBB415:
 683              	.LBB410:
 684              	.LBB405:
 685              	.LBB401:
 259:../../libDaisy//src/dev/oled_ssd130x.h ****     }
 686              		.loc 8 259 42 view .LVU136
 687 0104 02F8010C 		strb	r0, [r2, #-1]
 259:../../libDaisy//src/dev/oled_ssd130x.h ****     }
 688              		.loc 8 259 42 view .LVU137
 689              	.LBE401:
 690              	.LBE405:
 691              	.LBE410:
 692              	.LBE415:
 693              	.LBE423:
ARM GAS  /tmp/ccZePa4k.s 			page 34


 416:../../libDaisy//src/hid/disp/display.h ****             {
 694              		.loc 7 416 13 is_stmt 1 view .LVU138
 695              	.LVL39:
 416:../../libDaisy//src/hid/disp/display.h ****             {
 696              		.loc 7 416 26 view .LVU139
 697 0108 EBD1     		bne	.L30
 698              	.LVL40:
 699              	.L29:
 413:../../libDaisy//src/hid/disp/display.h ****         {
 700              		.loc 7 413 9 view .LVU140
 413:../../libDaisy//src/hid/disp/display.h ****         {
 701              		.loc 7 413 22 view .LVU141
 702 010a D145     		cmp	r9, r10
 703 010c 04F10104 		add	r4, r4, #1
 704 0110 C3D1     		bne	.L24
 705 0112 DDF81080 		ldr	r8, [sp, #16]
 706              	.LVL41:
 707              	.L23:
 708              	.LBB424:
 709              	.LBB425:
 173:../../libDaisy//src/hid/disp/display.h ****         currentY_ = (y >= Height()) ? Height() - 1 : y;
 710              		.loc 7 173 33 is_stmt 0 view .LVU142
 711 0116 3268     		ldr	r2, [r6]
 712              	.LBE425:
 713              	.LBE424:
 434:../../libDaisy//src/hid/disp/display.h **** 
 714              		.loc 7 434 18 view .LVU143
 715 0118 0BEB0504 		add	r4, fp, r5
 716 011c 2649     		ldr	r1, .L59
 717              	.LBB430:
 718              	.LBB426:
 173:../../libDaisy//src/hid/disp/display.h ****         currentY_ = (y >= Height()) ? Height() - 1 : y;
 719              		.loc 7 173 33 view .LVU144
 720 011e D368     		ldr	r3, [r2, #12]
 721              	.LBE426:
 722              	.LBE430:
 434:../../libDaisy//src/hid/disp/display.h **** 
 723              		.loc 7 434 18 view .LVU145
 724 0120 A4B2     		uxth	r4, r4
 725              	.LVL42:
 726              	.LBB431:
 727              	.LBI424:
 171:../../libDaisy//src/hid/disp/display.h ****     {
 728              		.loc 7 171 10 is_stmt 1 view .LVU146
 729              	.LBB427:
 173:../../libDaisy//src/hid/disp/display.h ****         currentY_ = (y >= Height()) ? Height() - 1 : y;
 730              		.loc 7 173 9 view .LVU147
 731 0122 8B42     		cmp	r3, r1
 732 0124 34D1     		bne	.L55
 173:../../libDaisy//src/hid/disp/display.h ****         currentY_ = (y >= Height()) ? Height() - 1 : y;
 733              		.loc 7 173 33 is_stmt 0 view .LVU148
 734 0126 8020     		movs	r0, #128
 735              	.L31:
 173:../../libDaisy//src/hid/disp/display.h ****         currentY_ = (y >= Height()) ? Height() - 1 : y;
 736              		.loc 7 173 19 view .LVU149
 737 0128 8442     		cmp	r4, r0
 738 012a 04D3     		bcc	.L32
ARM GAS  /tmp/ccZePa4k.s 			page 35


 173:../../libDaisy//src/hid/disp/display.h ****         currentY_ = (y >= Height()) ? Height() - 1 : y;
 739              		.loc 7 173 44 view .LVU150
 740 012c D368     		ldr	r3, [r2, #12]
 741 012e 2249     		ldr	r1, .L59
 742 0130 8B42     		cmp	r3, r1
 743 0132 3AD1     		bne	.L56
 744 0134 7F24     		movs	r4, #127
 745              	.LVL43:
 746              	.L32:
 174:../../libDaisy//src/hid/disp/display.h ****     }
 747              		.loc 7 174 34 view .LVU151
 748 0136 9368     		ldr	r3, [r2, #8]
 749 0138 204A     		ldr	r2, .L59+4
 173:../../libDaisy//src/hid/disp/display.h ****         currentY_ = (y >= Height()) ? Height() - 1 : y;
 750              		.loc 7 173 19 view .LVU152
 751 013a B480     		strh	r4, [r6, #4]	@ movhi
 174:../../libDaisy//src/hid/disp/display.h ****     }
 752              		.loc 7 174 9 is_stmt 1 view .LVU153
 753 013c 9342     		cmp	r3, r2
 754 013e 24D1     		bne	.L57
 174:../../libDaisy//src/hid/disp/display.h ****     }
 755              		.loc 7 174 34 is_stmt 0 view .LVU154
 756 0140 4020     		movs	r0, #64
 757              	.L34:
 174:../../libDaisy//src/hid/disp/display.h ****     }
 758              		.loc 7 174 19 view .LVU155
 759 0142 029B     		ldr	r3, [sp, #8]
 760 0144 8342     		cmp	r3, r0
 761 0146 06D3     		bcc	.L35
 174:../../libDaisy//src/hid/disp/display.h ****     }
 762              		.loc 7 174 46 view .LVU156
 763 0148 3368     		ldr	r3, [r6]
 764 014a 1C4A     		ldr	r2, .L59+4
 765 014c 9B68     		ldr	r3, [r3, #8]
 766 014e 9342     		cmp	r3, r2
 767 0150 25D1     		bne	.L58
 768 0152 3F23     		movs	r3, #63
 769 0154 0293     		str	r3, [sp, #8]
 770              	.LVL44:
 771              	.L35:
 174:../../libDaisy//src/hid/disp/display.h ****     }
 772              		.loc 7 174 19 view .LVU157
 773 0156 029B     		ldr	r3, [sp, #8]
 774 0158 F380     		strh	r3, [r6, #6]	@ movhi
 775              	.LVL45:
 776              	.L17:
 174:../../libDaisy//src/hid/disp/display.h ****     }
 777              		.loc 7 174 19 view .LVU158
 778              	.LBE427:
 779              	.LBE431:
 780              	.LBE393:
 781              	.LBE392:
 444:../../libDaisy//src/hid/disp/display.h ****         {
 445:../../libDaisy//src/hid/disp/display.h ****             if(((ChildType*)(this))->ChildType::WriteChar(*str, font, on)
 446:../../libDaisy//src/hid/disp/display.h ****                != *str)
 782              		.loc 7 446 16 view .LVU159
 783 015a 019B     		ldr	r3, [sp, #4]
ARM GAS  /tmp/ccZePa4k.s 			page 36


 784 015c 1878     		ldrb	r0, [r3]	@ zero_extendqisi2
 445:../../libDaisy//src/hid/disp/display.h ****                != *str)
 785              		.loc 7 445 13 view .LVU160
 786 015e 4045     		cmp	r0, r8
 787 0160 07D1     		bne	.L15
 788              	.LVL46:
 443:../../libDaisy//src/hid/disp/display.h ****         {
 789              		.loc 7 443 9 is_stmt 1 view .LVU161
 790 0162 13F8018F 		ldrb	r8, [r3, #1]!	@ zero_extendqisi2
 791              	.LVL47:
 443:../../libDaisy//src/hid/disp/display.h ****         {
 792              		.loc 7 443 9 is_stmt 0 view .LVU162
 793 0166 0193     		str	r3, [sp, #4]
 794 0168 B8F1000F 		cmp	r8, #0
 795 016c 7FF460AF 		bne	.L38
 796              	.LVL48:
 797              	.L37:
 798              	.LBB436:
 799              	.LBB434:
 402:../../libDaisy//src/hid/disp/display.h **** 
 800              		.loc 7 402 20 view .LVU163
 801 0170 0020     		movs	r0, #0
 802              	.L15:
 803              	.LBE434:
 804              	.LBE436:
 447:../../libDaisy//src/hid/disp/display.h ****             {
 448:../../libDaisy//src/hid/disp/display.h ****                 // Char could not be written
 449:../../libDaisy//src/hid/disp/display.h ****                 return *str;
 450:../../libDaisy//src/hid/disp/display.h ****             }
 451:../../libDaisy//src/hid/disp/display.h **** 
 452:../../libDaisy//src/hid/disp/display.h ****             // Next char
 453:../../libDaisy//src/hid/disp/display.h ****             str++;
 454:../../libDaisy//src/hid/disp/display.h ****         }
 455:../../libDaisy//src/hid/disp/display.h **** 
 456:../../libDaisy//src/hid/disp/display.h ****         // Everything ok
 457:../../libDaisy//src/hid/disp/display.h ****         return *str;
 458:../../libDaisy//src/hid/disp/display.h ****     }
 805              		.loc 7 458 5 view .LVU164
 806 0172 09B0     		add	sp, sp, #36
 807              		.cfi_remember_state
 808              		.cfi_def_cfa_offset 36
 809              		@ sp needed
 810 0174 BDE8F08F 		pop	{r4, r5, r6, r7, r8, r9, r10, fp, pc}
 811              	.LVL49:
 812              	.L19:
 813              		.cfi_restore_state
 814              	.LBB437:
 815              	.LBB435:
 402:../../libDaisy//src/hid/disp/display.h **** 
 816              		.loc 7 402 20 view .LVU165
 817 0178 4FF00008 		mov	r8, #0
 818              	.LVL50:
 402:../../libDaisy//src/hid/disp/display.h **** 
 819              		.loc 7 402 20 view .LVU166
 820 017c EDE7     		b	.L17
 821              	.LVL51:
 822              	.L52:
ARM GAS  /tmp/ccZePa4k.s 			page 37


 405:../../libDaisy//src/hid/disp/display.h ****            || Height() < (currentY_ + font.FontHeight))
 823              		.loc 7 405 17 view .LVU167
 824 017e 3046     		mov	r0, r6
 825 0180 9847     		blx	r3
 826              	.LVL52:
 827 0182 62E7     		b	.L18
 828              	.L53:
 406:../../libDaisy//src/hid/disp/display.h ****         {
 829              		.loc 7 406 21 view .LVU168
 830 0184 3046     		mov	r0, r6
 831 0186 9847     		blx	r3
 832              	.LVL53:
 833 0188 6BE7     		b	.L20
 834              	.LVL54:
 835              	.L57:
 836              	.LBB432:
 837              	.LBB428:
 174:../../libDaisy//src/hid/disp/display.h ****     }
 838              		.loc 7 174 33 view .LVU169
 839 018a 3046     		mov	r0, r6
 840 018c 9847     		blx	r3
 841              	.LVL55:
 842 018e D8E7     		b	.L34
 843              	.LVL56:
 844              	.L55:
 173:../../libDaisy//src/hid/disp/display.h ****         currentY_ = (y >= Height()) ? Height() - 1 : y;
 845              		.loc 7 173 32 view .LVU170
 846 0190 3046     		mov	r0, r6
 847 0192 9847     		blx	r3
 848              	.LVL57:
 173:../../libDaisy//src/hid/disp/display.h ****         currentY_ = (y >= Height()) ? Height() - 1 : y;
 849              		.loc 7 173 44 view .LVU171
 850 0194 3268     		ldr	r2, [r6]
 851 0196 C7E7     		b	.L31
 852              	.LVL58:
 853              	.L21:
 173:../../libDaisy//src/hid/disp/display.h ****         currentY_ = (y >= Height()) ? Height() - 1 : y;
 854              		.loc 7 173 44 view .LVU172
 855              	.LBE428:
 856              	.LBE432:
 434:../../libDaisy//src/hid/disp/display.h **** 
 857              		.loc 7 434 19 view .LVU173
 858 0198 B6F804B0 		ldrh	fp, [r6, #4]
 859 019c BBE7     		b	.L23
 860              	.LVL59:
 861              	.L58:
 862              	.LBB433:
 863              	.LBB429:
 174:../../libDaisy//src/hid/disp/display.h ****     }
 864              		.loc 7 174 45 view .LVU174
 865 019e 3046     		mov	r0, r6
 866 01a0 9847     		blx	r3
 867              	.LVL60:
 174:../../libDaisy//src/hid/disp/display.h ****     }
 868              		.loc 7 174 19 view .LVU175
 869 01a2 0138     		subs	r0, r0, #1
 870 01a4 83B2     		uxth	r3, r0
ARM GAS  /tmp/ccZePa4k.s 			page 38


 871 01a6 0293     		str	r3, [sp, #8]
 872              	.LVL61:
 174:../../libDaisy//src/hid/disp/display.h ****     }
 873              		.loc 7 174 19 view .LVU176
 874 01a8 D5E7     		b	.L35
 875              	.LVL62:
 876              	.L56:
 173:../../libDaisy//src/hid/disp/display.h ****         currentY_ = (y >= Height()) ? Height() - 1 : y;
 877              		.loc 7 173 43 view .LVU177
 878 01aa 3046     		mov	r0, r6
 879 01ac 9847     		blx	r3
 880              	.LVL63:
 173:../../libDaisy//src/hid/disp/display.h ****         currentY_ = (y >= Height()) ? Height() - 1 : y;
 881              		.loc 7 173 19 view .LVU178
 882 01ae 0138     		subs	r0, r0, #1
 174:../../libDaisy//src/hid/disp/display.h ****     }
 883              		.loc 7 174 34 view .LVU179
 884 01b0 3268     		ldr	r2, [r6]
 173:../../libDaisy//src/hid/disp/display.h ****         currentY_ = (y >= Height()) ? Height() - 1 : y;
 885              		.loc 7 173 19 view .LVU180
 886 01b2 84B2     		uxth	r4, r0
 887              	.LVL64:
 173:../../libDaisy//src/hid/disp/display.h ****         currentY_ = (y >= Height()) ? Height() - 1 : y;
 888              		.loc 7 173 19 view .LVU181
 889 01b4 BFE7     		b	.L32
 890              	.L60:
 891 01b6 00BF     		.align	2
 892              	.L59:
 893 01b8 00000000 		.word	_ZNK5daisy11OledDisplayINS_13SSD130xDriverILj128ELj64ENS_24SSD130x4WireSpiTransportEEEE5Widt
 894 01bc 00000000 		.word	_ZNK5daisy11OledDisplayINS_13SSD130xDriverILj128ELj64ENS_24SSD130x4WireSpiTransportEEEE6Heig
 895              	.LBE429:
 896              	.LBE433:
 897              	.LBE435:
 898              	.LBE437:
 899              		.cfi_endproc
 900              	.LFE2606:
 902              		.section	.text._ZN5daisy25OneBitGraphicsDisplayImplINS_11OledDisplayINS_13SSD130xDriverILj128ELj64
 903              		.align	1
 904              		.p2align 2,,3
 905              		.weak	_ZN5daisy25OneBitGraphicsDisplayImplINS_11OledDisplayINS_13SSD130xDriverILj128ELj64ENS_24SSD
 906              		.syntax unified
 907              		.thumb
 908              		.thumb_func
 910              	_ZN5daisy25OneBitGraphicsDisplayImplINS_11OledDisplayINS_13SSD130xDriverILj128ELj64ENS_24SSD130x4Wi
 911              	.LVL65:
 912              	.LFB2605:
 396:../../libDaisy//src/hid/disp/display.h ****     {
 913              		.loc 7 396 10 is_stmt 1 view -0
 914              		.cfi_startproc
 915              		@ args = 4, pretend = 0, frame = 16
 916              		@ frame_needed = 0, uses_anonymous_args = 0
 396:../../libDaisy//src/hid/disp/display.h ****     {
 917              		.loc 7 396 10 is_stmt 0 view .LVU183
 918 0000 2DE9F04F 		push	{r4, r5, r6, r7, r8, r9, r10, fp, lr}
 919              		.cfi_def_cfa_offset 36
 920              		.cfi_offset 4, -36
 921              		.cfi_offset 5, -32
ARM GAS  /tmp/ccZePa4k.s 			page 39


 922              		.cfi_offset 6, -28
 923              		.cfi_offset 7, -24
 924              		.cfi_offset 8, -20
 925              		.cfi_offset 9, -16
 926              		.cfi_offset 10, -12
 927              		.cfi_offset 11, -8
 928              		.cfi_offset 14, -4
 929 0004 85B0     		sub	sp, sp, #20
 930              		.cfi_def_cfa_offset 56
 931              	.LVL66:
 401:../../libDaisy//src/hid/disp/display.h ****             return 0;
 932              		.loc 7 401 20 view .LVU184
 933 0006 A1F12005 		sub	r5, r1, #32
 396:../../libDaisy//src/hid/disp/display.h ****     {
 934              		.loc 7 396 10 view .LVU185
 935 000a 04AC     		add	r4, sp, #16
 936 000c 9DF83870 		ldrb	r7, [sp, #56]	@ zero_extendqisi2
 937 0010 0091     		str	r1, [sp]
 938 0012 04E90C00 		stmdb	r4, {r2, r3}
 939              	.LVL67:
 401:../../libDaisy//src/hid/disp/display.h ****             return 0;
 940              		.loc 7 401 9 view .LVU186
 941 0016 EBB2     		uxtb	r3, r5
 942 0018 5E2B     		cmp	r3, #94
 943 001a 00F29580 		bhi	.L65
 405:../../libDaisy//src/hid/disp/display.h ****            || Height() < (currentY_ + font.FontHeight))
 944              		.loc 7 405 17 view .LVU187
 945 001e 0368     		ldr	r3, [r0]
 946 0020 8046     		mov	r8, r0
 947 0022 5D4A     		ldr	r2, .L100
 948 0024 DB68     		ldr	r3, [r3, #12]
 949 0026 9DF80840 		ldrb	r4, [sp, #8]	@ zero_extendqisi2
 950 002a 9342     		cmp	r3, r2
 951 002c 9DF80960 		ldrb	r6, [sp, #9]	@ zero_extendqisi2
 952 0030 40F09480 		bne	.L92
 953 0034 8020     		movs	r0, #128
 954              	.LVL68:
 955              	.L64:
 405:../../libDaisy//src/hid/disp/display.h ****            || Height() < (currentY_ + font.FontHeight))
 956              		.loc 7 405 23 view .LVU188
 957 0036 B8F80430 		ldrh	r3, [r8, #4]
 405:../../libDaisy//src/hid/disp/display.h ****            || Height() < (currentY_ + font.FontHeight))
 958              		.loc 7 405 33 view .LVU189
 959 003a 2344     		add	r3, r3, r4
 406:../../libDaisy//src/hid/disp/display.h ****         {
 960              		.loc 7 406 12 view .LVU190
 961 003c 8342     		cmp	r3, r0
 962 003e 00F38380 		bgt	.L65
 406:../../libDaisy//src/hid/disp/display.h ****         {
 963              		.loc 7 406 21 discriminator 2 view .LVU191
 964 0042 D8F80030 		ldr	r3, [r8]
 965 0046 554A     		ldr	r2, .L100+4
 966 0048 9B68     		ldr	r3, [r3, #8]
 967 004a 9342     		cmp	r3, r2
 968 004c 40F08880 		bne	.L93
 406:../../libDaisy//src/hid/disp/display.h ****         {
 969              		.loc 7 406 21 view .LVU192
ARM GAS  /tmp/ccZePa4k.s 			page 40


 970 0050 4020     		movs	r0, #64
 971              	.L66:
 406:../../libDaisy//src/hid/disp/display.h ****         {
 972              		.loc 7 406 27 discriminator 2 view .LVU193
 973 0052 B8F80620 		ldrh	r2, [r8, #6]
 406:../../libDaisy//src/hid/disp/display.h ****         {
 974              		.loc 7 406 37 discriminator 2 view .LVU194
 975 0056 9319     		adds	r3, r2, r6
 406:../../libDaisy//src/hid/disp/display.h ****         {
 976              		.loc 7 406 27 discriminator 2 view .LVU195
 977 0058 0192     		str	r2, [sp, #4]
 406:../../libDaisy//src/hid/disp/display.h ****         {
 978              		.loc 7 406 12 discriminator 2 view .LVU196
 979 005a 8342     		cmp	r3, r0
 980 005c 74DC     		bgt	.L65
 981              	.LVL69:
 413:../../libDaisy//src/hid/disp/display.h ****         {
 982              		.loc 7 413 22 is_stmt 1 view .LVU197
 983 005e 002E     		cmp	r6, #0
 984 0060 00F08980 		beq	.L67
 415:../../libDaisy//src/hid/disp/display.h ****             for(j = 0; j < font.FontWidth; j++)
 985              		.loc 7 415 37 is_stmt 0 view .LVU198
 986 0064 06FB05F5 		mul	r5, r6, r5
 987 0068 6FF00040 		mvn	r0, #-2147483648
 415:../../libDaisy//src/hid/disp/display.h ****             for(j = 0; j < font.FontWidth; j++)
 988              		.loc 7 415 22 view .LVU199
 989 006c 039B     		ldr	r3, [sp, #12]
 990 006e 9646     		mov	lr, r2
 991 0070 2844     		add	r0, r0, r5
 992 0072 2E44     		add	r6, r6, r5
 434:../../libDaisy//src/hid/disp/display.h **** 
 993              		.loc 7 434 19 view .LVU200
 994 0074 B8F804A0 		ldrh	r10, [r8, #4]
 995 0078 03EB4000 		add	r0, r3, r0, lsl #1
 996 007c 023B     		subs	r3, r3, #2
 997 007e 03EB460B 		add	fp, r3, r6, lsl #1
 998              	.LVL70:
 999              	.L70:
 415:../../libDaisy//src/hid/disp/display.h ****             for(j = 0; j < font.FontWidth; j++)
 1000              		.loc 7 415 15 view .LVU201
 1001 0082 30F8026F 		ldrh	r6, [r0, #2]!
 1002              	.LVL71:
 416:../../libDaisy//src/hid/disp/display.h ****             {
 1003              		.loc 7 416 26 is_stmt 1 view .LVU202
 1004 0086 BCB3     		cbz	r4, .L75
 1005              	.LBB468:
 1006              	.LBB469:
 1007              	.LBB470:
 1008              	.LBB471:
 1009              	.LBB472:
 259:../../libDaisy//src/dev/oled_ssd130x.h ****     }
 1010              		.loc 8 259 55 is_stmt 0 view .LVU203
 1011 0088 0EF00703 		and	r3, lr, #7
 259:../../libDaisy//src/dev/oled_ssd130x.h ****     }
 1012              		.loc 8 259 49 view .LVU204
 1013 008c 4FF0010C 		mov	ip, #1
 259:../../libDaisy//src/dev/oled_ssd130x.h ****     }
ARM GAS  /tmp/ccZePa4k.s 			page 41


 1014              		.loc 8 259 28 view .LVU205
 1015 0090 4FEADE02 		lsr	r2, lr, #3
 1016 0094 5146     		mov	r1, r10
 259:../../libDaisy//src/dev/oled_ssd130x.h ****     }
 1017              		.loc 8 259 49 view .LVU206
 1018 0096 0CFA03FC 		lsl	ip, ip, r3
 1019 009a 0AF11403 		add	r3, r10, #20
 259:../../libDaisy//src/dev/oled_ssd130x.h ****     }
 1020              		.loc 8 259 42 view .LVU207
 1021 009e 4FFA8CFC 		sxtb	ip, ip
 1022 00a2 03EBC212 		add	r2, r3, r2, lsl #7
 1023              	.LBE472:
 1024              	.LBE471:
 1025              	.LBE470:
 1026              	.LBE469:
 1027              	.LBE468:
 416:../../libDaisy//src/hid/disp/display.h ****             {
 1028              		.loc 7 416 19 view .LVU208
 1029 00a6 0023     		movs	r3, #0
 1030              	.LBB490:
 1031              	.LBB485:
 1032              	.LBB480:
 1033              	.LBB476:
 1034              	.LBB473:
 259:../../libDaisy//src/dev/oled_ssd130x.h ****     }
 1035              		.loc 8 259 42 view .LVU209
 1036 00a8 6FEA0C09 		mvn	r9, ip
 1037 00ac 4244     		add	r2, r2, r8
 1038 00ae 0EE0     		b	.L76
 1039              	.LVL72:
 1040              	.L94:
 259:../../libDaisy//src/dev/oled_ssd130x.h ****     }
 1041              		.loc 8 259 42 view .LVU210
 1042              	.LBE473:
 1043              	.LBE476:
 1044              	.LBE480:
 1045              	.LBE485:
 1046              	.LBE490:
 1047              	.LBB491:
 1048              	.LBI491:
  42:../../libDaisy//src/hid/disp/oled_display.h ****     {
 1049              		.loc 6 42 10 is_stmt 1 view .LVU211
 1050              	.LBB492:
 1051              	.LBI492:
 252:../../libDaisy//src/dev/oled_ssd130x.h ****     {
 1052              		.loc 8 252 10 view .LVU212
 1053              	.LBB493:
 254:../../libDaisy//src/dev/oled_ssd130x.h ****             return;
 1054              		.loc 8 254 9 is_stmt 0 view .LVU213
 1055 00b0 7F29     		cmp	r1, #127
 1056 00b2 07D8     		bhi	.L72
 1057 00b4 BEF13F0F 		cmp	lr, #63
 1058 00b8 04D8     		bhi	.L72
 257:../../libDaisy//src/dev/oled_ssd130x.h ****         else
 1059              		.loc 8 257 42 view .LVU214
 1060 00ba 1578     		ldrb	r5, [r2]	@ zero_extendqisi2
 256:../../libDaisy//src/dev/oled_ssd130x.h ****             buffer_[x + (y / 8) * width] |= (1 << (y % 8));
ARM GAS  /tmp/ccZePa4k.s 			page 42


 1061              		.loc 8 256 9 view .LVU215
 1062 00bc 9FB1     		cbz	r7, .L74
 1063              	.L91:
 256:../../libDaisy//src/dev/oled_ssd130x.h ****             buffer_[x + (y / 8) * width] |= (1 << (y % 8));
 1064              		.loc 8 256 9 view .LVU216
 1065              	.LBE493:
 1066              	.LBE492:
 1067              	.LBE491:
 1068              	.LBB494:
 1069              	.LBB486:
 1070              	.LBB481:
 257:../../libDaisy//src/dev/oled_ssd130x.h ****         else
 1071              		.loc 8 257 42 view .LVU217
 1072 00be 4CEA0505 		orr	r5, ip, r5
 1073 00c2 1570     		strb	r5, [r2]
 1074              	.L72:
 1075              	.LBE481:
 1076              	.LBE486:
 1077              	.LBE494:
 416:../../libDaisy//src/hid/disp/display.h ****             {
 1078              		.loc 7 416 13 is_stmt 1 discriminator 2 view .LVU218
 1079 00c4 0133     		adds	r3, r3, #1
 1080              	.LVL73:
 416:../../libDaisy//src/hid/disp/display.h ****             {
 1081              		.loc 7 416 26 discriminator 2 view .LVU219
 1082 00c6 0132     		adds	r2, r2, #1
 1083 00c8 0131     		adds	r1, r1, #1
 1084 00ca 9C42     		cmp	r4, r3
 1085 00cc 14D0     		beq	.L75
 1086              	.LVL74:
 1087              	.L76:
 418:../../libDaisy//src/hid/disp/display.h ****                 {
 1088              		.loc 7 418 23 is_stmt 0 view .LVU220
 1089 00ce 06FA03F5 		lsl	r5, r6, r3
 418:../../libDaisy//src/hid/disp/display.h ****                 {
 1090              		.loc 7 418 17 view .LVU221
 1091 00d2 2D04     		lsls	r5, r5, #16
 1092 00d4 ECD4     		bmi	.L94
 1093              	.LVL75:
 1094              	.LBB495:
 1095              	.LBI468:
  42:../../libDaisy//src/hid/disp/oled_display.h ****     {
 1096              		.loc 6 42 10 is_stmt 1 view .LVU222
 1097              	.LBB487:
 1098              	.LBI469:
 252:../../libDaisy//src/dev/oled_ssd130x.h ****     {
 1099              		.loc 8 252 10 view .LVU223
 1100              	.LBB482:
 254:../../libDaisy//src/dev/oled_ssd130x.h ****             return;
 1101              		.loc 8 254 9 is_stmt 0 view .LVU224
 1102 00d6 7F29     		cmp	r1, #127
 1103 00d8 F4D8     		bhi	.L72
 1104 00da BEF13F0F 		cmp	lr, #63
 1105 00de F1D8     		bhi	.L72
 257:../../libDaisy//src/dev/oled_ssd130x.h ****         else
 1106              		.loc 8 257 42 view .LVU225
 1107 00e0 1578     		ldrb	r5, [r2]	@ zero_extendqisi2
ARM GAS  /tmp/ccZePa4k.s 			page 43


 256:../../libDaisy//src/dev/oled_ssd130x.h ****             buffer_[x + (y / 8) * width] |= (1 << (y % 8));
 1108              		.loc 8 256 9 view .LVU226
 1109 00e2 002F     		cmp	r7, #0
 1110 00e4 EBD0     		beq	.L91
 1111              	.L74:
 1112              	.LVL76:
 1113              	.LBB477:
 1114              	.LBI471:
 252:../../libDaisy//src/dev/oled_ssd130x.h ****     {
 1115              		.loc 8 252 10 is_stmt 1 view .LVU227
 252:../../libDaisy//src/dev/oled_ssd130x.h ****     {
 1116              		.loc 8 252 10 is_stmt 0 view .LVU228
 1117              	.LBE477:
 1118              	.LBE482:
 1119              	.LBE487:
 1120              	.LBE495:
 416:../../libDaisy//src/hid/disp/display.h ****             {
 1121              		.loc 7 416 13 view .LVU229
 1122 00e6 0133     		adds	r3, r3, #1
 1123              	.LVL77:
 1124              	.LBB496:
 1125              	.LBB488:
 1126              	.LBB483:
 1127              	.LBB478:
 1128              	.LBB474:
 259:../../libDaisy//src/dev/oled_ssd130x.h ****     }
 1129              		.loc 8 259 42 view .LVU230
 1130 00e8 09EA0505 		and	r5, r9, r5
 1131              	.LBE474:
 1132              	.LBE478:
 1133              	.LBE483:
 1134              	.LBE488:
 1135              	.LBE496:
 416:../../libDaisy//src/hid/disp/display.h ****             {
 1136              		.loc 7 416 26 view .LVU231
 1137 00ec 0132     		adds	r2, r2, #1
 1138 00ee 0131     		adds	r1, r1, #1
 1139 00f0 9C42     		cmp	r4, r3
 1140              	.LBB497:
 1141              	.LBB489:
 1142              	.LBB484:
 1143              	.LBB479:
 1144              	.LBB475:
 259:../../libDaisy//src/dev/oled_ssd130x.h ****     }
 1145              		.loc 8 259 42 view .LVU232
 1146 00f2 02F8015C 		strb	r5, [r2, #-1]
 259:../../libDaisy//src/dev/oled_ssd130x.h ****     }
 1147              		.loc 8 259 42 view .LVU233
 1148              	.LBE475:
 1149              	.LBE479:
 1150              	.LBE484:
 1151              	.LBE489:
 1152              	.LBE497:
 416:../../libDaisy//src/hid/disp/display.h ****             {
 1153              		.loc 7 416 13 is_stmt 1 view .LVU234
 1154              	.LVL78:
 416:../../libDaisy//src/hid/disp/display.h ****             {
ARM GAS  /tmp/ccZePa4k.s 			page 44


 1155              		.loc 7 416 26 view .LVU235
 1156 00f6 EAD1     		bne	.L76
 1157              	.LVL79:
 1158              	.L75:
 413:../../libDaisy//src/hid/disp/display.h ****         {
 1159              		.loc 7 413 9 view .LVU236
 413:../../libDaisy//src/hid/disp/display.h ****         {
 1160              		.loc 7 413 22 view .LVU237
 1161 00f8 5845     		cmp	r0, fp
 1162 00fa 0EF1010E 		add	lr, lr, #1
 1163 00fe C0D1     		bne	.L70
 1164              	.LVL80:
 1165              	.L69:
 1166              	.LBB498:
 1167              	.LBB499:
 173:../../libDaisy//src/hid/disp/display.h ****         currentY_ = (y >= Height()) ? Height() - 1 : y;
 1168              		.loc 7 173 33 is_stmt 0 view .LVU238
 1169 0100 D8F80030 		ldr	r3, [r8]
 1170              	.LBE499:
 1171              	.LBE498:
 434:../../libDaisy//src/hid/disp/display.h **** 
 1172              		.loc 7 434 18 view .LVU239
 1173 0104 5444     		add	r4, r4, r10
 1174 0106 2449     		ldr	r1, .L100
 1175              	.LBB505:
 1176              	.LBB500:
 173:../../libDaisy//src/hid/disp/display.h ****         currentY_ = (y >= Height()) ? Height() - 1 : y;
 1177              		.loc 7 173 33 view .LVU240
 1178 0108 DA68     		ldr	r2, [r3, #12]
 1179              	.LBE500:
 1180              	.LBE505:
 434:../../libDaisy//src/hid/disp/display.h **** 
 1181              		.loc 7 434 18 view .LVU241
 1182 010a A4B2     		uxth	r4, r4
 1183              	.LVL81:
 1184              	.LBB506:
 1185              	.LBI498:
 171:../../libDaisy//src/hid/disp/display.h ****     {
 1186              		.loc 7 171 10 is_stmt 1 view .LVU242
 1187              	.LBB501:
 173:../../libDaisy//src/hid/disp/display.h ****         currentY_ = (y >= Height()) ? Height() - 1 : y;
 1188              		.loc 7 173 9 view .LVU243
 1189 010c 8A42     		cmp	r2, r1
 1190 010e 2DD1     		bne	.L95
 173:../../libDaisy//src/hid/disp/display.h ****         currentY_ = (y >= Height()) ? Height() - 1 : y;
 1191              		.loc 7 173 33 is_stmt 0 view .LVU244
 1192 0110 8020     		movs	r0, #128
 1193              	.L77:
 173:../../libDaisy//src/hid/disp/display.h ****         currentY_ = (y >= Height()) ? Height() - 1 : y;
 1194              		.loc 7 173 19 view .LVU245
 1195 0112 8442     		cmp	r4, r0
 1196 0114 1CD2     		bcs	.L96
 1197              	.LVL82:
 1198              	.L78:
 174:../../libDaisy//src/hid/disp/display.h ****     }
 1199              		.loc 7 174 34 view .LVU246
 1200 0116 9B68     		ldr	r3, [r3, #8]
ARM GAS  /tmp/ccZePa4k.s 			page 45


 1201 0118 204A     		ldr	r2, .L100+4
 173:../../libDaisy//src/hid/disp/display.h ****         currentY_ = (y >= Height()) ? Height() - 1 : y;
 1202              		.loc 7 173 19 view .LVU247
 1203 011a A8F80440 		strh	r4, [r8, #4]	@ movhi
 174:../../libDaisy//src/hid/disp/display.h ****     }
 1204              		.loc 7 174 9 is_stmt 1 view .LVU248
 1205 011e 9342     		cmp	r3, r2
 1206 0120 21D1     		bne	.L97
 174:../../libDaisy//src/hid/disp/display.h ****     }
 1207              		.loc 7 174 34 is_stmt 0 view .LVU249
 1208 0122 4020     		movs	r0, #64
 1209              	.L80:
 174:../../libDaisy//src/hid/disp/display.h ****     }
 1210              		.loc 7 174 19 view .LVU250
 1211 0124 019B     		ldr	r3, [sp, #4]
 1212 0126 8342     		cmp	r3, r0
 1213 0128 07D3     		bcc	.L81
 174:../../libDaisy//src/hid/disp/display.h ****     }
 1214              		.loc 7 174 46 view .LVU251
 1215 012a D8F80030 		ldr	r3, [r8]
 1216 012e 1B4A     		ldr	r2, .L100+4
 1217 0130 9B68     		ldr	r3, [r3, #8]
 1218 0132 9342     		cmp	r3, r2
 1219 0134 29D1     		bne	.L98
 1220 0136 3F23     		movs	r3, #63
 1221 0138 0193     		str	r3, [sp, #4]
 1222              	.LVL83:
 1223              	.L81:
 174:../../libDaisy//src/hid/disp/display.h ****     }
 1224              		.loc 7 174 19 view .LVU252
 1225 013a DDE90003 		ldrd	r0, r3, [sp]
 1226 013e A8F80630 		strh	r3, [r8, #6]	@ movhi
 1227              	.LVL84:
 174:../../libDaisy//src/hid/disp/display.h ****     }
 1228              		.loc 7 174 19 view .LVU253
 1229              	.LBE501:
 1230              	.LBE506:
 438:../../libDaisy//src/hid/disp/display.h **** 
 1231              		.loc 7 438 5 view .LVU254
 1232 0142 05B0     		add	sp, sp, #20
 1233              		.cfi_remember_state
 1234              		.cfi_def_cfa_offset 36
 1235              		@ sp needed
 1236 0144 BDE8F08F 		pop	{r4, r5, r6, r7, r8, r9, r10, fp, pc}
 1237              	.LVL85:
 1238              	.L65:
 1239              		.cfi_restore_state
 402:../../libDaisy//src/hid/disp/display.h **** 
 1240              		.loc 7 402 20 view .LVU255
 1241 0148 0020     		movs	r0, #0
 438:../../libDaisy//src/hid/disp/display.h **** 
 1242              		.loc 7 438 5 view .LVU256
 1243 014a 05B0     		add	sp, sp, #20
 1244              		.cfi_remember_state
 1245              		.cfi_def_cfa_offset 36
 1246              		@ sp needed
 1247 014c BDE8F08F 		pop	{r4, r5, r6, r7, r8, r9, r10, fp, pc}
ARM GAS  /tmp/ccZePa4k.s 			page 46


 1248              	.LVL86:
 1249              	.L96:
 1250              		.cfi_restore_state
 1251              	.LBB507:
 1252              	.LBB502:
 173:../../libDaisy//src/hid/disp/display.h ****         currentY_ = (y >= Height()) ? Height() - 1 : y;
 1253              		.loc 7 173 44 view .LVU257
 1254 0150 DA68     		ldr	r2, [r3, #12]
 1255 0152 1149     		ldr	r1, .L100
 1256 0154 8A42     		cmp	r2, r1
 1257 0156 11D1     		bne	.L99
 1258 0158 7F24     		movs	r4, #127
 1259              	.LVL87:
 173:../../libDaisy//src/hid/disp/display.h ****         currentY_ = (y >= Height()) ? Height() - 1 : y;
 1260              		.loc 7 173 44 view .LVU258
 1261 015a DCE7     		b	.L78
 1262              	.LVL88:
 1263              	.L92:
 173:../../libDaisy//src/hid/disp/display.h ****         currentY_ = (y >= Height()) ? Height() - 1 : y;
 1264              		.loc 7 173 44 view .LVU259
 1265              	.LBE502:
 1266              	.LBE507:
 405:../../libDaisy//src/hid/disp/display.h ****            || Height() < (currentY_ + font.FontHeight))
 1267              		.loc 7 405 17 view .LVU260
 1268 015c 9847     		blx	r3
 1269              	.LVL89:
 405:../../libDaisy//src/hid/disp/display.h ****            || Height() < (currentY_ + font.FontHeight))
 1270              		.loc 7 405 17 view .LVU261
 1271 015e 6AE7     		b	.L64
 1272              	.L93:
 406:../../libDaisy//src/hid/disp/display.h ****         {
 1273              		.loc 7 406 21 discriminator 2 view .LVU262
 1274 0160 4046     		mov	r0, r8
 1275 0162 9847     		blx	r3
 1276              	.LVL90:
 1277 0164 75E7     		b	.L66
 1278              	.LVL91:
 1279              	.L97:
 1280              	.LBB508:
 1281              	.LBB503:
 174:../../libDaisy//src/hid/disp/display.h ****     }
 1282              		.loc 7 174 33 view .LVU263
 1283 0166 4046     		mov	r0, r8
 1284 0168 9847     		blx	r3
 1285              	.LVL92:
 1286 016a DBE7     		b	.L80
 1287              	.LVL93:
 1288              	.L95:
 173:../../libDaisy//src/hid/disp/display.h ****         currentY_ = (y >= Height()) ? Height() - 1 : y;
 1289              		.loc 7 173 32 view .LVU264
 1290 016c 4046     		mov	r0, r8
 1291 016e 9047     		blx	r2
 1292              	.LVL94:
 173:../../libDaisy//src/hid/disp/display.h ****         currentY_ = (y >= Height()) ? Height() - 1 : y;
 1293              		.loc 7 173 44 view .LVU265
 1294 0170 D8F80030 		ldr	r3, [r8]
 1295 0174 CDE7     		b	.L77
ARM GAS  /tmp/ccZePa4k.s 			page 47


 1296              	.LVL95:
 1297              	.L67:
 173:../../libDaisy//src/hid/disp/display.h ****         currentY_ = (y >= Height()) ? Height() - 1 : y;
 1298              		.loc 7 173 44 view .LVU266
 1299              	.LBE503:
 1300              	.LBE508:
 434:../../libDaisy//src/hid/disp/display.h **** 
 1301              		.loc 7 434 19 view .LVU267
 1302 0176 B8F804A0 		ldrh	r10, [r8, #4]
 1303 017a C1E7     		b	.L69
 1304              	.LVL96:
 1305              	.L99:
 1306              	.LBB509:
 1307              	.LBB504:
 173:../../libDaisy//src/hid/disp/display.h ****         currentY_ = (y >= Height()) ? Height() - 1 : y;
 1308              		.loc 7 173 43 view .LVU268
 1309 017c 4046     		mov	r0, r8
 1310 017e 9047     		blx	r2
 1311              	.LVL97:
 173:../../libDaisy//src/hid/disp/display.h ****         currentY_ = (y >= Height()) ? Height() - 1 : y;
 1312              		.loc 7 173 19 view .LVU269
 1313 0180 0138     		subs	r0, r0, #1
 174:../../libDaisy//src/hid/disp/display.h ****     }
 1314              		.loc 7 174 34 view .LVU270
 1315 0182 D8F80030 		ldr	r3, [r8]
 173:../../libDaisy//src/hid/disp/display.h ****         currentY_ = (y >= Height()) ? Height() - 1 : y;
 1316              		.loc 7 173 19 view .LVU271
 1317 0186 84B2     		uxth	r4, r0
 1318              	.LVL98:
 173:../../libDaisy//src/hid/disp/display.h ****         currentY_ = (y >= Height()) ? Height() - 1 : y;
 1319              		.loc 7 173 19 view .LVU272
 1320 0188 C5E7     		b	.L78
 1321              	.L98:
 174:../../libDaisy//src/hid/disp/display.h ****     }
 1322              		.loc 7 174 45 view .LVU273
 1323 018a 4046     		mov	r0, r8
 1324 018c 9847     		blx	r3
 1325              	.LVL99:
 174:../../libDaisy//src/hid/disp/display.h ****     }
 1326              		.loc 7 174 19 view .LVU274
 1327 018e 0138     		subs	r0, r0, #1
 1328 0190 83B2     		uxth	r3, r0
 1329 0192 0193     		str	r3, [sp, #4]
 1330              	.LVL100:
 174:../../libDaisy//src/hid/disp/display.h ****     }
 1331              		.loc 7 174 19 view .LVU275
 1332 0194 D1E7     		b	.L81
 1333              	.L101:
 1334 0196 00BF     		.align	2
 1335              	.L100:
 1336 0198 00000000 		.word	_ZNK5daisy11OledDisplayINS_13SSD130xDriverILj128ELj64ENS_24SSD130x4WireSpiTransportEEEE5Widt
 1337 019c 00000000 		.word	_ZNK5daisy11OledDisplayINS_13SSD130xDriverILj128ELj64ENS_24SSD130x4WireSpiTransportEEEE6Heig
 1338              	.LBE504:
 1339              	.LBE509:
 1340              		.cfi_endproc
 1341              	.LFE2605:
 1343              		.section	.text._ZN5daisy25OneBitGraphicsDisplayImplINS_11OledDisplayINS_13SSD130xDriverILj128ELj64
ARM GAS  /tmp/ccZePa4k.s 			page 48


 1344              		.align	1
 1345              		.p2align 2,,3
 1346              		.weak	_ZN5daisy25OneBitGraphicsDisplayImplINS_11OledDisplayINS_13SSD130xDriverILj128ELj64ENS_24SSD
 1347              		.syntax unified
 1348              		.thumb
 1349              		.thumb_func
 1351              	_ZN5daisy25OneBitGraphicsDisplayImplINS_11OledDisplayINS_13SSD130xDriverILj128ELj64ENS_24SSD130x4Wi
 1352              	.LVL101:
 1353              	.LFB2607:
 459:../../libDaisy//src/hid/disp/display.h **** 
 460:../../libDaisy//src/hid/disp/display.h ****     Rectangle WriteStringAligned(const char*    str,
 1354              		.loc 7 460 15 is_stmt 1 view -0
 1355              		.cfi_startproc
 1356              		@ args = 12, pretend = 0, frame = 32
 1357              		@ frame_needed = 0, uses_anonymous_args = 0
 1358              		.loc 7 460 15 is_stmt 0 view .LVU277
 1359 0000 2DE9F04F 		push	{r4, r5, r6, r7, r8, r9, r10, fp, lr}
 1360              		.cfi_def_cfa_offset 36
 1361              		.cfi_offset 4, -36
 1362              		.cfi_offset 5, -32
 1363              		.cfi_offset 6, -28
 1364              		.cfi_offset 7, -24
 1365              		.cfi_offset 8, -20
 1366              		.cfi_offset 9, -16
 1367              		.cfi_offset 10, -12
 1368              		.cfi_offset 11, -8
 1369              		.cfi_offset 14, -4
 1370 0004 89B0     		sub	sp, sp, #36
 1371              		.cfi_def_cfa_offset 72
 1372              		.loc 7 460 15 view .LVU278
 1373 0006 1D46     		mov	r5, r3
 1374 0008 8846     		mov	r8, r1
 1375              	.LVL102:
 1376              	.LBB648:
 1377              	.LBI648:
 461:../../libDaisy//src/hid/disp/display.h ****                                  const FontDef& font,
 462:../../libDaisy//src/hid/disp/display.h ****                                  Rectangle      boundingBox,
 463:../../libDaisy//src/hid/disp/display.h ****                                  Alignment      alignment,
 464:../../libDaisy//src/hid/disp/display.h ****                                  bool           on) override
 465:../../libDaisy//src/hid/disp/display.h ****     {
 466:../../libDaisy//src/hid/disp/display.h ****         const auto alignedRect
 467:../../libDaisy//src/hid/disp/display.h ****             = GetTextRect(str, font).AlignedWithin(boundingBox, alignment);
 468:../../libDaisy//src/hid/disp/display.h ****         SetCursor(alignedRect.GetX(), alignedRect.GetY());
 469:../../libDaisy//src/hid/disp/display.h ****         ((ChildType*)(this))->ChildType::WriteString(str, font, on);
 470:../../libDaisy//src/hid/disp/display.h ****         return alignedRect;
 471:../../libDaisy//src/hid/disp/display.h ****     }
 472:../../libDaisy//src/hid/disp/display.h **** 
 473:../../libDaisy//src/hid/disp/display.h ****   private:
 474:../../libDaisy//src/hid/disp/display.h ****     uint32_t strlen(const char* string)
 475:../../libDaisy//src/hid/disp/display.h ****     {
 476:../../libDaisy//src/hid/disp/display.h ****         uint32_t result = 0;
 477:../../libDaisy//src/hid/disp/display.h ****         while(*string++ != '\0')
 478:../../libDaisy//src/hid/disp/display.h ****             result++;
 479:../../libDaisy//src/hid/disp/display.h ****         return result;
 480:../../libDaisy//src/hid/disp/display.h ****     }
 481:../../libDaisy//src/hid/disp/display.h **** 
 482:../../libDaisy//src/hid/disp/display.h ****     Rectangle GetTextRect(const char* text, const FontDef& font)
ARM GAS  /tmp/ccZePa4k.s 			page 49


 1378              		.loc 7 482 15 is_stmt 1 view .LVU279
 1379              	.LBB649:
 1380              	.LBB650:
 1381              	.LBI650:
 474:../../libDaisy//src/hid/disp/display.h ****     {
 1382              		.loc 7 474 14 view .LVU280
 1383              	.LBB651:
 477:../../libDaisy//src/hid/disp/display.h ****             result++;
 1384              		.loc 7 477 25 view .LVU281
 1385              	.LBE651:
 1386              	.LBE650:
 1387              	.LBE649:
 1388              	.LBE648:
 460:../../libDaisy//src/hid/disp/display.h ****                                  const FontDef& font,
 1389              		.loc 7 460 15 is_stmt 0 view .LVU282
 1390 000a 0690     		str	r0, [sp, #24]
 1391              	.LBB666:
 1392              	.LBB662:
 1393              	.LBB655:
 1394              	.LBB652:
 477:../../libDaisy//src/hid/disp/display.h ****             result++;
 1395              		.loc 7 477 25 view .LVU283
 1396 000c 1046     		mov	r0, r2
 1397              	.LVL103:
 477:../../libDaisy//src/hid/disp/display.h ****             result++;
 1398              		.loc 7 477 25 view .LVU284
 1399              	.LBE652:
 1400              	.LBE655:
 1401              	.LBE662:
 1402              	.LBE666:
 460:../../libDaisy//src/hid/disp/display.h ****                                  const FontDef& font,
 1403              		.loc 7 460 15 view .LVU285
 1404 000e 129C     		ldr	r4, [sp, #72]
 1405              	.LBB667:
 1406              	.LBB663:
 1407              	.LBB656:
 1408              	.LBB653:
 477:../../libDaisy//src/hid/disp/display.h ****             result++;
 1409              		.loc 7 477 25 view .LVU286
 1410 0010 10F8013B 		ldrb	r3, [r0], #1	@ zero_extendqisi2
 1411              	.LVL104:
 477:../../libDaisy//src/hid/disp/display.h ****             result++;
 1412              		.loc 7 477 25 view .LVU287
 1413              	.LBE653:
 1414              	.LBE656:
 1415              	.LBE663:
 1416              	.LBE667:
 460:../../libDaisy//src/hid/disp/display.h ****                                  const FontDef& font,
 1417              		.loc 7 460 15 view .LVU288
 1418 0014 1399     		ldr	r1, [sp, #76]
 1419              	.LVL105:
 460:../../libDaisy//src/hid/disp/display.h ****                                  const FontDef& font,
 1420              		.loc 7 460 15 view .LVU289
 1421 0016 9DF85060 		ldrb	r6, [sp, #80]	@ zero_extendqisi2
 1422 001a 0092     		str	r2, [sp]
 1423              	.LBB668:
 1424              	.LBB664:
ARM GAS  /tmp/ccZePa4k.s 			page 50


 1425              	.LBB657:
 1426              	.LBB654:
 477:../../libDaisy//src/hid/disp/display.h ****             result++;
 1427              		.loc 7 477 25 view .LVU290
 1428 001c 33B1     		cbz	r3, .L103
 476:../../libDaisy//src/hid/disp/display.h ****         while(*string++ != '\0')
 1429              		.loc 7 476 18 view .LVU291
 1430 001e 0022     		movs	r2, #0
 1431              	.LVL106:
 1432              	.L104:
 477:../../libDaisy//src/hid/disp/display.h ****             result++;
 1433              		.loc 7 477 25 view .LVU292
 1434 0020 10F8013B 		ldrb	r3, [r0], #1	@ zero_extendqisi2
 1435              	.LVL107:
 478:../../libDaisy//src/hid/disp/display.h ****         return result;
 1436              		.loc 7 478 13 view .LVU293
 1437 0024 0132     		adds	r2, r2, #1
 1438              	.LVL108:
 477:../../libDaisy//src/hid/disp/display.h ****             result++;
 1439              		.loc 7 477 25 is_stmt 1 view .LVU294
 1440 0026 002B     		cmp	r3, #0
 1441 0028 FAD1     		bne	.L104
 1442              	.LBE654:
 1443              	.LBE657:
 483:../../libDaisy//src/hid/disp/display.h ****     {
 484:../../libDaisy//src/hid/disp/display.h ****         const auto numChars = strlen(text);
 485:../../libDaisy//src/hid/disp/display.h ****         return {int16_t(numChars * font.FontWidth), font.FontHeight};
 1444              		.loc 7 485 68 is_stmt 0 view .LVU295
 1445 002a 93B2     		uxth	r3, r2
 1446              	.LVL109:
 1447              	.L103:
 1448              		.loc 7 485 68 view .LVU296
 1449 002c 2A78     		ldrb	r2, [r5]	@ zero_extendqisi2
 1450              		.loc 7 485 58 view .LVU297
 1451 002e 6878     		ldrb	r0, [r5, #1]	@ zero_extendqisi2
 1452              		.loc 7 485 68 view .LVU298
 1453 0030 12FB03F3 		smulbb	r3, r2, r3
 1454 0034 02B2     		sxth	r2, r0
 1455              	.LVL110:
 1456              	.LBB658:
 1457              	.LBI658:
 1458              		.file 9 "../../libDaisy//src/hid/disp/graphics_common.h"
   1:../../libDaisy//src/hid/disp/graphics_common.h **** #pragma once
   2:../../libDaisy//src/hid/disp/graphics_common.h **** 
   3:../../libDaisy//src/hid/disp/graphics_common.h **** #include <cstdint>
   4:../../libDaisy//src/hid/disp/graphics_common.h **** 
   5:../../libDaisy//src/hid/disp/graphics_common.h **** namespace daisy
   6:../../libDaisy//src/hid/disp/graphics_common.h **** {
   7:../../libDaisy//src/hid/disp/graphics_common.h **** /** Justifications */
   8:../../libDaisy//src/hid/disp/graphics_common.h **** enum class Alignment
   9:../../libDaisy//src/hid/disp/graphics_common.h **** {
  10:../../libDaisy//src/hid/disp/graphics_common.h ****     centered,
  11:../../libDaisy//src/hid/disp/graphics_common.h ****     topLeft,
  12:../../libDaisy//src/hid/disp/graphics_common.h ****     topCentered,
  13:../../libDaisy//src/hid/disp/graphics_common.h ****     topRight,
  14:../../libDaisy//src/hid/disp/graphics_common.h ****     bottomLeft,
  15:../../libDaisy//src/hid/disp/graphics_common.h ****     bottomCentered,
ARM GAS  /tmp/ccZePa4k.s 			page 51


  16:../../libDaisy//src/hid/disp/graphics_common.h ****     bottomRight,
  17:../../libDaisy//src/hid/disp/graphics_common.h ****     centeredLeft,
  18:../../libDaisy//src/hid/disp/graphics_common.h ****     centeredRight
  19:../../libDaisy//src/hid/disp/graphics_common.h **** };
  20:../../libDaisy//src/hid/disp/graphics_common.h **** 
  21:../../libDaisy//src/hid/disp/graphics_common.h **** class Rectangle
  22:../../libDaisy//src/hid/disp/graphics_common.h **** {
  23:../../libDaisy//src/hid/disp/graphics_common.h ****   public:
  24:../../libDaisy//src/hid/disp/graphics_common.h ****     Rectangle() : x_(0), y_(0), width_(0), height_(0) {}
  25:../../libDaisy//src/hid/disp/graphics_common.h **** 
  26:../../libDaisy//src/hid/disp/graphics_common.h ****     Rectangle(int16_t width, int16_t height)
 1459              		.loc 9 26 5 is_stmt 1 view .LVU299
 1460              	.LBB659:
 1461              	.LBI659:
  27:../../libDaisy//src/hid/disp/graphics_common.h ****     : x_(0), y_(0), width_(max(0, width)), height_(max(0, height))
  28:../../libDaisy//src/hid/disp/graphics_common.h ****     {
  29:../../libDaisy//src/hid/disp/graphics_common.h ****     }
  30:../../libDaisy//src/hid/disp/graphics_common.h **** 
  31:../../libDaisy//src/hid/disp/graphics_common.h ****     Rectangle(int16_t x, int16_t y, int16_t width, int16_t height)
  32:../../libDaisy//src/hid/disp/graphics_common.h ****     : x_(x), y_(y), width_(max(0, width)), height_(max(0, height))
  33:../../libDaisy//src/hid/disp/graphics_common.h ****     {
  34:../../libDaisy//src/hid/disp/graphics_common.h ****     }
  35:../../libDaisy//src/hid/disp/graphics_common.h **** 
  36:../../libDaisy//src/hid/disp/graphics_common.h ****     Rectangle(const Rectangle& other) { *this = other; }
  37:../../libDaisy//src/hid/disp/graphics_common.h **** 
  38:../../libDaisy//src/hid/disp/graphics_common.h ****     Rectangle& operator=(const Rectangle& other)
  39:../../libDaisy//src/hid/disp/graphics_common.h ****     {
  40:../../libDaisy//src/hid/disp/graphics_common.h ****         x_      = other.x_;
  41:../../libDaisy//src/hid/disp/graphics_common.h ****         y_      = other.y_;
  42:../../libDaisy//src/hid/disp/graphics_common.h ****         width_  = other.width_;
  43:../../libDaisy//src/hid/disp/graphics_common.h ****         height_ = other.height_;
  44:../../libDaisy//src/hid/disp/graphics_common.h ****         return *this;
  45:../../libDaisy//src/hid/disp/graphics_common.h ****     }
  46:../../libDaisy//src/hid/disp/graphics_common.h **** 
  47:../../libDaisy//src/hid/disp/graphics_common.h ****     bool operator==(const Rectangle& other) const
  48:../../libDaisy//src/hid/disp/graphics_common.h ****     {
  49:../../libDaisy//src/hid/disp/graphics_common.h ****         return (x_ == other.x_) && (y_ == other.y_) && (width_ == other.width_)
  50:../../libDaisy//src/hid/disp/graphics_common.h ****                && (height_ == other.height_);
  51:../../libDaisy//src/hid/disp/graphics_common.h ****     }
  52:../../libDaisy//src/hid/disp/graphics_common.h ****     bool operator!=(const Rectangle& other) const { return !(*this == other); }
  53:../../libDaisy//src/hid/disp/graphics_common.h **** 
  54:../../libDaisy//src/hid/disp/graphics_common.h ****     bool IsEmpty() const { return (width_ <= 0) || (height_ <= 0); }
  55:../../libDaisy//src/hid/disp/graphics_common.h **** 
  56:../../libDaisy//src/hid/disp/graphics_common.h ****     int16_t GetX() const { return x_; }
  57:../../libDaisy//src/hid/disp/graphics_common.h ****     int16_t GetY() const { return y_; }
  58:../../libDaisy//src/hid/disp/graphics_common.h ****     int16_t GetWidth() const { return width_; }
  59:../../libDaisy//src/hid/disp/graphics_common.h ****     int16_t GetHeight() const { return height_; }
  60:../../libDaisy//src/hid/disp/graphics_common.h ****     int16_t GetRight() const { return x_ + width_; }
  61:../../libDaisy//src/hid/disp/graphics_common.h ****     int16_t GetBottom() const { return y_ + height_; }
  62:../../libDaisy//src/hid/disp/graphics_common.h ****     int16_t GetCenterX() const { return x_ + width_ / 2; }
  63:../../libDaisy//src/hid/disp/graphics_common.h ****     int16_t GetCenterY() const { return y_ + height_ / 2; }
  64:../../libDaisy//src/hid/disp/graphics_common.h **** 
  65:../../libDaisy//src/hid/disp/graphics_common.h ****     Rectangle WithX(int16_t x) const { return {x, y_, width_, height_}; }
  66:../../libDaisy//src/hid/disp/graphics_common.h ****     Rectangle WithY(int16_t y) const { return {x_, y, width_, height_}; }
  67:../../libDaisy//src/hid/disp/graphics_common.h ****     Rectangle WithWidth(int16_t width) const
  68:../../libDaisy//src/hid/disp/graphics_common.h ****     {
  69:../../libDaisy//src/hid/disp/graphics_common.h ****         return {x_, y_, width, height_};
ARM GAS  /tmp/ccZePa4k.s 			page 52


  70:../../libDaisy//src/hid/disp/graphics_common.h ****     }
  71:../../libDaisy//src/hid/disp/graphics_common.h ****     Rectangle WithHeight(int16_t height) const
  72:../../libDaisy//src/hid/disp/graphics_common.h ****     {
  73:../../libDaisy//src/hid/disp/graphics_common.h ****         return {x_, y_, width_, height};
  74:../../libDaisy//src/hid/disp/graphics_common.h ****     }
  75:../../libDaisy//src/hid/disp/graphics_common.h ****     Rectangle WithSize(int16_t width, int16_t height) const
  76:../../libDaisy//src/hid/disp/graphics_common.h ****     {
  77:../../libDaisy//src/hid/disp/graphics_common.h ****         return {x_, y_, width, height};
  78:../../libDaisy//src/hid/disp/graphics_common.h ****     }
  79:../../libDaisy//src/hid/disp/graphics_common.h ****     Rectangle WithWidthKeepingCenter(int16_t width) const
  80:../../libDaisy//src/hid/disp/graphics_common.h ****     {
  81:../../libDaisy//src/hid/disp/graphics_common.h ****         return Rectangle(x_, y_, width, height_)
  82:../../libDaisy//src/hid/disp/graphics_common.h ****             .WithCenter(GetCenterX(), GetCenterY());
  83:../../libDaisy//src/hid/disp/graphics_common.h ****     }
  84:../../libDaisy//src/hid/disp/graphics_common.h ****     Rectangle WithHeightKeepingCenter(int16_t height) const
  85:../../libDaisy//src/hid/disp/graphics_common.h ****     {
  86:../../libDaisy//src/hid/disp/graphics_common.h ****         return Rectangle(x_, y_, width_, height)
  87:../../libDaisy//src/hid/disp/graphics_common.h ****             .WithCenter(GetCenterX(), GetCenterY());
  88:../../libDaisy//src/hid/disp/graphics_common.h ****     }
  89:../../libDaisy//src/hid/disp/graphics_common.h ****     Rectangle WithSizeKeepingCenter(int16_t width, int16_t height) const
  90:../../libDaisy//src/hid/disp/graphics_common.h ****     {
  91:../../libDaisy//src/hid/disp/graphics_common.h ****         return Rectangle(x_, y_, width, height)
  92:../../libDaisy//src/hid/disp/graphics_common.h ****             .WithCenter(GetCenterX(), GetCenterY());
  93:../../libDaisy//src/hid/disp/graphics_common.h ****     }
  94:../../libDaisy//src/hid/disp/graphics_common.h **** 
  95:../../libDaisy//src/hid/disp/graphics_common.h ****     Rectangle Reduced(int16_t sizeToReduce) const
  96:../../libDaisy//src/hid/disp/graphics_common.h ****     {
  97:../../libDaisy//src/hid/disp/graphics_common.h ****         return {int16_t(x_ + sizeToReduce),
  98:../../libDaisy//src/hid/disp/graphics_common.h ****                 int16_t(y_ + sizeToReduce),
  99:../../libDaisy//src/hid/disp/graphics_common.h ****                 int16_t(width_ - 2 * sizeToReduce),
 100:../../libDaisy//src/hid/disp/graphics_common.h ****                 int16_t(height_ - 2 * sizeToReduce)};
 101:../../libDaisy//src/hid/disp/graphics_common.h ****     }
 102:../../libDaisy//src/hid/disp/graphics_common.h ****     Rectangle Reduced(int16_t xToReduce, int16_t yToReduce) const
 103:../../libDaisy//src/hid/disp/graphics_common.h ****     {
 104:../../libDaisy//src/hid/disp/graphics_common.h ****         return {int16_t(x_ + xToReduce),
 105:../../libDaisy//src/hid/disp/graphics_common.h ****                 int16_t(y_ + yToReduce),
 106:../../libDaisy//src/hid/disp/graphics_common.h ****                 int16_t(width_ - 2 * xToReduce),
 107:../../libDaisy//src/hid/disp/graphics_common.h ****                 int16_t(height_ - 2 * yToReduce)};
 108:../../libDaisy//src/hid/disp/graphics_common.h ****     }
 109:../../libDaisy//src/hid/disp/graphics_common.h **** 
 110:../../libDaisy//src/hid/disp/graphics_common.h ****     Rectangle Translated(int16_t x, int16_t y) const
 111:../../libDaisy//src/hid/disp/graphics_common.h ****     {
 112:../../libDaisy//src/hid/disp/graphics_common.h ****         return {int16_t(x_ + x), int16_t(y_ + y), width_, height_};
 113:../../libDaisy//src/hid/disp/graphics_common.h ****     }
 114:../../libDaisy//src/hid/disp/graphics_common.h **** 
 115:../../libDaisy//src/hid/disp/graphics_common.h ****     Rectangle WithLeft(int16_t left) const
 116:../../libDaisy//src/hid/disp/graphics_common.h ****     {
 117:../../libDaisy//src/hid/disp/graphics_common.h ****         const auto newWidth = int16_t((x_ - left) + width_);
 118:../../libDaisy//src/hid/disp/graphics_common.h ****         return {left, y_, newWidth, height_};
 119:../../libDaisy//src/hid/disp/graphics_common.h ****     }
 120:../../libDaisy//src/hid/disp/graphics_common.h **** 
 121:../../libDaisy//src/hid/disp/graphics_common.h ****     Rectangle WithRight(int16_t right) const
 122:../../libDaisy//src/hid/disp/graphics_common.h ****     {
 123:../../libDaisy//src/hid/disp/graphics_common.h ****         const auto newWidth = int16_t(right - x_);
 124:../../libDaisy//src/hid/disp/graphics_common.h ****         return {x_, y_, newWidth, height_};
 125:../../libDaisy//src/hid/disp/graphics_common.h ****     }
 126:../../libDaisy//src/hid/disp/graphics_common.h **** 
ARM GAS  /tmp/ccZePa4k.s 			page 53


 127:../../libDaisy//src/hid/disp/graphics_common.h ****     Rectangle WithTop(int16_t top) const
 128:../../libDaisy//src/hid/disp/graphics_common.h ****     {
 129:../../libDaisy//src/hid/disp/graphics_common.h ****         const auto newHeight = int16_t((y_ - top) + height_);
 130:../../libDaisy//src/hid/disp/graphics_common.h ****         return {x_, top, width_, newHeight};
 131:../../libDaisy//src/hid/disp/graphics_common.h ****     }
 132:../../libDaisy//src/hid/disp/graphics_common.h **** 
 133:../../libDaisy//src/hid/disp/graphics_common.h ****     Rectangle WithBottom(int16_t bottom) const
 134:../../libDaisy//src/hid/disp/graphics_common.h ****     {
 135:../../libDaisy//src/hid/disp/graphics_common.h ****         const auto newHeight = int16_t(bottom - y_);
 136:../../libDaisy//src/hid/disp/graphics_common.h ****         return {x_, y_, width_, newHeight};
 137:../../libDaisy//src/hid/disp/graphics_common.h ****     }
 138:../../libDaisy//src/hid/disp/graphics_common.h **** 
 139:../../libDaisy//src/hid/disp/graphics_common.h ****     Rectangle WithTrimmedLeft(int16_t pxToTrim) const
 140:../../libDaisy//src/hid/disp/graphics_common.h ****     {
 141:../../libDaisy//src/hid/disp/graphics_common.h ****         return {
 142:../../libDaisy//src/hid/disp/graphics_common.h ****             int16_t(x_ + pxToTrim), y_, int16_t(width_ - pxToTrim), height_};
 143:../../libDaisy//src/hid/disp/graphics_common.h ****     }
 144:../../libDaisy//src/hid/disp/graphics_common.h **** 
 145:../../libDaisy//src/hid/disp/graphics_common.h ****     Rectangle WithTrimmedRight(int16_t pxToTrim) const
 146:../../libDaisy//src/hid/disp/graphics_common.h ****     {
 147:../../libDaisy//src/hid/disp/graphics_common.h ****         return {x_, y_, int16_t(width_ - pxToTrim), height_};
 148:../../libDaisy//src/hid/disp/graphics_common.h ****     }
 149:../../libDaisy//src/hid/disp/graphics_common.h **** 
 150:../../libDaisy//src/hid/disp/graphics_common.h ****     Rectangle WithTrimmedTop(int16_t pxToTrim) const
 151:../../libDaisy//src/hid/disp/graphics_common.h ****     {
 152:../../libDaisy//src/hid/disp/graphics_common.h ****         return {
 153:../../libDaisy//src/hid/disp/graphics_common.h ****             x_, int16_t(y_ + pxToTrim), width_, int16_t(height_ - pxToTrim)};
 154:../../libDaisy//src/hid/disp/graphics_common.h ****     }
 155:../../libDaisy//src/hid/disp/graphics_common.h **** 
 156:../../libDaisy//src/hid/disp/graphics_common.h ****     Rectangle WithTrimmedBottom(int16_t pxToTrim) const
 157:../../libDaisy//src/hid/disp/graphics_common.h ****     {
 158:../../libDaisy//src/hid/disp/graphics_common.h ****         return {x_, y_, width_, int16_t(height_ - pxToTrim)};
 159:../../libDaisy//src/hid/disp/graphics_common.h ****     }
 160:../../libDaisy//src/hid/disp/graphics_common.h **** 
 161:../../libDaisy//src/hid/disp/graphics_common.h ****     Rectangle WithCenterX(int16_t centerX) const
 162:../../libDaisy//src/hid/disp/graphics_common.h ****     {
 163:../../libDaisy//src/hid/disp/graphics_common.h ****         return {int16_t(x_ + centerX - GetCenterX()), y_, width_, height_};
 164:../../libDaisy//src/hid/disp/graphics_common.h ****     }
 165:../../libDaisy//src/hid/disp/graphics_common.h **** 
 166:../../libDaisy//src/hid/disp/graphics_common.h ****     Rectangle WithCenterY(int16_t centerY) const
 167:../../libDaisy//src/hid/disp/graphics_common.h ****     {
 168:../../libDaisy//src/hid/disp/graphics_common.h ****         return {x_, int16_t(y_ + centerY - GetCenterY()), width_, height_};
 169:../../libDaisy//src/hid/disp/graphics_common.h ****     }
 170:../../libDaisy//src/hid/disp/graphics_common.h **** 
 171:../../libDaisy//src/hid/disp/graphics_common.h ****     Rectangle WithCenter(int16_t centerX, int16_t centerY) const
 172:../../libDaisy//src/hid/disp/graphics_common.h ****     {
 173:../../libDaisy//src/hid/disp/graphics_common.h ****         return {int16_t(x_ + centerX - GetCenterX()),
 174:../../libDaisy//src/hid/disp/graphics_common.h ****                 int16_t(y_ + centerY - GetCenterY()),
 175:../../libDaisy//src/hid/disp/graphics_common.h ****                 width_,
 176:../../libDaisy//src/hid/disp/graphics_common.h ****                 height_};
 177:../../libDaisy//src/hid/disp/graphics_common.h ****     }
 178:../../libDaisy//src/hid/disp/graphics_common.h **** 
 179:../../libDaisy//src/hid/disp/graphics_common.h ****     Rectangle RemoveFromLeft(int16_t pxToRemove)
 180:../../libDaisy//src/hid/disp/graphics_common.h ****     {
 181:../../libDaisy//src/hid/disp/graphics_common.h ****         const auto result = this->WithWidth(min(pxToRemove, width_));
 182:../../libDaisy//src/hid/disp/graphics_common.h ****         x_ += min(pxToRemove, width_);
 183:../../libDaisy//src/hid/disp/graphics_common.h ****         width_ = max(int16_t(width_ - pxToRemove), 0);
ARM GAS  /tmp/ccZePa4k.s 			page 54


 184:../../libDaisy//src/hid/disp/graphics_common.h ****         return result;
 185:../../libDaisy//src/hid/disp/graphics_common.h ****     }
 186:../../libDaisy//src/hid/disp/graphics_common.h **** 
 187:../../libDaisy//src/hid/disp/graphics_common.h ****     Rectangle RemoveFromRight(int16_t pxToRemove)
 188:../../libDaisy//src/hid/disp/graphics_common.h ****     {
 189:../../libDaisy//src/hid/disp/graphics_common.h ****         const auto canRemove = min(pxToRemove, width_);
 190:../../libDaisy//src/hid/disp/graphics_common.h ****         width_ -= canRemove;
 191:../../libDaisy//src/hid/disp/graphics_common.h ****         return {int16_t(x_ + width_), y_, canRemove, height_};
 192:../../libDaisy//src/hid/disp/graphics_common.h ****     }
 193:../../libDaisy//src/hid/disp/graphics_common.h **** 
 194:../../libDaisy//src/hid/disp/graphics_common.h ****     Rectangle RemoveFromTop(int16_t pxToRemove)
 195:../../libDaisy//src/hid/disp/graphics_common.h ****     {
 196:../../libDaisy//src/hid/disp/graphics_common.h ****         const auto result = this->WithHeight(min(pxToRemove, height_));
 197:../../libDaisy//src/hid/disp/graphics_common.h ****         y_ += min(pxToRemove, height_);
 198:../../libDaisy//src/hid/disp/graphics_common.h ****         height_ = max(height_ - pxToRemove, 0);
 199:../../libDaisy//src/hid/disp/graphics_common.h ****         return result;
 200:../../libDaisy//src/hid/disp/graphics_common.h ****     }
 201:../../libDaisy//src/hid/disp/graphics_common.h **** 
 202:../../libDaisy//src/hid/disp/graphics_common.h ****     Rectangle RemoveFromBottom(int16_t pxToRemove)
 203:../../libDaisy//src/hid/disp/graphics_common.h ****     {
 204:../../libDaisy//src/hid/disp/graphics_common.h ****         const auto canRemove = min(pxToRemove, height_);
 205:../../libDaisy//src/hid/disp/graphics_common.h ****         height_ -= canRemove;
 206:../../libDaisy//src/hid/disp/graphics_common.h ****         return {x_, int16_t(y_ + height_), width_, canRemove};
 207:../../libDaisy//src/hid/disp/graphics_common.h ****     }
 208:../../libDaisy//src/hid/disp/graphics_common.h **** 
 209:../../libDaisy//src/hid/disp/graphics_common.h ****     Rectangle AlignedWithin(const Rectangle& other, Alignment alignment) const
 210:../../libDaisy//src/hid/disp/graphics_common.h ****     {
 211:../../libDaisy//src/hid/disp/graphics_common.h ****         switch(alignment)
 212:../../libDaisy//src/hid/disp/graphics_common.h ****         {
 213:../../libDaisy//src/hid/disp/graphics_common.h ****             case Alignment::topLeft:
 214:../../libDaisy//src/hid/disp/graphics_common.h ****                 return {other.x_, other.y_, width_, height_};
 215:../../libDaisy//src/hid/disp/graphics_common.h ****             case Alignment::topRight:
 216:../../libDaisy//src/hid/disp/graphics_common.h ****                 return {int16_t(other.GetRight() - width_),
 217:../../libDaisy//src/hid/disp/graphics_common.h ****                         other.y_,
 218:../../libDaisy//src/hid/disp/graphics_common.h ****                         width_,
 219:../../libDaisy//src/hid/disp/graphics_common.h ****                         height_};
 220:../../libDaisy//src/hid/disp/graphics_common.h ****             case Alignment::topCentered:
 221:../../libDaisy//src/hid/disp/graphics_common.h ****                 return {int16_t(x_ + (other.GetCenterX() - GetCenterX())),
 222:../../libDaisy//src/hid/disp/graphics_common.h ****                         other.y_,
 223:../../libDaisy//src/hid/disp/graphics_common.h ****                         width_,
 224:../../libDaisy//src/hid/disp/graphics_common.h ****                         height_};
 225:../../libDaisy//src/hid/disp/graphics_common.h ****             case Alignment::bottomLeft:
 226:../../libDaisy//src/hid/disp/graphics_common.h ****                 return {other.x_,
 227:../../libDaisy//src/hid/disp/graphics_common.h ****                         int16_t(other.GetBottom() - height_),
 228:../../libDaisy//src/hid/disp/graphics_common.h ****                         width_,
 229:../../libDaisy//src/hid/disp/graphics_common.h ****                         height_};
 230:../../libDaisy//src/hid/disp/graphics_common.h ****             case Alignment::bottomRight:
 231:../../libDaisy//src/hid/disp/graphics_common.h ****                 return {int16_t(other.GetRight() - width_),
 232:../../libDaisy//src/hid/disp/graphics_common.h ****                         int16_t(other.GetBottom() - height_),
 233:../../libDaisy//src/hid/disp/graphics_common.h ****                         width_,
 234:../../libDaisy//src/hid/disp/graphics_common.h ****                         height_};
 235:../../libDaisy//src/hid/disp/graphics_common.h ****             case Alignment::bottomCentered:
 236:../../libDaisy//src/hid/disp/graphics_common.h ****                 return {int16_t(x_ + (other.GetCenterX() - GetCenterX())),
 237:../../libDaisy//src/hid/disp/graphics_common.h ****                         int16_t(other.GetBottom() - height_),
 238:../../libDaisy//src/hid/disp/graphics_common.h ****                         width_,
 239:../../libDaisy//src/hid/disp/graphics_common.h ****                         height_};
 240:../../libDaisy//src/hid/disp/graphics_common.h ****             case Alignment::centeredLeft:
ARM GAS  /tmp/ccZePa4k.s 			page 55


 241:../../libDaisy//src/hid/disp/graphics_common.h ****                 return {other.x_,
 242:../../libDaisy//src/hid/disp/graphics_common.h ****                         int16_t(y_ + (other.GetCenterY() - GetCenterY())),
 243:../../libDaisy//src/hid/disp/graphics_common.h ****                         width_,
 244:../../libDaisy//src/hid/disp/graphics_common.h ****                         height_};
 245:../../libDaisy//src/hid/disp/graphics_common.h ****             case Alignment::centeredRight:
 246:../../libDaisy//src/hid/disp/graphics_common.h ****                 return {int16_t(other.GetRight() - width_),
 247:../../libDaisy//src/hid/disp/graphics_common.h ****                         int16_t(y_ + (other.GetCenterY() - GetCenterY())),
 248:../../libDaisy//src/hid/disp/graphics_common.h ****                         width_,
 249:../../libDaisy//src/hid/disp/graphics_common.h ****                         height_};
 250:../../libDaisy//src/hid/disp/graphics_common.h ****             case Alignment::centered:
 251:../../libDaisy//src/hid/disp/graphics_common.h ****                 return {int16_t(x_ + (other.GetCenterX() - GetCenterX())),
 252:../../libDaisy//src/hid/disp/graphics_common.h ****                         int16_t(y_ + (other.GetCenterY() - GetCenterY())),
 253:../../libDaisy//src/hid/disp/graphics_common.h ****                         width_,
 254:../../libDaisy//src/hid/disp/graphics_common.h ****                         height_};
 255:../../libDaisy//src/hid/disp/graphics_common.h ****             default: return {};
 256:../../libDaisy//src/hid/disp/graphics_common.h ****         }
 257:../../libDaisy//src/hid/disp/graphics_common.h ****     }
 258:../../libDaisy//src/hid/disp/graphics_common.h **** 
 259:../../libDaisy//src/hid/disp/graphics_common.h ****   private:
 260:../../libDaisy//src/hid/disp/graphics_common.h ****     int16_t x_, y_, width_, height_;
 261:../../libDaisy//src/hid/disp/graphics_common.h ****     int16_t max(int16_t a, int16_t b) { return (a > b) ? a : b; }
 1462              		.loc 9 261 13 view .LVU300
 1463              	.LBE659:
 1464              	.LBE658:
 1465              	.LBE664:
 1466              	.LBE668:
 1467              		.loc 9 261 41 view .LVU301
 1468              	.LBB669:
 1469              	.LBB665:
 1470              	.LBB661:
 1471              	.LBB660:
 1472              	.LBI660:
 1473              		.loc 9 261 13 view .LVU302
 1474              	.LBE660:
 1475              	.LBE661:
 1476              	.LBE665:
 1477              	.LBE669:
 1478              		.loc 9 261 41 view .LVU303
 1479              	.LBB670:
 1480              	.LBI670:
 209:../../libDaisy//src/hid/disp/graphics_common.h ****     {
 1481              		.loc 9 209 15 view .LVU304
 1482              	.LBB671:
 211:../../libDaisy//src/hid/disp/graphics_common.h ****         {
 1483              		.loc 9 211 9 view .LVU305
 1484 0036 1BB2     		sxth	r3, r3
 1485 0038 23EAE373 		bic	r3, r3, r3, asr #31
 1486 003c 0829     		cmp	r1, #8
 1487 003e 00F2A681 		bhi	.L105
 1488 0042 DFE811F0 		tbh	[pc, r1, lsl #1]
 1489              	.L107:
 1490 0046 0101     		.2byte	(.L115-.L107)/2
 1491 0048 1301     		.2byte	(.L114-.L107)/2
 1492 004a 1F01     		.2byte	(.L113-.L107)/2
 1493 004c 3301     		.2byte	(.L112-.L107)/2
 1494 004e 4101     		.2byte	(.L111-.L107)/2
 1495 0050 4F01     		.2byte	(.L110-.L107)/2
ARM GAS  /tmp/ccZePa4k.s 			page 56


 1496 0052 6601     		.2byte	(.L109-.L107)/2
 1497 0054 6F01     		.2byte	(.L108-.L107)/2
 1498 0056 0900     		.2byte	(.L106-.L107)/2
 1499              		.p2align 1
 1500              	.L106:
 245:../../libDaisy//src/hid/disp/graphics_common.h ****                 return {int16_t(other.GetRight() - width_),
 1501              		.loc 9 245 13 view .LVU306
 246:../../libDaisy//src/hid/disp/graphics_common.h ****                         int16_t(y_ + (other.GetCenterY() - GetCenterY())),
 1502              		.loc 9 246 17 view .LVU307
 1503              	.LVL111:
 1504              	.LBB672:
 1505              	.LBI672:
  60:../../libDaisy//src/hid/disp/graphics_common.h ****     int16_t GetBottom() const { return y_ + height_; }
 1506              		.loc 9 60 13 view .LVU308
 1507              	.LBB673:
  60:../../libDaisy//src/hid/disp/graphics_common.h ****     int16_t GetBottom() const { return y_ + height_; }
 1508              		.loc 9 60 32 view .LVU309
  60:../../libDaisy//src/hid/disp/graphics_common.h ****     int16_t GetBottom() const { return y_ + height_; }
 1509              		.loc 9 60 42 is_stmt 0 view .LVU310
 1510 0058 A188     		ldrh	r1, [r4, #4]
 1511              	.LVL112:
  60:../../libDaisy//src/hid/disp/graphics_common.h ****     int16_t GetBottom() const { return y_ + height_; }
 1512              		.loc 9 60 42 view .LVU311
 1513 005a 2788     		ldrh	r7, [r4]
 1514 005c 0F44     		add	r7, r7, r1
 1515              	.LBE673:
 1516              	.LBE672:
 1517              	.LBB674:
 1518              	.LBB675:
  63:../../libDaisy//src/hid/disp/graphics_common.h **** 
 1519              		.loc 9 63 54 view .LVU312
 1520 005e B4F90610 		ldrsh	r1, [r4, #6]
 1521              	.LBE675:
 1522              	.LBE674:
 246:../../libDaisy//src/hid/disp/graphics_common.h ****                         int16_t(y_ + (other.GetCenterY() - GetCenterY())),
 1523              		.loc 9 246 50 view .LVU313
 1524 0062 FF1A     		subs	r7, r7, r3
 1525              	.LBB679:
 1526              	.LBB676:
  63:../../libDaisy//src/hid/disp/graphics_common.h **** 
 1527              		.loc 9 63 54 view .LVU314
 1528 0064 0029     		cmp	r1, #0
 1529              	.LBE676:
 1530              	.LBE679:
 246:../../libDaisy//src/hid/disp/graphics_common.h ****                         int16_t(y_ + (other.GetCenterY() - GetCenterY())),
 1531              		.loc 9 246 50 view .LVU315
 1532 0066 BFB2     		uxth	r7, r7
 1533              	.LVL113:
 1534              	.LBB680:
 1535              	.LBI674:
  63:../../libDaisy//src/hid/disp/graphics_common.h **** 
 1536              		.loc 9 63 13 is_stmt 1 view .LVU316
 1537              	.LBB677:
  63:../../libDaisy//src/hid/disp/graphics_common.h **** 
 1538              		.loc 9 63 34 view .LVU317
  63:../../libDaisy//src/hid/disp/graphics_common.h **** 
 1539              		.loc 9 63 34 is_stmt 0 view .LVU318
ARM GAS  /tmp/ccZePa4k.s 			page 57


 1540              	.LBE677:
 1541              	.LBE680:
 1542              	.LBB681:
 1543              	.LBI681:
  63:../../libDaisy//src/hid/disp/graphics_common.h **** 
 1544              		.loc 9 63 13 is_stmt 1 view .LVU319
 1545              	.LBB682:
  63:../../libDaisy//src/hid/disp/graphics_common.h **** 
 1546              		.loc 9 63 34 view .LVU320
  63:../../libDaisy//src/hid/disp/graphics_common.h **** 
 1547              		.loc 9 63 34 is_stmt 0 view .LVU321
 1548              	.LBE682:
 1549              	.LBE681:
 1550              	.LBB683:
 1551              	.LBB678:
  63:../../libDaisy//src/hid/disp/graphics_common.h **** 
 1552              		.loc 9 63 54 view .LVU322
 1553 0068 C0F2FE80 		blt	.L178
 1554              	.L122:
  63:../../libDaisy//src/hid/disp/graphics_common.h **** 
 1555              		.loc 9 63 54 view .LVU323
 1556              	.LBE678:
 1557              	.LBE683:
 1558              	.LBB684:
 1559              	.LBB685:
  63:../../libDaisy//src/hid/disp/graphics_common.h **** 
 1560              		.loc 9 63 44 view .LVU324
 1561 006c 6488     		ldrh	r4, [r4, #2]
 1562              	.LVL114:
  63:../../libDaisy//src/hid/disp/graphics_common.h **** 
 1563              		.loc 9 63 44 view .LVU325
 1564              	.LBE685:
 1565              	.LBE684:
 1566              	.LBB691:
 1567              	.LBB692:
 1568              	.LBB693:
  32:../../libDaisy//src/hid/disp/graphics_common.h ****     {
 1569              		.loc 9 32 66 view .LVU326
 1570 006e 0698     		ldr	r0, [sp, #24]
 1571              	.LBE693:
 1572              	.LBE692:
 1573              	.LBE691:
 1574              	.LBB704:
 1575              	.LBB686:
  63:../../libDaisy//src/hid/disp/graphics_common.h **** 
 1576              		.loc 9 63 44 view .LVU327
 1577 0070 04EB6104 		add	r4, r4, r1, asr #1
 1578              	.LBE686:
 1579              	.LBE704:
 1580              	.LBB705:
 1581              	.LBB700:
 1582              	.LBB696:
  32:../../libDaisy//src/hid/disp/graphics_common.h ****     {
 1583              		.loc 9 32 66 view .LVU328
 1584 0074 C280     		strh	r2, [r0, #6]	@ movhi
 1585              	.LBE696:
 1586              	.LBE700:
ARM GAS  /tmp/ccZePa4k.s 			page 58


 1587              	.LBE705:
 252:../../libDaisy//src/hid/disp/graphics_common.h ****                         width_,
 1588              		.loc 9 252 58 view .LVU329
 1589 0076 A4EB5202 		sub	r2, r4, r2, lsr #1
 1590              	.LBB706:
 1591              	.LBB701:
 1592              	.LBB697:
  32:../../libDaisy//src/hid/disp/graphics_common.h ****     {
 1593              		.loc 9 32 66 view .LVU330
 1594 007a 8380     		strh	r3, [r0, #4]	@ movhi
 1595 007c 0780     		strh	r7, [r0]	@ movhi
 1596              	.LBE697:
 1597              	.LBE701:
 1598              	.LBE706:
 252:../../libDaisy//src/hid/disp/graphics_common.h ****                         width_,
 1599              		.loc 9 252 58 view .LVU331
 1600 007e 94B2     		uxth	r4, r2
 1601              	.LVL115:
 1602              	.LBB707:
 1603              	.LBI691:
  31:../../libDaisy//src/hid/disp/graphics_common.h ****     : x_(x), y_(y), width_(max(0, width)), height_(max(0, height))
 1604              		.loc 9 31 5 is_stmt 1 view .LVU332
 1605              	.LBB702:
 1606              	.LBB698:
  32:../../libDaisy//src/hid/disp/graphics_common.h ****     {
 1607              		.loc 9 32 66 is_stmt 0 view .LVU333
 1608 0080 4480     		strh	r4, [r0, #2]	@ movhi
 1609              	.LVL116:
 1610              	.LBB694:
 1611              	.LBI694:
 1612              		.loc 9 261 13 is_stmt 1 view .LVU334
 1613              	.LBE694:
 1614              	.LBE698:
 1615              	.LBE702:
 1616              	.LBE707:
 1617              	.LBE671:
 1618              	.LBE670:
 1619              		.loc 9 261 41 view .LVU335
 1620              	.LBB896:
 1621              	.LBB874:
 1622              	.LBB708:
 1623              	.LBB703:
 1624              	.LBB699:
 1625              	.LBB695:
 1626              	.LBI695:
 1627              		.loc 9 261 13 view .LVU336
 1628              	.LBE695:
 1629              	.LBE699:
 1630              	.LBE703:
 1631              	.LBE708:
 1632              	.LBE874:
 1633              	.LBE896:
 1634              		.loc 9 261 41 view .LVU337
 1635              	.L116:
  56:../../libDaisy//src/hid/disp/graphics_common.h ****     int16_t GetY() const { return y_; }
 1636              		.loc 9 56 28 view .LVU338
  57:../../libDaisy//src/hid/disp/graphics_common.h ****     int16_t GetWidth() const { return width_; }
ARM GAS  /tmp/ccZePa4k.s 			page 59


 1637              		.loc 9 57 28 view .LVU339
 1638              	.LBB897:
 1639              	.LBI897:
 171:../../libDaisy//src/hid/disp/display.h ****     {
 1640              		.loc 7 171 10 view .LVU340
 1641              	.LBB898:
 173:../../libDaisy//src/hid/disp/display.h ****         currentY_ = (y >= Height()) ? Height() - 1 : y;
 1642              		.loc 7 173 9 view .LVU341
 1643 0082 A64A     		ldr	r2, .L188
 173:../../libDaisy//src/hid/disp/display.h ****         currentY_ = (y >= Height()) ? Height() - 1 : y;
 1644              		.loc 7 173 33 is_stmt 0 view .LVU342
 1645 0084 D8F80030 		ldr	r3, [r8]
 1646 0088 1146     		mov	r1, r2
 1647 008a 0192     		str	r2, [sp, #4]
 1648 008c DA68     		ldr	r2, [r3, #12]
 1649 008e 8A42     		cmp	r2, r1
 1650 0090 40F08B81 		bne	.L124
 1651 0094 8020     		movs	r0, #128
 1652              	.LVL117:
 1653              	.L125:
 173:../../libDaisy//src/hid/disp/display.h ****         currentY_ = (y >= Height()) ? Height() - 1 : y;
 1654              		.loc 7 173 19 view .LVU343
 1655 0096 B842     		cmp	r0, r7
 1656 0098 05D8     		bhi	.L126
 173:../../libDaisy//src/hid/disp/display.h ****         currentY_ = (y >= Height()) ? Height() - 1 : y;
 1657              		.loc 7 173 44 view .LVU344
 1658 009a DA68     		ldr	r2, [r3, #12]
 1659 009c 0199     		ldr	r1, [sp, #4]
 1660 009e 8A42     		cmp	r2, r1
 1661 00a0 40F09881 		bne	.L179
 1662 00a4 7F27     		movs	r7, #127
 1663              	.L126:
 1664 00a6 9E4A     		ldr	r2, .L188+4
 174:../../libDaisy//src/hid/disp/display.h ****     }
 1665              		.loc 7 174 34 view .LVU345
 1666 00a8 9B68     		ldr	r3, [r3, #8]
 173:../../libDaisy//src/hid/disp/display.h ****         currentY_ = (y >= Height()) ? Height() - 1 : y;
 1667              		.loc 7 173 19 view .LVU346
 1668 00aa A8F80470 		strh	r7, [r8, #4]	@ movhi
 174:../../libDaisy//src/hid/disp/display.h ****     }
 1669              		.loc 7 174 9 is_stmt 1 view .LVU347
 1670 00ae 9342     		cmp	r3, r2
 1671 00b0 0392     		str	r2, [sp, #12]
 1672 00b2 40F08781 		bne	.L156
 174:../../libDaisy//src/hid/disp/display.h ****     }
 1673              		.loc 7 174 34 is_stmt 0 view .LVU348
 1674 00b6 4020     		movs	r0, #64
 1675              	.L128:
 174:../../libDaisy//src/hid/disp/display.h ****     }
 1676              		.loc 7 174 19 view .LVU349
 1677 00b8 A042     		cmp	r0, r4
 1678 00ba 07D8     		bhi	.L130
 174:../../libDaisy//src/hid/disp/display.h ****     }
 1679              		.loc 7 174 46 view .LVU350
 1680 00bc D8F80030 		ldr	r3, [r8]
 1681 00c0 039A     		ldr	r2, [sp, #12]
 1682 00c2 9B68     		ldr	r3, [r3, #8]
ARM GAS  /tmp/ccZePa4k.s 			page 60


 1683 00c4 9342     		cmp	r3, r2
 1684 00c6 40F08081 		bne	.L180
 1685 00ca 3F24     		movs	r4, #63
 1686              	.L130:
 174:../../libDaisy//src/hid/disp/display.h ****     }
 1687              		.loc 7 174 46 view .LVU351
 1688              	.LBE898:
 1689              	.LBE897:
 1690              	.LBB902:
 1691              	.LBB903:
 443:../../libDaisy//src/hid/disp/display.h ****         {
 1692              		.loc 7 443 9 view .LVU352
 1693 00cc 009B     		ldr	r3, [sp]
 1694              	.LBE903:
 1695              	.LBE902:
 1696              	.LBB951:
 1697              	.LBB899:
 174:../../libDaisy//src/hid/disp/display.h ****     }
 1698              		.loc 7 174 19 view .LVU353
 1699 00ce A8F80640 		strh	r4, [r8, #6]	@ movhi
 1700              	.LVL118:
 174:../../libDaisy//src/hid/disp/display.h ****     }
 1701              		.loc 7 174 19 view .LVU354
 1702              	.LBE899:
 1703              	.LBE951:
 1704              	.LBB952:
 1705              	.LBB948:
 443:../../libDaisy//src/hid/disp/display.h ****         {
 1706              		.loc 7 443 9 view .LVU355
 1707 00d2 93F800B0 		ldrb	fp, [r3]	@ zero_extendqisi2
 1708 00d6 6B78     		ldrb	r3, [r5, #1]	@ zero_extendqisi2
 1709              	.LVL119:
 443:../../libDaisy//src/hid/disp/display.h ****         {
 1710              		.loc 7 443 9 view .LVU356
 1711 00d8 2C78     		ldrb	r4, [r5]	@ zero_extendqisi2
 1712              	.LVL120:
 443:../../libDaisy//src/hid/disp/display.h ****         {
 1713              		.loc 7 443 9 view .LVU357
 1714 00da 0493     		str	r3, [sp, #16]
 1715              	.LVL121:
 443:../../libDaisy//src/hid/disp/display.h ****         {
 1716              		.loc 7 443 9 view .LVU358
 1717 00dc 6B68     		ldr	r3, [r5, #4]
 1718 00de 0793     		str	r3, [sp, #28]
 1719              	.LVL122:
 443:../../libDaisy//src/hid/disp/display.h ****         {
 1720              		.loc 7 443 9 view .LVU359
 1721              	.LBE948:
 1722              	.LBI902:
 440:../../libDaisy//src/hid/disp/display.h ****     {
 1723              		.loc 7 440 10 is_stmt 1 view .LVU360
 1724              	.LBB949:
 443:../../libDaisy//src/hid/disp/display.h ****         {
 1725              		.loc 7 443 9 view .LVU361
 1726 00e0 BBF1000F 		cmp	fp, #0
 1727 00e4 00F0AC80 		beq	.L102
 1728              	.LVL123:
ARM GAS  /tmp/ccZePa4k.s 			page 61


 1729              	.L132:
 1730              	.LBB904:
 1731              	.LBI904:
 396:../../libDaisy//src/hid/disp/display.h ****     {
 1732              		.loc 7 396 10 view .LVU362
 1733              	.LBB905:
 401:../../libDaisy//src/hid/disp/display.h ****             return 0;
 1734              		.loc 7 401 20 is_stmt 0 view .LVU363
 1735 00e8 ABF12005 		sub	r5, fp, #32
 401:../../libDaisy//src/hid/disp/display.h ****             return 0;
 1736              		.loc 7 401 9 view .LVU364
 1737 00ec EBB2     		uxtb	r3, r5
 1738 00ee 5E2B     		cmp	r3, #94
 1739 00f0 00F22C81 		bhi	.L136
 405:../../libDaisy//src/hid/disp/display.h ****            || Height() < (currentY_ + font.FontHeight))
 1740              		.loc 7 405 17 view .LVU365
 1741 00f4 D8F80030 		ldr	r3, [r8]
 1742 00f8 019A     		ldr	r2, [sp, #4]
 1743 00fa DB68     		ldr	r3, [r3, #12]
 1744 00fc 9342     		cmp	r3, r2
 1745 00fe 40F02881 		bne	.L181
 1746 0102 8020     		movs	r0, #128
 1747              	.L135:
 405:../../libDaisy//src/hid/disp/display.h ****            || Height() < (currentY_ + font.FontHeight))
 1748              		.loc 7 405 23 view .LVU366
 1749 0104 B8F80430 		ldrh	r3, [r8, #4]
 405:../../libDaisy//src/hid/disp/display.h ****            || Height() < (currentY_ + font.FontHeight))
 1750              		.loc 7 405 33 view .LVU367
 1751 0108 2344     		add	r3, r3, r4
 406:../../libDaisy//src/hid/disp/display.h ****         {
 1752              		.loc 7 406 12 view .LVU368
 1753 010a 9842     		cmp	r0, r3
 1754 010c C0F21E81 		blt	.L136
 406:../../libDaisy//src/hid/disp/display.h ****         {
 1755              		.loc 7 406 21 view .LVU369
 1756 0110 D8F80030 		ldr	r3, [r8]
 1757 0114 039A     		ldr	r2, [sp, #12]
 1758 0116 9B68     		ldr	r3, [r3, #8]
 1759 0118 9342     		cmp	r3, r2
 1760 011a 40F01D81 		bne	.L182
 1761 011e 4020     		movs	r0, #64
 1762              	.L137:
 406:../../libDaisy//src/hid/disp/display.h ****         {
 1763              		.loc 7 406 27 view .LVU370
 1764 0120 B8F80610 		ldrh	r1, [r8, #6]
 406:../../libDaisy//src/hid/disp/display.h ****         {
 1765              		.loc 7 406 37 view .LVU371
 1766 0124 049A     		ldr	r2, [sp, #16]
 406:../../libDaisy//src/hid/disp/display.h ****         {
 1767              		.loc 7 406 27 view .LVU372
 1768 0126 0291     		str	r1, [sp, #8]
 406:../../libDaisy//src/hid/disp/display.h ****         {
 1769              		.loc 7 406 37 view .LVU373
 1770 0128 8B18     		adds	r3, r1, r2
 406:../../libDaisy//src/hid/disp/display.h ****         {
 1771              		.loc 7 406 12 view .LVU374
 1772 012a 9842     		cmp	r0, r3
ARM GAS  /tmp/ccZePa4k.s 			page 62


 1773 012c C0F20E81 		blt	.L136
 1774              	.LVL124:
 413:../../libDaisy//src/hid/disp/display.h ****         {
 1775              		.loc 7 413 22 is_stmt 1 view .LVU375
 1776 0130 002A     		cmp	r2, #0
 1777 0132 00F01C81 		beq	.L138
 415:../../libDaisy//src/hid/disp/display.h ****             for(j = 0; j < font.FontWidth; j++)
 1778              		.loc 7 415 37 is_stmt 0 view .LVU376
 1779 0136 02FB05F5 		mul	r5, r2, r5
 1780 013a 6FF0004E 		mvn	lr, #-2147483648
 1781 013e 079B     		ldr	r3, [sp, #28]
 1782 0140 AE44     		add	lr, lr, r5
 1783 0142 1544     		add	r5, r5, r2
 1784 0144 CDF814B0 		str	fp, [sp, #20]
 1785 0148 03EB4E0E 		add	lr, r3, lr, lsl #1
 1786 014c 023B     		subs	r3, r3, #2
 434:../../libDaisy//src/hid/disp/display.h **** 
 1787              		.loc 7 434 19 view .LVU377
 1788 014e B8F804A0 		ldrh	r10, [r8, #4]
 1789 0152 03EB4503 		add	r3, r3, r5, lsl #1
 1790 0156 0D46     		mov	r5, r1
 1791 0158 9B46     		mov	fp, r3
 1792              	.LVL125:
 1793              	.L141:
 415:../../libDaisy//src/hid/disp/display.h ****             for(j = 0; j < font.FontWidth; j++)
 1794              		.loc 7 415 15 view .LVU378
 1795 015a 3EF8027F 		ldrh	r7, [lr, #2]!
 1796              	.LVL126:
 416:../../libDaisy//src/hid/disp/display.h ****             {
 1797              		.loc 7 416 26 is_stmt 1 view .LVU379
 1798 015e A4B3     		cbz	r4, .L146
 1799              	.LBB906:
 1800              	.LBB907:
 1801              	.LBB908:
 1802              	.LBB909:
 1803              	.LBB910:
 259:../../libDaisy//src/dev/oled_ssd130x.h ****     }
 1804              		.loc 8 259 55 is_stmt 0 view .LVU380
 1805 0160 05F00703 		and	r3, r5, #7
 259:../../libDaisy//src/dev/oled_ssd130x.h ****     }
 1806              		.loc 8 259 49 view .LVU381
 1807 0164 4FF0010C 		mov	ip, #1
 259:../../libDaisy//src/dev/oled_ssd130x.h ****     }
 1808              		.loc 8 259 28 view .LVU382
 1809 0168 EA08     		lsrs	r2, r5, #3
 1810 016a 5146     		mov	r1, r10
 259:../../libDaisy//src/dev/oled_ssd130x.h ****     }
 1811              		.loc 8 259 49 view .LVU383
 1812 016c 0CFA03FC 		lsl	ip, ip, r3
 1813 0170 0AF11403 		add	r3, r10, #20
 259:../../libDaisy//src/dev/oled_ssd130x.h ****     }
 1814              		.loc 8 259 42 view .LVU384
 1815 0174 4FFA8CFC 		sxtb	ip, ip
 1816 0178 03EBC212 		add	r2, r3, r2, lsl #7
 1817              	.LBE910:
 1818              	.LBE909:
 1819              	.LBE908:
ARM GAS  /tmp/ccZePa4k.s 			page 63


 1820              	.LBE907:
 1821              	.LBE906:
 416:../../libDaisy//src/hid/disp/display.h ****             {
 1822              		.loc 7 416 19 view .LVU385
 1823 017c 0023     		movs	r3, #0
 1824              	.LBB928:
 1825              	.LBB923:
 1826              	.LBB918:
 1827              	.LBB914:
 1828              	.LBB911:
 259:../../libDaisy//src/dev/oled_ssd130x.h ****     }
 1829              		.loc 8 259 42 view .LVU386
 1830 017e 6FEA0C09 		mvn	r9, ip
 1831 0182 4244     		add	r2, r2, r8
 1832 0184 0DE0     		b	.L147
 1833              	.LVL127:
 1834              	.L183:
 259:../../libDaisy//src/dev/oled_ssd130x.h ****     }
 1835              		.loc 8 259 42 view .LVU387
 1836              	.LBE911:
 1837              	.LBE914:
 1838              	.LBE918:
 1839              	.LBE923:
 1840              	.LBE928:
 1841              	.LBB929:
 1842              	.LBI929:
  42:../../libDaisy//src/hid/disp/oled_display.h ****     {
 1843              		.loc 6 42 10 is_stmt 1 view .LVU388
 1844              	.LBB930:
 1845              	.LBI930:
 252:../../libDaisy//src/dev/oled_ssd130x.h ****     {
 1846              		.loc 8 252 10 view .LVU389
 1847              	.LBB931:
 254:../../libDaisy//src/dev/oled_ssd130x.h ****             return;
 1848              		.loc 8 254 9 is_stmt 0 view .LVU390
 1849 0186 7F29     		cmp	r1, #127
 1850 0188 06D8     		bhi	.L143
 1851 018a 3F2D     		cmp	r5, #63
 1852 018c 04D8     		bhi	.L143
 257:../../libDaisy//src/dev/oled_ssd130x.h ****         else
 1853              		.loc 8 257 42 view .LVU391
 1854 018e 1078     		ldrb	r0, [r2]	@ zero_extendqisi2
 256:../../libDaisy//src/dev/oled_ssd130x.h ****             buffer_[x + (y / 8) * width] |= (1 << (y % 8));
 1855              		.loc 8 256 9 view .LVU392
 1856 0190 96B1     		cbz	r6, .L145
 1857              	.L177:
 256:../../libDaisy//src/dev/oled_ssd130x.h ****             buffer_[x + (y / 8) * width] |= (1 << (y % 8));
 1858              		.loc 8 256 9 view .LVU393
 1859              	.LBE931:
 1860              	.LBE930:
 1861              	.LBE929:
 1862              	.LBB932:
 1863              	.LBB924:
 1864              	.LBB919:
 257:../../libDaisy//src/dev/oled_ssd130x.h ****         else
 1865              		.loc 8 257 42 view .LVU394
 1866 0192 4CEA0000 		orr	r0, ip, r0
ARM GAS  /tmp/ccZePa4k.s 			page 64


 1867 0196 1070     		strb	r0, [r2]
 1868              	.L143:
 1869              	.LBE919:
 1870              	.LBE924:
 1871              	.LBE932:
 416:../../libDaisy//src/hid/disp/display.h ****             {
 1872              		.loc 7 416 13 is_stmt 1 view .LVU395
 1873 0198 0133     		adds	r3, r3, #1
 1874              	.LVL128:
 416:../../libDaisy//src/hid/disp/display.h ****             {
 1875              		.loc 7 416 26 view .LVU396
 1876 019a 0132     		adds	r2, r2, #1
 1877 019c 0131     		adds	r1, r1, #1
 1878 019e 9C42     		cmp	r4, r3
 1879 01a0 13D0     		beq	.L146
 1880              	.LVL129:
 1881              	.L147:
 418:../../libDaisy//src/hid/disp/display.h ****                 {
 1882              		.loc 7 418 23 is_stmt 0 view .LVU397
 1883 01a2 07FA03F0 		lsl	r0, r7, r3
 418:../../libDaisy//src/hid/disp/display.h ****                 {
 1884              		.loc 7 418 17 view .LVU398
 1885 01a6 0004     		lsls	r0, r0, #16
 1886 01a8 EDD4     		bmi	.L183
 1887              	.LVL130:
 1888              	.LBB933:
 1889              	.LBI906:
  42:../../libDaisy//src/hid/disp/oled_display.h ****     {
 1890              		.loc 6 42 10 is_stmt 1 view .LVU399
 1891              	.LBB925:
 1892              	.LBI907:
 252:../../libDaisy//src/dev/oled_ssd130x.h ****     {
 1893              		.loc 8 252 10 view .LVU400
 1894              	.LBB920:
 254:../../libDaisy//src/dev/oled_ssd130x.h ****             return;
 1895              		.loc 8 254 9 is_stmt 0 view .LVU401
 1896 01aa 7F29     		cmp	r1, #127
 1897 01ac F4D8     		bhi	.L143
 1898 01ae 3F2D     		cmp	r5, #63
 1899 01b0 F2D8     		bhi	.L143
 257:../../libDaisy//src/dev/oled_ssd130x.h ****         else
 1900              		.loc 8 257 42 view .LVU402
 1901 01b2 1078     		ldrb	r0, [r2]	@ zero_extendqisi2
 256:../../libDaisy//src/dev/oled_ssd130x.h ****             buffer_[x + (y / 8) * width] |= (1 << (y % 8));
 1902              		.loc 8 256 9 view .LVU403
 1903 01b4 002E     		cmp	r6, #0
 1904 01b6 ECD0     		beq	.L177
 1905              	.L145:
 1906              	.LVL131:
 1907              	.LBB915:
 1908              	.LBI909:
 252:../../libDaisy//src/dev/oled_ssd130x.h ****     {
 1909              		.loc 8 252 10 is_stmt 1 view .LVU404
 252:../../libDaisy//src/dev/oled_ssd130x.h ****     {
 1910              		.loc 8 252 10 is_stmt 0 view .LVU405
 1911              	.LBE915:
 1912              	.LBE920:
ARM GAS  /tmp/ccZePa4k.s 			page 65


 1913              	.LBE925:
 1914              	.LBE933:
 416:../../libDaisy//src/hid/disp/display.h ****             {
 1915              		.loc 7 416 13 view .LVU406
 1916 01b8 0133     		adds	r3, r3, #1
 1917              	.LVL132:
 1918              	.LBB934:
 1919              	.LBB926:
 1920              	.LBB921:
 1921              	.LBB916:
 1922              	.LBB912:
 259:../../libDaisy//src/dev/oled_ssd130x.h ****     }
 1923              		.loc 8 259 42 view .LVU407
 1924 01ba 09EA0000 		and	r0, r9, r0
 1925              	.LBE912:
 1926              	.LBE916:
 1927              	.LBE921:
 1928              	.LBE926:
 1929              	.LBE934:
 416:../../libDaisy//src/hid/disp/display.h ****             {
 1930              		.loc 7 416 26 view .LVU408
 1931 01be 0132     		adds	r2, r2, #1
 1932 01c0 0131     		adds	r1, r1, #1
 1933 01c2 9C42     		cmp	r4, r3
 1934              	.LBB935:
 1935              	.LBB927:
 1936              	.LBB922:
 1937              	.LBB917:
 1938              	.LBB913:
 259:../../libDaisy//src/dev/oled_ssd130x.h ****     }
 1939              		.loc 8 259 42 view .LVU409
 1940 01c4 02F8010C 		strb	r0, [r2, #-1]
 259:../../libDaisy//src/dev/oled_ssd130x.h ****     }
 1941              		.loc 8 259 42 view .LVU410
 1942              	.LBE913:
 1943              	.LBE917:
 1944              	.LBE922:
 1945              	.LBE927:
 1946              	.LBE935:
 416:../../libDaisy//src/hid/disp/display.h ****             {
 1947              		.loc 7 416 13 is_stmt 1 view .LVU411
 1948              	.LVL133:
 416:../../libDaisy//src/hid/disp/display.h ****             {
 1949              		.loc 7 416 26 view .LVU412
 1950 01c8 EBD1     		bne	.L147
 1951              	.LVL134:
 1952              	.L146:
 413:../../libDaisy//src/hid/disp/display.h ****         {
 1953              		.loc 7 413 9 view .LVU413
 413:../../libDaisy//src/hid/disp/display.h ****         {
 1954              		.loc 7 413 22 view .LVU414
 1955 01ca F345     		cmp	fp, lr
 1956 01cc 05F10105 		add	r5, r5, #1
 1957 01d0 C3D1     		bne	.L141
 1958 01d2 DDF814B0 		ldr	fp, [sp, #20]
 1959              	.LVL135:
 1960              	.L140:
ARM GAS  /tmp/ccZePa4k.s 			page 66


 1961              	.LBB936:
 1962              	.LBB937:
 173:../../libDaisy//src/hid/disp/display.h ****         currentY_ = (y >= Height()) ? Height() - 1 : y;
 1963              		.loc 7 173 33 is_stmt 0 view .LVU415
 1964 01d6 D8F80020 		ldr	r2, [r8]
 1965              	.LBE937:
 1966              	.LBE936:
 434:../../libDaisy//src/hid/disp/display.h **** 
 1967              		.loc 7 434 18 view .LVU416
 1968 01da 0AEB0405 		add	r5, r10, r4
 1969 01de 0199     		ldr	r1, [sp, #4]
 1970              	.LBB942:
 1971              	.LBB938:
 173:../../libDaisy//src/hid/disp/display.h ****         currentY_ = (y >= Height()) ? Height() - 1 : y;
 1972              		.loc 7 173 33 view .LVU417
 1973 01e0 D368     		ldr	r3, [r2, #12]
 1974              	.LBE938:
 1975              	.LBE942:
 434:../../libDaisy//src/hid/disp/display.h **** 
 1976              		.loc 7 434 18 view .LVU418
 1977 01e2 ADB2     		uxth	r5, r5
 1978              	.LVL136:
 1979              	.LBB943:
 1980              	.LBI936:
 171:../../libDaisy//src/hid/disp/display.h ****     {
 1981              		.loc 7 171 10 is_stmt 1 view .LVU419
 1982              	.LBB939:
 173:../../libDaisy//src/hid/disp/display.h ****         currentY_ = (y >= Height()) ? Height() - 1 : y;
 1983              		.loc 7 173 9 view .LVU420
 1984 01e4 8B42     		cmp	r3, r1
 1985 01e6 40F0BD80 		bne	.L184
 173:../../libDaisy//src/hid/disp/display.h ****         currentY_ = (y >= Height()) ? Height() - 1 : y;
 1986              		.loc 7 173 33 is_stmt 0 view .LVU421
 1987 01ea 8020     		movs	r0, #128
 1988              	.L148:
 173:../../libDaisy//src/hid/disp/display.h ****         currentY_ = (y >= Height()) ? Height() - 1 : y;
 1989              		.loc 7 173 19 view .LVU422
 1990 01ec 8542     		cmp	r5, r0
 1991 01ee 05D3     		bcc	.L149
 173:../../libDaisy//src/hid/disp/display.h ****         currentY_ = (y >= Height()) ? Height() - 1 : y;
 1992              		.loc 7 173 44 view .LVU423
 1993 01f0 D368     		ldr	r3, [r2, #12]
 1994 01f2 0199     		ldr	r1, [sp, #4]
 1995 01f4 8B42     		cmp	r3, r1
 1996 01f6 40F0C380 		bne	.L185
 1997 01fa 7F25     		movs	r5, #127
 1998              	.LVL137:
 1999              	.L149:
 174:../../libDaisy//src/hid/disp/display.h ****     }
 2000              		.loc 7 174 34 view .LVU424
 2001 01fc 9368     		ldr	r3, [r2, #8]
 2002 01fe 039A     		ldr	r2, [sp, #12]
 173:../../libDaisy//src/hid/disp/display.h ****         currentY_ = (y >= Height()) ? Height() - 1 : y;
 2003              		.loc 7 173 19 view .LVU425
 2004 0200 A8F80450 		strh	r5, [r8, #4]	@ movhi
 174:../../libDaisy//src/hid/disp/display.h ****     }
 2005              		.loc 7 174 9 is_stmt 1 view .LVU426
ARM GAS  /tmp/ccZePa4k.s 			page 67


 2006 0204 9342     		cmp	r3, r2
 2007 0206 40F0AA80 		bne	.L186
 174:../../libDaisy//src/hid/disp/display.h ****     }
 2008              		.loc 7 174 34 is_stmt 0 view .LVU427
 2009 020a 4020     		movs	r0, #64
 2010              	.L151:
 174:../../libDaisy//src/hid/disp/display.h ****     }
 2011              		.loc 7 174 19 view .LVU428
 2012 020c 029B     		ldr	r3, [sp, #8]
 2013 020e 8342     		cmp	r3, r0
 2014 0210 08D3     		bcc	.L152
 174:../../libDaisy//src/hid/disp/display.h ****     }
 2015              		.loc 7 174 46 view .LVU429
 2016 0212 D8F80030 		ldr	r3, [r8]
 2017 0216 039A     		ldr	r2, [sp, #12]
 2018 0218 9B68     		ldr	r3, [r3, #8]
 2019 021a 9342     		cmp	r3, r2
 2020 021c 40F0AA80 		bne	.L187
 2021 0220 3F23     		movs	r3, #63
 2022 0222 0293     		str	r3, [sp, #8]
 2023              	.LVL138:
 2024              	.L152:
 174:../../libDaisy//src/hid/disp/display.h ****     }
 2025              		.loc 7 174 19 view .LVU430
 2026 0224 029B     		ldr	r3, [sp, #8]
 2027 0226 A8F80630 		strh	r3, [r8, #6]	@ movhi
 2028              	.LVL139:
 2029              	.L134:
 174:../../libDaisy//src/hid/disp/display.h ****     }
 2030              		.loc 7 174 19 view .LVU431
 2031              	.LBE939:
 2032              	.LBE943:
 2033              	.LBE905:
 2034              	.LBE904:
 445:../../libDaisy//src/hid/disp/display.h ****                != *str)
 2035              		.loc 7 445 13 view .LVU432
 2036 022a 009A     		ldr	r2, [sp]
 2037 022c 1378     		ldrb	r3, [r2]	@ zero_extendqisi2
 2038 022e 5B45     		cmp	r3, fp
 2039 0230 06D1     		bne	.L102
 2040              	.LVL140:
 443:../../libDaisy//src/hid/disp/display.h ****         {
 2041              		.loc 7 443 9 is_stmt 1 view .LVU433
 2042 0232 12F801BF 		ldrb	fp, [r2, #1]!	@ zero_extendqisi2
 2043              	.LVL141:
 443:../../libDaisy//src/hid/disp/display.h ****         {
 2044              		.loc 7 443 9 is_stmt 0 view .LVU434
 2045 0236 0092     		str	r2, [sp]
 2046 0238 BBF1000F 		cmp	fp, #0
 2047 023c 7FF454AF 		bne	.L132
 2048              	.LVL142:
 2049              	.L102:
 443:../../libDaisy//src/hid/disp/display.h ****         {
 2050              		.loc 7 443 9 view .LVU435
 2051              	.LBE949:
 2052              	.LBE952:
 471:../../libDaisy//src/hid/disp/display.h **** 
ARM GAS  /tmp/ccZePa4k.s 			page 68


 2053              		.loc 7 471 5 view .LVU436
 2054 0240 0698     		ldr	r0, [sp, #24]
 2055 0242 09B0     		add	sp, sp, #36
 2056              		.cfi_remember_state
 2057              		.cfi_def_cfa_offset 36
 2058              		@ sp needed
 2059 0244 BDE8F08F 		pop	{r4, r5, r6, r7, r8, r9, r10, fp, pc}
 2060              	.LVL143:
 2061              	.L115:
 2062              		.cfi_restore_state
 2063              	.LBB953:
 2064              	.LBB875:
 250:../../libDaisy//src/hid/disp/graphics_common.h ****                 return {int16_t(x_ + (other.GetCenterX() - GetCenterX())),
 2065              		.loc 9 250 13 is_stmt 1 view .LVU437
 251:../../libDaisy//src/hid/disp/graphics_common.h ****                         int16_t(y_ + (other.GetCenterY() - GetCenterY())),
 2066              		.loc 9 251 17 view .LVU438
 2067              	.LBB709:
 2068              	.LBI709:
  62:../../libDaisy//src/hid/disp/graphics_common.h ****     int16_t GetCenterY() const { return y_ + height_ / 2; }
 2069              		.loc 9 62 13 view .LVU439
 2070              	.LBB710:
  62:../../libDaisy//src/hid/disp/graphics_common.h ****     int16_t GetCenterY() const { return y_ + height_ / 2; }
 2071              		.loc 9 62 34 view .LVU440
  62:../../libDaisy//src/hid/disp/graphics_common.h ****     int16_t GetCenterY() const { return y_ + height_ / 2; }
 2072              		.loc 9 62 34 is_stmt 0 view .LVU441
 2073              	.LBE710:
 2074              	.LBE709:
 2075              	.LBB712:
 2076              	.LBI712:
  62:../../libDaisy//src/hid/disp/graphics_common.h ****     int16_t GetCenterY() const { return y_ + height_ / 2; }
 2077              		.loc 9 62 13 is_stmt 1 view .LVU442
 2078              	.LBB713:
  62:../../libDaisy//src/hid/disp/graphics_common.h ****     int16_t GetCenterY() const { return y_ + height_ / 2; }
 2079              		.loc 9 62 34 view .LVU443
  62:../../libDaisy//src/hid/disp/graphics_common.h ****     int16_t GetCenterY() const { return y_ + height_ / 2; }
 2080              		.loc 9 62 34 is_stmt 0 view .LVU444
 2081              	.LBE713:
 2082              	.LBE712:
 2083              	.LBB714:
 2084              	.LBB711:
  62:../../libDaisy//src/hid/disp/graphics_common.h ****     int16_t GetCenterY() const { return y_ + height_ / 2; }
 2085              		.loc 9 62 53 view .LVU445
 2086 0248 B4F90410 		ldrsh	r1, [r4, #4]
 2087              	.LVL144:
  62:../../libDaisy//src/hid/disp/graphics_common.h ****     int16_t GetCenterY() const { return y_ + height_ / 2; }
 2088              		.loc 9 62 44 view .LVU446
 2089 024c 2788     		ldrh	r7, [r4]
  62:../../libDaisy//src/hid/disp/graphics_common.h ****     int16_t GetCenterY() const { return y_ + height_ / 2; }
 2090              		.loc 9 62 53 view .LVU447
 2091 024e 0029     		cmp	r1, #0
 2092 0250 B8BF     		it	lt
 2093 0252 0131     		addlt	r1, r1, #1
  62:../../libDaisy//src/hid/disp/graphics_common.h ****     int16_t GetCenterY() const { return y_ + height_ / 2; }
 2094              		.loc 9 62 44 view .LVU448
 2095 0254 07EB6107 		add	r7, r7, r1, asr #1
 2096              	.LBE711:
 2097              	.LBE714:
ARM GAS  /tmp/ccZePa4k.s 			page 69


 2098              	.LBB715:
 2099              	.LBB687:
  63:../../libDaisy//src/hid/disp/graphics_common.h **** 
 2100              		.loc 9 63 54 view .LVU449
 2101 0258 B4F90610 		ldrsh	r1, [r4, #6]
 2102              	.LBE687:
 2103              	.LBE715:
 251:../../libDaisy//src/hid/disp/graphics_common.h ****                         int16_t(y_ + (other.GetCenterY() - GetCenterY())),
 2104              		.loc 9 251 58 view .LVU450
 2105 025c A7EB6307 		sub	r7, r7, r3, asr #1
 2106              	.LBB716:
 2107              	.LBB688:
  63:../../libDaisy//src/hid/disp/graphics_common.h **** 
 2108              		.loc 9 63 54 view .LVU451
 2109 0260 0029     		cmp	r1, #0
 2110              	.LBE688:
 2111              	.LBE716:
 251:../../libDaisy//src/hid/disp/graphics_common.h ****                         int16_t(y_ + (other.GetCenterY() - GetCenterY())),
 2112              		.loc 9 251 58 view .LVU452
 2113 0262 BFB2     		uxth	r7, r7
 2114              	.LVL145:
 2115              	.LBB717:
 2116              	.LBI684:
  63:../../libDaisy//src/hid/disp/graphics_common.h **** 
 2117              		.loc 9 63 13 is_stmt 1 view .LVU453
 2118              	.LBB689:
  63:../../libDaisy//src/hid/disp/graphics_common.h **** 
 2119              		.loc 9 63 34 view .LVU454
  63:../../libDaisy//src/hid/disp/graphics_common.h **** 
 2120              		.loc 9 63 34 is_stmt 0 view .LVU455
 2121              	.LBE689:
 2122              	.LBE717:
 2123              	.LBB718:
 2124              	.LBI718:
  63:../../libDaisy//src/hid/disp/graphics_common.h **** 
 2125              		.loc 9 63 13 is_stmt 1 view .LVU456
 2126              	.LBB719:
  63:../../libDaisy//src/hid/disp/graphics_common.h **** 
 2127              		.loc 9 63 34 view .LVU457
  63:../../libDaisy//src/hid/disp/graphics_common.h **** 
 2128              		.loc 9 63 34 is_stmt 0 view .LVU458
 2129              	.LBE719:
 2130              	.LBE718:
 2131              	.LBB720:
 2132              	.LBB690:
  63:../../libDaisy//src/hid/disp/graphics_common.h **** 
 2133              		.loc 9 63 54 view .LVU459
 2134 0264 BFF602AF 		bge	.L122
 2135              	.L178:
  63:../../libDaisy//src/hid/disp/graphics_common.h **** 
 2136              		.loc 9 63 54 view .LVU460
 2137 0268 0131     		adds	r1, r1, #1
 2138 026a FFE6     		b	.L122
 2139              	.LVL146:
 2140              	.L114:
  63:../../libDaisy//src/hid/disp/graphics_common.h **** 
 2141              		.loc 9 63 54 view .LVU461
ARM GAS  /tmp/ccZePa4k.s 			page 70


 2142              	.LBE690:
 2143              	.LBE720:
 213:../../libDaisy//src/hid/disp/graphics_common.h ****                 return {other.x_, other.y_, width_, height_};
 2144              		.loc 9 213 13 is_stmt 1 view .LVU462
 214:../../libDaisy//src/hid/disp/graphics_common.h ****             case Alignment::topRight:
 2145              		.loc 9 214 17 view .LVU463
 214:../../libDaisy//src/hid/disp/graphics_common.h ****             case Alignment::topRight:
 2146              		.loc 9 214 31 is_stmt 0 view .LVU464
 2147 026c B4F90070 		ldrsh	r7, [r4]
 2148              	.LBB721:
 2149              	.LBB722:
 2150              	.LBB723:
  32:../../libDaisy//src/hid/disp/graphics_common.h ****     {
 2151              		.loc 9 32 66 view .LVU465
 2152 0270 0699     		ldr	r1, [sp, #24]
 2153              	.LVL147:
  32:../../libDaisy//src/hid/disp/graphics_common.h ****     {
 2154              		.loc 9 32 66 view .LVU466
 2155              	.LBE723:
 2156              	.LBE722:
 2157              	.LBE721:
 214:../../libDaisy//src/hid/disp/graphics_common.h ****             case Alignment::topRight:
 2158              		.loc 9 214 41 view .LVU467
 2159 0272 B4F90240 		ldrsh	r4, [r4, #2]
 2160              	.LVL148:
 2161              	.LBB736:
 2162              	.LBI721:
  31:../../libDaisy//src/hid/disp/graphics_common.h ****     : x_(x), y_(y), width_(max(0, width)), height_(max(0, height))
 2163              		.loc 9 31 5 is_stmt 1 view .LVU468
 2164              	.LBB731:
 2165              	.LBB726:
  32:../../libDaisy//src/hid/disp/graphics_common.h ****     {
 2166              		.loc 9 32 66 is_stmt 0 view .LVU469
 2167 0276 0F80     		strh	r7, [r1]	@ movhi
 2168              	.LBE726:
 2169              	.LBE731:
 2170              	.LBE736:
 2171              	.LBE875:
 2172              	.LBE953:
 468:../../libDaisy//src/hid/disp/display.h ****         ((ChildType*)(this))->ChildType::WriteString(str, font, on);
 2173              		.loc 7 468 18 view .LVU470
 2174 0278 BFB2     		uxth	r7, r7
 2175              	.LVL149:
 2176              	.LBB954:
 2177              	.LBB876:
 2178              	.LBB737:
 2179              	.LBB732:
 2180              	.LBB727:
  32:../../libDaisy//src/hid/disp/graphics_common.h ****     {
 2181              		.loc 9 32 66 view .LVU471
 2182 027a 4C80     		strh	r4, [r1, #2]	@ movhi
 2183              	.LBE727:
 2184              	.LBE732:
 2185              	.LBE737:
 2186              	.LBE876:
 2187              	.LBE954:
 468:../../libDaisy//src/hid/disp/display.h ****         ((ChildType*)(this))->ChildType::WriteString(str, font, on);
ARM GAS  /tmp/ccZePa4k.s 			page 71


 2188              		.loc 7 468 18 view .LVU472
 2189 027c A4B2     		uxth	r4, r4
 2190              	.LVL150:
 2191              	.LBB955:
 2192              	.LBB877:
 2193              	.LBB738:
 2194              	.LBB733:
 2195              	.LBB728:
  32:../../libDaisy//src/hid/disp/graphics_common.h ****     {
 2196              		.loc 9 32 66 view .LVU473
 2197 027e 8B80     		strh	r3, [r1, #4]	@ movhi
 2198              	.LVL151:
 2199              	.LBB724:
 2200              	.LBI724:
 2201              		.loc 9 261 13 is_stmt 1 view .LVU474
 2202              	.LBE724:
 2203              	.LBE728:
 2204              	.LBE733:
 2205              	.LBE738:
 2206              	.LBE877:
 2207              	.LBE955:
 2208              		.loc 9 261 41 view .LVU475
 2209              	.LBB956:
 2210              	.LBB878:
 2211              	.LBB739:
 2212              	.LBB734:
 2213              	.LBB729:
 2214              	.LBB725:
 2215              	.LBI725:
 2216              		.loc 9 261 13 view .LVU476
 2217              	.LBE725:
 2218              	.LBE729:
 2219              	.LBE734:
 2220              	.LBE739:
 2221              	.LBE878:
 2222              	.LBE956:
 2223              		.loc 9 261 41 view .LVU477
 2224              	.LBB957:
 2225              	.LBB879:
 2226              	.LBB740:
 2227              	.LBB735:
 2228              	.LBB730:
  32:../../libDaisy//src/hid/disp/graphics_common.h ****     {
 2229              		.loc 9 32 66 is_stmt 0 view .LVU478
 2230 0280 CA80     		strh	r2, [r1, #6]	@ movhi
 2231              	.LBE730:
  34:../../libDaisy//src/hid/disp/graphics_common.h **** 
 2232              		.loc 9 34 5 view .LVU479
 2233 0282 FEE6     		b	.L116
 2234              	.LVL152:
 2235              	.L113:
  34:../../libDaisy//src/hid/disp/graphics_common.h **** 
 2236              		.loc 9 34 5 view .LVU480
 2237              	.LBE735:
 2238              	.LBE740:
 220:../../libDaisy//src/hid/disp/graphics_common.h ****                 return {int16_t(x_ + (other.GetCenterX() - GetCenterX())),
 2239              		.loc 9 220 13 is_stmt 1 view .LVU481
ARM GAS  /tmp/ccZePa4k.s 			page 72


 221:../../libDaisy//src/hid/disp/graphics_common.h ****                         other.y_,
 2240              		.loc 9 221 17 view .LVU482
 2241              	.LBB741:
 2242              	.LBI741:
  62:../../libDaisy//src/hid/disp/graphics_common.h ****     int16_t GetCenterY() const { return y_ + height_ / 2; }
 2243              		.loc 9 62 13 view .LVU483
 2244              	.LBB742:
  62:../../libDaisy//src/hid/disp/graphics_common.h ****     int16_t GetCenterY() const { return y_ + height_ / 2; }
 2245              		.loc 9 62 34 view .LVU484
  62:../../libDaisy//src/hid/disp/graphics_common.h ****     int16_t GetCenterY() const { return y_ + height_ / 2; }
 2246              		.loc 9 62 34 is_stmt 0 view .LVU485
 2247              	.LBE742:
 2248              	.LBE741:
 2249              	.LBB745:
 2250              	.LBI745:
  62:../../libDaisy//src/hid/disp/graphics_common.h ****     int16_t GetCenterY() const { return y_ + height_ / 2; }
 2251              		.loc 9 62 13 is_stmt 1 view .LVU486
 2252              	.LBB746:
  62:../../libDaisy//src/hid/disp/graphics_common.h ****     int16_t GetCenterY() const { return y_ + height_ / 2; }
 2253              		.loc 9 62 34 view .LVU487
  62:../../libDaisy//src/hid/disp/graphics_common.h ****     int16_t GetCenterY() const { return y_ + height_ / 2; }
 2254              		.loc 9 62 34 is_stmt 0 view .LVU488
 2255              	.LBE746:
 2256              	.LBE745:
 2257              	.LBB747:
 2258              	.LBB743:
  62:../../libDaisy//src/hid/disp/graphics_common.h ****     int16_t GetCenterY() const { return y_ + height_ / 2; }
 2259              		.loc 9 62 53 view .LVU489
 2260 0284 B4F90410 		ldrsh	r1, [r4, #4]
 2261              	.LVL153:
  62:../../libDaisy//src/hid/disp/graphics_common.h ****     int16_t GetCenterY() const { return y_ + height_ / 2; }
 2262              		.loc 9 62 44 view .LVU490
 2263 0288 2788     		ldrh	r7, [r4]
  62:../../libDaisy//src/hid/disp/graphics_common.h ****     int16_t GetCenterY() const { return y_ + height_ / 2; }
 2264              		.loc 9 62 53 view .LVU491
 2265 028a 0029     		cmp	r1, #0
 2266              	.LBE743:
 2267              	.LBE747:
 222:../../libDaisy//src/hid/disp/graphics_common.h ****                         width_,
 2268              		.loc 9 222 31 view .LVU492
 2269 028c B4F90240 		ldrsh	r4, [r4, #2]
 2270              	.LVL154:
 2271              	.LBB748:
 2272              	.LBB744:
  62:../../libDaisy//src/hid/disp/graphics_common.h ****     int16_t GetCenterY() const { return y_ + height_ / 2; }
 2273              		.loc 9 62 53 view .LVU493
 2274 0290 B8BF     		it	lt
 2275 0292 0131     		addlt	r1, r1, #1
  62:../../libDaisy//src/hid/disp/graphics_common.h ****     int16_t GetCenterY() const { return y_ + height_ / 2; }
 2276              		.loc 9 62 44 view .LVU494
 2277 0294 07EB6107 		add	r7, r7, r1, asr #1
 2278              	.LBE744:
 2279              	.LBE748:
 2280              	.LBB749:
 2281              	.LBB750:
 2282              	.LBB751:
  32:../../libDaisy//src/hid/disp/graphics_common.h ****     {
ARM GAS  /tmp/ccZePa4k.s 			page 73


 2283              		.loc 9 32 66 view .LVU495
 2284 0298 0699     		ldr	r1, [sp, #24]
 2285 029a 8B80     		strh	r3, [r1, #4]	@ movhi
 2286              	.LBE751:
 2287              	.LBE750:
 2288              	.LBE749:
 221:../../libDaisy//src/hid/disp/graphics_common.h ****                         other.y_,
 2289              		.loc 9 221 58 view .LVU496
 2290 029c A7EB6303 		sub	r3, r7, r3, asr #1
 2291              	.LBB762:
 2292              	.LBB758:
 2293              	.LBB754:
  32:../../libDaisy//src/hid/disp/graphics_common.h ****     {
 2294              		.loc 9 32 66 view .LVU497
 2295 02a0 4C80     		strh	r4, [r1, #2]	@ movhi
 2296              	.LBE754:
 2297              	.LBE758:
 2298              	.LBE762:
 2299              	.LBE879:
 2300              	.LBE957:
 468:../../libDaisy//src/hid/disp/display.h ****         ((ChildType*)(this))->ChildType::WriteString(str, font, on);
 2301              		.loc 7 468 18 view .LVU498
 2302 02a2 A4B2     		uxth	r4, r4
 2303              	.LBB958:
 2304              	.LBB880:
 221:../../libDaisy//src/hid/disp/graphics_common.h ****                         other.y_,
 2305              		.loc 9 221 58 view .LVU499
 2306 02a4 9FB2     		uxth	r7, r3
 2307              	.LVL155:
 2308              	.LBB763:
 2309              	.LBI749:
  31:../../libDaisy//src/hid/disp/graphics_common.h ****     : x_(x), y_(y), width_(max(0, width)), height_(max(0, height))
 2310              		.loc 9 31 5 is_stmt 1 view .LVU500
 2311              	.LBB759:
 2312              	.LBB755:
 2313              	.LBB752:
 2314              	.LBI752:
 2315              		.loc 9 261 13 view .LVU501
 2316              	.LBE752:
 2317              	.LBE755:
 2318              	.LBE759:
 2319              	.LBE763:
 2320              	.LBE880:
 2321              	.LBE958:
 2322              		.loc 9 261 41 view .LVU502
 2323              	.LBB959:
 2324              	.LBB881:
 2325              	.LBB764:
 2326              	.LBB760:
 2327              	.LBB756:
 2328              	.LBB753:
 2329              	.LBI753:
 2330              		.loc 9 261 13 view .LVU503
 2331              	.LBE753:
 2332              	.LBE756:
 2333              	.LBE760:
 2334              	.LBE764:
ARM GAS  /tmp/ccZePa4k.s 			page 74


 2335              	.LBE881:
 2336              	.LBE959:
 2337              		.loc 9 261 41 view .LVU504
 2338              	.LBB960:
 2339              	.LBB882:
 2340              	.LBB765:
 2341              	.LBB761:
 2342              	.LBB757:
  32:../../libDaisy//src/hid/disp/graphics_common.h ****     {
 2343              		.loc 9 32 66 is_stmt 0 view .LVU505
 2344 02a6 CA80     		strh	r2, [r1, #6]	@ movhi
 2345 02a8 0F80     		strh	r7, [r1]	@ movhi
 2346              	.LBE757:
  34:../../libDaisy//src/hid/disp/graphics_common.h **** 
 2347              		.loc 9 34 5 view .LVU506
 2348 02aa EAE6     		b	.L116
 2349              	.LVL156:
 2350              	.L112:
  34:../../libDaisy//src/hid/disp/graphics_common.h **** 
 2351              		.loc 9 34 5 view .LVU507
 2352              	.LBE761:
 2353              	.LBE765:
 215:../../libDaisy//src/hid/disp/graphics_common.h ****                 return {int16_t(other.GetRight() - width_),
 2354              		.loc 9 215 13 is_stmt 1 view .LVU508
 216:../../libDaisy//src/hid/disp/graphics_common.h ****                         other.y_,
 2355              		.loc 9 216 17 view .LVU509
 2356              	.LBB766:
 2357              	.LBI766:
  60:../../libDaisy//src/hid/disp/graphics_common.h ****     int16_t GetBottom() const { return y_ + height_; }
 2358              		.loc 9 60 13 view .LVU510
 2359              	.LBB767:
  60:../../libDaisy//src/hid/disp/graphics_common.h ****     int16_t GetBottom() const { return y_ + height_; }
 2360              		.loc 9 60 32 view .LVU511
  60:../../libDaisy//src/hid/disp/graphics_common.h ****     int16_t GetBottom() const { return y_ + height_; }
 2361              		.loc 9 60 42 is_stmt 0 view .LVU512
 2362 02ac A188     		ldrh	r1, [r4, #4]
 2363              	.LVL157:
  60:../../libDaisy//src/hid/disp/graphics_common.h ****     int16_t GetBottom() const { return y_ + height_; }
 2364              		.loc 9 60 42 view .LVU513
 2365 02ae 2788     		ldrh	r7, [r4]
 2366              	.LBE767:
 2367              	.LBE766:
 217:../../libDaisy//src/hid/disp/graphics_common.h ****                         width_,
 2368              		.loc 9 217 31 view .LVU514
 2369 02b0 B4F90240 		ldrsh	r4, [r4, #2]
 2370              	.LVL158:
 2371              	.LBB769:
 2372              	.LBB768:
  60:../../libDaisy//src/hid/disp/graphics_common.h ****     int16_t GetBottom() const { return y_ + height_; }
 2373              		.loc 9 60 42 view .LVU515
 2374 02b4 0F44     		add	r7, r7, r1
 2375              	.LBE768:
 2376              	.LBE769:
 2377              	.LBB770:
 2378              	.LBB771:
 2379              	.LBB772:
  32:../../libDaisy//src/hid/disp/graphics_common.h ****     {
ARM GAS  /tmp/ccZePa4k.s 			page 75


 2380              		.loc 9 32 66 view .LVU516
 2381 02b6 0699     		ldr	r1, [sp, #24]
 2382 02b8 8B80     		strh	r3, [r1, #4]	@ movhi
 2383              	.LBE772:
 2384              	.LBE771:
 2385              	.LBE770:
 216:../../libDaisy//src/hid/disp/graphics_common.h ****                         other.y_,
 2386              		.loc 9 216 50 view .LVU517
 2387 02ba FB1A     		subs	r3, r7, r3
 2388              	.LBB783:
 2389              	.LBB779:
 2390              	.LBB775:
  32:../../libDaisy//src/hid/disp/graphics_common.h ****     {
 2391              		.loc 9 32 66 view .LVU518
 2392 02bc 4C80     		strh	r4, [r1, #2]	@ movhi
 2393              	.LBE775:
 2394              	.LBE779:
 2395              	.LBE783:
 2396              	.LBE882:
 2397              	.LBE960:
 468:../../libDaisy//src/hid/disp/display.h ****         ((ChildType*)(this))->ChildType::WriteString(str, font, on);
 2398              		.loc 7 468 18 view .LVU519
 2399 02be A4B2     		uxth	r4, r4
 2400              	.LBB961:
 2401              	.LBB883:
 216:../../libDaisy//src/hid/disp/graphics_common.h ****                         other.y_,
 2402              		.loc 9 216 50 view .LVU520
 2403 02c0 9FB2     		uxth	r7, r3
 2404              	.LVL159:
 2405              	.LBB784:
 2406              	.LBI770:
  31:../../libDaisy//src/hid/disp/graphics_common.h ****     : x_(x), y_(y), width_(max(0, width)), height_(max(0, height))
 2407              		.loc 9 31 5 is_stmt 1 view .LVU521
 2408              	.LBB780:
 2409              	.LBB776:
 2410              	.LBB773:
 2411              	.LBI773:
 2412              		.loc 9 261 13 view .LVU522
 2413              	.LBE773:
 2414              	.LBE776:
 2415              	.LBE780:
 2416              	.LBE784:
 2417              	.LBE883:
 2418              	.LBE961:
 2419              		.loc 9 261 41 view .LVU523
 2420              	.LBB962:
 2421              	.LBB884:
 2422              	.LBB785:
 2423              	.LBB781:
 2424              	.LBB777:
 2425              	.LBB774:
 2426              	.LBI774:
 2427              		.loc 9 261 13 view .LVU524
 2428              	.LBE774:
 2429              	.LBE777:
 2430              	.LBE781:
 2431              	.LBE785:
ARM GAS  /tmp/ccZePa4k.s 			page 76


 2432              	.LBE884:
 2433              	.LBE962:
 2434              		.loc 9 261 41 view .LVU525
 2435              	.LBB963:
 2436              	.LBB885:
 2437              	.LBB786:
 2438              	.LBB782:
 2439              	.LBB778:
  32:../../libDaisy//src/hid/disp/graphics_common.h ****     {
 2440              		.loc 9 32 66 is_stmt 0 view .LVU526
 2441 02c2 CA80     		strh	r2, [r1, #6]	@ movhi
 2442 02c4 0F80     		strh	r7, [r1]	@ movhi
 2443              	.LBE778:
  34:../../libDaisy//src/hid/disp/graphics_common.h **** 
 2444              		.loc 9 34 5 view .LVU527
 2445 02c6 DCE6     		b	.L116
 2446              	.LVL160:
 2447              	.L111:
  34:../../libDaisy//src/hid/disp/graphics_common.h **** 
 2448              		.loc 9 34 5 view .LVU528
 2449              	.LBE782:
 2450              	.LBE786:
 225:../../libDaisy//src/hid/disp/graphics_common.h ****                 return {other.x_,
 2451              		.loc 9 225 13 is_stmt 1 view .LVU529
 226:../../libDaisy//src/hid/disp/graphics_common.h ****                         int16_t(other.GetBottom() - height_),
 2452              		.loc 9 226 17 view .LVU530
 2453              	.LBB787:
 2454              	.LBB788:
  61:../../libDaisy//src/hid/disp/graphics_common.h ****     int16_t GetCenterX() const { return x_ + width_ / 2; }
 2455              		.loc 9 61 43 is_stmt 0 view .LVU531
 2456 02c8 E788     		ldrh	r7, [r4, #6]
 2457 02ca 6188     		ldrh	r1, [r4, #2]
 2458              	.LVL161:
  61:../../libDaisy//src/hid/disp/graphics_common.h ****     int16_t GetCenterX() const { return x_ + width_ / 2; }
 2459              		.loc 9 61 43 view .LVU532
 2460 02cc 3944     		add	r1, r1, r7
 2461              	.LBE788:
 2462              	.LBE787:
 226:../../libDaisy//src/hid/disp/graphics_common.h ****                         int16_t(other.GetBottom() - height_),
 2463              		.loc 9 226 31 view .LVU533
 2464 02ce B4F90070 		ldrsh	r7, [r4]
 227:../../libDaisy//src/hid/disp/graphics_common.h ****                         width_,
 2465              		.loc 9 227 51 view .LVU534
 2466 02d2 081A     		subs	r0, r1, r0
 2467              	.LVL162:
 2468              	.LBB790:
 2469              	.LBI787:
  61:../../libDaisy//src/hid/disp/graphics_common.h ****     int16_t GetCenterX() const { return x_ + width_ / 2; }
 2470              		.loc 9 61 13 is_stmt 1 view .LVU535
 2471              	.LBB789:
  61:../../libDaisy//src/hid/disp/graphics_common.h ****     int16_t GetCenterX() const { return x_ + width_ / 2; }
 2472              		.loc 9 61 33 view .LVU536
  61:../../libDaisy//src/hid/disp/graphics_common.h ****     int16_t GetCenterX() const { return x_ + width_ / 2; }
 2473              		.loc 9 61 33 is_stmt 0 view .LVU537
 2474              	.LBE789:
 2475              	.LBE790:
 2476              	.LBB791:
ARM GAS  /tmp/ccZePa4k.s 			page 77


 2477              	.LBB792:
 2478              	.LBB793:
  32:../../libDaisy//src/hid/disp/graphics_common.h ****     {
 2479              		.loc 9 32 66 view .LVU538
 2480 02d4 0699     		ldr	r1, [sp, #24]
 2481              	.LBE793:
 2482              	.LBE792:
 2483              	.LBE791:
 227:../../libDaisy//src/hid/disp/graphics_common.h ****                         width_,
 2484              		.loc 9 227 51 view .LVU539
 2485 02d6 84B2     		uxth	r4, r0
 2486              	.LVL163:
 2487              	.LBB803:
 2488              	.LBB799:
 2489              	.LBB796:
  32:../../libDaisy//src/hid/disp/graphics_common.h ****     {
 2490              		.loc 9 32 66 view .LVU540
 2491 02d8 0F80     		strh	r7, [r1]	@ movhi
 2492 02da 8B80     		strh	r3, [r1, #4]	@ movhi
 2493              	.LVL164:
  32:../../libDaisy//src/hid/disp/graphics_common.h ****     {
 2494              		.loc 9 32 66 view .LVU541
 2495              	.LBE796:
 2496              	.LBE799:
 2497              	.LBI791:
  31:../../libDaisy//src/hid/disp/graphics_common.h ****     : x_(x), y_(y), width_(max(0, width)), height_(max(0, height))
 2498              		.loc 9 31 5 is_stmt 1 view .LVU542
 2499              	.LBE803:
 2500              	.LBE885:
 2501              	.LBE963:
 468:../../libDaisy//src/hid/disp/display.h ****         ((ChildType*)(this))->ChildType::WriteString(str, font, on);
 2502              		.loc 7 468 18 is_stmt 0 view .LVU543
 2503 02dc BFB2     		uxth	r7, r7
 2504              	.LVL165:
 2505              	.LBB964:
 2506              	.LBB886:
 2507              	.LBB804:
 2508              	.LBB800:
 2509              	.LBB797:
  32:../../libDaisy//src/hid/disp/graphics_common.h ****     {
 2510              		.loc 9 32 66 view .LVU544
 2511 02de CA80     		strh	r2, [r1, #6]	@ movhi
 2512 02e0 4C80     		strh	r4, [r1, #2]	@ movhi
 2513              	.LVL166:
 2514              	.LBB794:
 2515              	.LBI794:
 2516              		.loc 9 261 13 is_stmt 1 view .LVU545
 2517              	.LBE794:
 2518              	.LBE797:
 2519              	.LBE800:
 2520              	.LBE804:
 2521              	.LBE886:
 2522              	.LBE964:
 2523              		.loc 9 261 41 view .LVU546
 2524              	.LBB965:
 2525              	.LBB887:
 2526              	.LBB805:
ARM GAS  /tmp/ccZePa4k.s 			page 78


 2527              	.LBB801:
 2528              	.LBB798:
 2529              	.LBB795:
 2530              	.LBI795:
 2531              		.loc 9 261 13 view .LVU547
 2532              	.LBE795:
 2533              	.LBE798:
 2534              	.LBE801:
 2535              	.LBE805:
 2536              	.LBE887:
 2537              	.LBE965:
 2538              		.loc 9 261 41 view .LVU548
 2539              	.LBB966:
 2540              	.LBB888:
 2541              	.LBB806:
 2542              	.LBB802:
  34:../../libDaisy//src/hid/disp/graphics_common.h **** 
 2543              		.loc 9 34 5 is_stmt 0 view .LVU549
 2544 02e2 CEE6     		b	.L116
 2545              	.LVL167:
 2546              	.L110:
  34:../../libDaisy//src/hid/disp/graphics_common.h **** 
 2547              		.loc 9 34 5 view .LVU550
 2548              	.LBE802:
 2549              	.LBE806:
 235:../../libDaisy//src/hid/disp/graphics_common.h ****                 return {int16_t(x_ + (other.GetCenterX() - GetCenterX())),
 2550              		.loc 9 235 13 is_stmt 1 view .LVU551
 236:../../libDaisy//src/hid/disp/graphics_common.h ****                         int16_t(other.GetBottom() - height_),
 2551              		.loc 9 236 17 view .LVU552
 2552              	.LBB807:
 2553              	.LBI807:
  62:../../libDaisy//src/hid/disp/graphics_common.h ****     int16_t GetCenterY() const { return y_ + height_ / 2; }
 2554              		.loc 9 62 13 view .LVU553
 2555              	.LBB808:
  62:../../libDaisy//src/hid/disp/graphics_common.h ****     int16_t GetCenterY() const { return y_ + height_ / 2; }
 2556              		.loc 9 62 34 view .LVU554
  62:../../libDaisy//src/hid/disp/graphics_common.h ****     int16_t GetCenterY() const { return y_ + height_ / 2; }
 2557              		.loc 9 62 34 is_stmt 0 view .LVU555
 2558              	.LBE808:
 2559              	.LBE807:
 2560              	.LBB810:
 2561              	.LBI810:
  62:../../libDaisy//src/hid/disp/graphics_common.h ****     int16_t GetCenterY() const { return y_ + height_ / 2; }
 2562              		.loc 9 62 13 is_stmt 1 view .LVU556
 2563              	.LBB811:
  62:../../libDaisy//src/hid/disp/graphics_common.h ****     int16_t GetCenterY() const { return y_ + height_ / 2; }
 2564              		.loc 9 62 34 view .LVU557
  62:../../libDaisy//src/hid/disp/graphics_common.h ****     int16_t GetCenterY() const { return y_ + height_ / 2; }
 2565              		.loc 9 62 34 is_stmt 0 view .LVU558
 2566              	.LBE811:
 2567              	.LBE810:
 2568              	.LBB812:
 2569              	.LBB809:
  62:../../libDaisy//src/hid/disp/graphics_common.h ****     int16_t GetCenterY() const { return y_ + height_ / 2; }
 2570              		.loc 9 62 53 view .LVU559
 2571 02e4 B4F90410 		ldrsh	r1, [r4, #4]
 2572              	.LVL168:
ARM GAS  /tmp/ccZePa4k.s 			page 79


  62:../../libDaisy//src/hid/disp/graphics_common.h ****     int16_t GetCenterY() const { return y_ + height_ / 2; }
 2573              		.loc 9 62 44 view .LVU560
 2574 02e8 2788     		ldrh	r7, [r4]
  62:../../libDaisy//src/hid/disp/graphics_common.h ****     int16_t GetCenterY() const { return y_ + height_ / 2; }
 2575              		.loc 9 62 53 view .LVU561
 2576 02ea 0029     		cmp	r1, #0
 2577 02ec B8BF     		it	lt
 2578 02ee 0131     		addlt	r1, r1, #1
  62:../../libDaisy//src/hid/disp/graphics_common.h ****     int16_t GetCenterY() const { return y_ + height_ / 2; }
 2579              		.loc 9 62 44 view .LVU562
 2580 02f0 07EB6107 		add	r7, r7, r1, asr #1
 2581              	.LBE809:
 2582              	.LBE812:
 236:../../libDaisy//src/hid/disp/graphics_common.h ****                         int16_t(other.GetBottom() - height_),
 2583              		.loc 9 236 58 view .LVU563
 2584 02f4 A7EB6307 		sub	r7, r7, r3, asr #1
 2585              	.L176:
 2586              	.LBB813:
 2587              	.LBB814:
  61:../../libDaisy//src/hid/disp/graphics_common.h ****     int16_t GetCenterX() const { return x_ + width_ / 2; }
 2588              		.loc 9 61 43 view .LVU564
 2589 02f8 B4F802C0 		ldrh	ip, [r4, #2]
 2590              	.LBE814:
 2591              	.LBE813:
 236:../../libDaisy//src/hid/disp/graphics_common.h ****                         int16_t(other.GetBottom() - height_),
 2592              		.loc 9 236 58 view .LVU565
 2593 02fc BFB2     		uxth	r7, r7
 2594              	.LVL169:
 2595              	.LBB817:
 2596              	.LBI813:
  61:../../libDaisy//src/hid/disp/graphics_common.h ****     int16_t GetCenterX() const { return x_ + width_ / 2; }
 2597              		.loc 9 61 13 is_stmt 1 view .LVU566
 2598              	.LBB815:
  61:../../libDaisy//src/hid/disp/graphics_common.h ****     int16_t GetCenterX() const { return x_ + width_ / 2; }
 2599              		.loc 9 61 33 view .LVU567
  61:../../libDaisy//src/hid/disp/graphics_common.h ****     int16_t GetCenterX() const { return x_ + width_ / 2; }
 2600              		.loc 9 61 43 is_stmt 0 view .LVU568
 2601 02fe E488     		ldrh	r4, [r4, #6]
 2602              	.LVL170:
  61:../../libDaisy//src/hid/disp/graphics_common.h ****     int16_t GetCenterX() const { return x_ + width_ / 2; }
 2603              		.loc 9 61 43 view .LVU569
 2604              	.LBE815:
 2605              	.LBE817:
 2606              	.LBB818:
 2607              	.LBB819:
 2608              	.LBB820:
  32:../../libDaisy//src/hid/disp/graphics_common.h ****     {
 2609              		.loc 9 32 66 view .LVU570
 2610 0300 0699     		ldr	r1, [sp, #24]
 2611              	.LBE820:
 2612              	.LBE819:
 2613              	.LBE818:
 2614              	.LBB832:
 2615              	.LBB816:
  61:../../libDaisy//src/hid/disp/graphics_common.h ****     int16_t GetCenterX() const { return x_ + width_ / 2; }
 2616              		.loc 9 61 43 view .LVU571
 2617 0302 6444     		add	r4, r4, ip
ARM GAS  /tmp/ccZePa4k.s 			page 80


 2618              	.LBE816:
 2619              	.LBE832:
 2620              	.LBB833:
 2621              	.LBB827:
 2622              	.LBB823:
  32:../../libDaisy//src/hid/disp/graphics_common.h ****     {
 2623              		.loc 9 32 66 view .LVU572
 2624 0304 8B80     		strh	r3, [r1, #4]	@ movhi
 2625              	.LBE823:
 2626              	.LBE827:
 2627              	.LBE833:
 237:../../libDaisy//src/hid/disp/graphics_common.h ****                         width_,
 2628              		.loc 9 237 51 view .LVU573
 2629 0306 201A     		subs	r0, r4, r0
 2630              	.LBB834:
 2631              	.LBB828:
 2632              	.LBB824:
  32:../../libDaisy//src/hid/disp/graphics_common.h ****     {
 2633              		.loc 9 32 66 view .LVU574
 2634 0308 CA80     		strh	r2, [r1, #6]	@ movhi
 2635 030a 0F80     		strh	r7, [r1]	@ movhi
 2636              	.LBE824:
 2637              	.LBE828:
 2638              	.LBE834:
 237:../../libDaisy//src/hid/disp/graphics_common.h ****                         width_,
 2639              		.loc 9 237 51 view .LVU575
 2640 030c 84B2     		uxth	r4, r0
 2641              	.LVL171:
 2642              	.LBB835:
 2643              	.LBI818:
  31:../../libDaisy//src/hid/disp/graphics_common.h ****     : x_(x), y_(y), width_(max(0, width)), height_(max(0, height))
 2644              		.loc 9 31 5 is_stmt 1 view .LVU576
 2645              	.LBB829:
 2646              	.LBB825:
  32:../../libDaisy//src/hid/disp/graphics_common.h ****     {
 2647              		.loc 9 32 66 is_stmt 0 view .LVU577
 2648 030e 4C80     		strh	r4, [r1, #2]	@ movhi
 2649              	.LVL172:
 2650              	.LBB821:
 2651              	.LBI821:
 2652              		.loc 9 261 13 is_stmt 1 view .LVU578
 2653              	.LBE821:
 2654              	.LBE825:
 2655              	.LBE829:
 2656              	.LBE835:
 2657              	.LBE888:
 2658              	.LBE966:
 2659              		.loc 9 261 41 view .LVU579
 2660              	.LBB967:
 2661              	.LBB889:
 2662              	.LBB836:
 2663              	.LBB830:
 2664              	.LBB826:
 2665              	.LBB822:
 2666              	.LBI822:
 2667              		.loc 9 261 13 view .LVU580
 2668              	.LBE822:
ARM GAS  /tmp/ccZePa4k.s 			page 81


 2669              	.LBE826:
 2670              	.LBE830:
 2671              	.LBE836:
 2672              	.LBE889:
 2673              	.LBE967:
 2674              		.loc 9 261 41 view .LVU581
 2675              	.LBB968:
 2676              	.LBB890:
 2677              	.LBB837:
 2678              	.LBB831:
  34:../../libDaisy//src/hid/disp/graphics_common.h **** 
 2679              		.loc 9 34 5 is_stmt 0 view .LVU582
 2680 0310 B7E6     		b	.L116
 2681              	.LVL173:
 2682              	.L109:
  34:../../libDaisy//src/hid/disp/graphics_common.h **** 
 2683              		.loc 9 34 5 view .LVU583
 2684              	.LBE831:
 2685              	.LBE837:
 230:../../libDaisy//src/hid/disp/graphics_common.h ****                 return {int16_t(other.GetRight() - width_),
 2686              		.loc 9 230 13 is_stmt 1 view .LVU584
 231:../../libDaisy//src/hid/disp/graphics_common.h ****                         int16_t(other.GetBottom() - height_),
 2687              		.loc 9 231 17 view .LVU585
 2688              	.LBB838:
 2689              	.LBI838:
  60:../../libDaisy//src/hid/disp/graphics_common.h ****     int16_t GetBottom() const { return y_ + height_; }
 2690              		.loc 9 60 13 view .LVU586
 2691              	.LBB839:
  60:../../libDaisy//src/hid/disp/graphics_common.h ****     int16_t GetBottom() const { return y_ + height_; }
 2692              		.loc 9 60 32 view .LVU587
  60:../../libDaisy//src/hid/disp/graphics_common.h ****     int16_t GetBottom() const { return y_ + height_; }
 2693              		.loc 9 60 42 is_stmt 0 view .LVU588
 2694 0312 2788     		ldrh	r7, [r4]
 2695 0314 A188     		ldrh	r1, [r4, #4]
 2696              	.LVL174:
  60:../../libDaisy//src/hid/disp/graphics_common.h ****     int16_t GetBottom() const { return y_ + height_; }
 2697              		.loc 9 60 42 view .LVU589
 2698 0316 0F44     		add	r7, r7, r1
 2699              	.LBE839:
 2700              	.LBE838:
 231:../../libDaisy//src/hid/disp/graphics_common.h ****                         int16_t(other.GetBottom() - height_),
 2701              		.loc 9 231 50 view .LVU590
 2702 0318 FF1A     		subs	r7, r7, r3
 2703 031a EDE7     		b	.L176
 2704              	.L189:
 2705              		.align	2
 2706              	.L188:
 2707 031c 00000000 		.word	_ZNK5daisy11OledDisplayINS_13SSD130xDriverILj128ELj64ENS_24SSD130x4WireSpiTransportEEEE5Widt
 2708 0320 00000000 		.word	_ZNK5daisy11OledDisplayINS_13SSD130xDriverILj128ELj64ENS_24SSD130x4WireSpiTransportEEEE6Heig
 2709              	.LVL175:
 2710              	.L108:
 240:../../libDaisy//src/hid/disp/graphics_common.h ****                 return {other.x_,
 2711              		.loc 9 240 13 is_stmt 1 view .LVU591
 241:../../libDaisy//src/hid/disp/graphics_common.h ****                         int16_t(y_ + (other.GetCenterY() - GetCenterY())),
 2712              		.loc 9 241 17 view .LVU592
 2713              	.LBB840:
 2714              	.LBB841:
ARM GAS  /tmp/ccZePa4k.s 			page 82


  63:../../libDaisy//src/hid/disp/graphics_common.h **** 
 2715              		.loc 9 63 54 is_stmt 0 view .LVU593
 2716 0324 B4F90610 		ldrsh	r1, [r4, #6]
 2717              	.LVL176:
  63:../../libDaisy//src/hid/disp/graphics_common.h **** 
 2718              		.loc 9 63 54 view .LVU594
 2719              	.LBE841:
 2720              	.LBE840:
 241:../../libDaisy//src/hid/disp/graphics_common.h ****                         int16_t(y_ + (other.GetCenterY() - GetCenterY())),
 2721              		.loc 9 241 31 view .LVU595
 2722 0328 B4F90070 		ldrsh	r7, [r4]
 2723              	.LVL177:
 2724              	.LBB846:
 2725              	.LBI840:
  63:../../libDaisy//src/hid/disp/graphics_common.h **** 
 2726              		.loc 9 63 13 is_stmt 1 view .LVU596
 2727              	.LBB842:
  63:../../libDaisy//src/hid/disp/graphics_common.h **** 
 2728              		.loc 9 63 34 view .LVU597
  63:../../libDaisy//src/hid/disp/graphics_common.h **** 
 2729              		.loc 9 63 34 is_stmt 0 view .LVU598
 2730              	.LBE842:
 2731              	.LBE846:
 2732              	.LBB847:
 2733              	.LBI847:
  63:../../libDaisy//src/hid/disp/graphics_common.h **** 
 2734              		.loc 9 63 13 is_stmt 1 view .LVU599
 2735              	.LBB848:
  63:../../libDaisy//src/hid/disp/graphics_common.h **** 
 2736              		.loc 9 63 34 view .LVU600
  63:../../libDaisy//src/hid/disp/graphics_common.h **** 
 2737              		.loc 9 63 34 is_stmt 0 view .LVU601
 2738              	.LBE848:
 2739              	.LBE847:
 2740              	.LBB849:
 2741              	.LBB843:
  63:../../libDaisy//src/hid/disp/graphics_common.h **** 
 2742              		.loc 9 63 54 view .LVU602
 2743 032c 0029     		cmp	r1, #0
  63:../../libDaisy//src/hid/disp/graphics_common.h **** 
 2744              		.loc 9 63 44 view .LVU603
 2745 032e 6488     		ldrh	r4, [r4, #2]
 2746              	.LVL178:
  63:../../libDaisy//src/hid/disp/graphics_common.h **** 
 2747              		.loc 9 63 44 view .LVU604
 2748              	.LBE843:
 2749              	.LBE849:
 2750              	.LBB850:
 2751              	.LBB851:
 2752              	.LBB852:
  32:../../libDaisy//src/hid/disp/graphics_common.h ****     {
 2753              		.loc 9 32 66 view .LVU605
 2754 0330 0698     		ldr	r0, [sp, #24]
 2755              	.LBE852:
 2756              	.LBE851:
 2757              	.LBE850:
 2758              	.LBB864:
ARM GAS  /tmp/ccZePa4k.s 			page 83


 2759              	.LBB844:
  63:../../libDaisy//src/hid/disp/graphics_common.h **** 
 2760              		.loc 9 63 54 view .LVU606
 2761 0332 B8BF     		it	lt
 2762 0334 0131     		addlt	r1, r1, #1
 2763              	.LBE844:
 2764              	.LBE864:
 2765              	.LBB865:
 2766              	.LBB859:
 2767              	.LBB855:
  32:../../libDaisy//src/hid/disp/graphics_common.h ****     {
 2768              		.loc 9 32 66 view .LVU607
 2769 0336 C280     		strh	r2, [r0, #6]	@ movhi
 2770              	.LBE855:
 2771              	.LBE859:
 2772              	.LBE865:
 2773              	.LBB866:
 2774              	.LBB845:
  63:../../libDaisy//src/hid/disp/graphics_common.h **** 
 2775              		.loc 9 63 44 view .LVU608
 2776 0338 04EB6104 		add	r4, r4, r1, asr #1
 2777              	.LBE845:
 2778              	.LBE866:
 2779              	.LBB867:
 2780              	.LBB860:
 2781              	.LBB856:
  32:../../libDaisy//src/hid/disp/graphics_common.h ****     {
 2782              		.loc 9 32 66 view .LVU609
 2783 033c 0780     		strh	r7, [r0]	@ movhi
 2784 033e 8380     		strh	r3, [r0, #4]	@ movhi
 2785              	.LBE856:
 2786              	.LBE860:
 2787              	.LBE867:
 2788              	.LBE890:
 2789              	.LBE968:
 468:../../libDaisy//src/hid/disp/display.h ****         ((ChildType*)(this))->ChildType::WriteString(str, font, on);
 2790              		.loc 7 468 18 view .LVU610
 2791 0340 BFB2     		uxth	r7, r7
 2792              	.LBB969:
 2793              	.LBB891:
 242:../../libDaisy//src/hid/disp/graphics_common.h ****                         width_,
 2794              		.loc 9 242 58 view .LVU611
 2795 0342 A4EB5202 		sub	r2, r4, r2, lsr #1
 2796 0346 94B2     		uxth	r4, r2
 2797              	.LVL179:
 2798              	.LBB868:
 2799              	.LBI850:
  31:../../libDaisy//src/hid/disp/graphics_common.h ****     : x_(x), y_(y), width_(max(0, width)), height_(max(0, height))
 2800              		.loc 9 31 5 is_stmt 1 view .LVU612
 2801              	.LBB861:
 2802              	.LBB857:
  32:../../libDaisy//src/hid/disp/graphics_common.h ****     {
 2803              		.loc 9 32 66 is_stmt 0 view .LVU613
 2804 0348 4480     		strh	r4, [r0, #2]	@ movhi
 2805              	.LVL180:
 2806              	.LBB853:
 2807              	.LBI853:
ARM GAS  /tmp/ccZePa4k.s 			page 84


 2808              		.loc 9 261 13 is_stmt 1 view .LVU614
 2809              	.LBE853:
 2810              	.LBE857:
 2811              	.LBE861:
 2812              	.LBE868:
 2813              	.LBE891:
 2814              	.LBE969:
 2815              		.loc 9 261 41 view .LVU615
 2816              	.LBB970:
 2817              	.LBB892:
 2818              	.LBB869:
 2819              	.LBB862:
 2820              	.LBB858:
 2821              	.LBB854:
 2822              	.LBI854:
 2823              		.loc 9 261 13 view .LVU616
 2824              	.LBE854:
 2825              	.LBE858:
 2826              	.LBE862:
 2827              	.LBE869:
 2828              	.LBE892:
 2829              	.LBE970:
 2830              		.loc 9 261 41 view .LVU617
 2831              	.LBB971:
 2832              	.LBB893:
 2833              	.LBB870:
 2834              	.LBB863:
  34:../../libDaisy//src/hid/disp/graphics_common.h **** 
 2835              		.loc 9 34 5 is_stmt 0 view .LVU618
 2836 034a 9AE6     		b	.L116
 2837              	.LVL181:
 2838              	.L136:
  34:../../libDaisy//src/hid/disp/graphics_common.h **** 
 2839              		.loc 9 34 5 view .LVU619
 2840              	.LBE863:
 2841              	.LBE870:
 2842              	.LBE893:
 2843              	.LBE971:
 2844              	.LBB972:
 2845              	.LBB950:
 2846              	.LBB947:
 2847              	.LBB946:
 402:../../libDaisy//src/hid/disp/display.h **** 
 2848              		.loc 7 402 20 view .LVU620
 2849 034c 4FF0000B 		mov	fp, #0
 2850              	.LVL182:
 402:../../libDaisy//src/hid/disp/display.h **** 
 2851              		.loc 7 402 20 view .LVU621
 2852 0350 6BE7     		b	.L134
 2853              	.LVL183:
 2854              	.L181:
 405:../../libDaisy//src/hid/disp/display.h ****            || Height() < (currentY_ + font.FontHeight))
 2855              		.loc 7 405 17 view .LVU622
 2856 0352 4046     		mov	r0, r8
 2857 0354 9847     		blx	r3
 2858              	.LVL184:
 2859 0356 D5E6     		b	.L135
ARM GAS  /tmp/ccZePa4k.s 			page 85


 2860              	.L182:
 406:../../libDaisy//src/hid/disp/display.h ****         {
 2861              		.loc 7 406 21 view .LVU623
 2862 0358 4046     		mov	r0, r8
 2863 035a 9847     		blx	r3
 2864              	.LVL185:
 2865 035c E0E6     		b	.L137
 2866              	.LVL186:
 2867              	.L186:
 2868              	.LBB944:
 2869              	.LBB940:
 174:../../libDaisy//src/hid/disp/display.h ****     }
 2870              		.loc 7 174 33 view .LVU624
 2871 035e 4046     		mov	r0, r8
 2872 0360 9847     		blx	r3
 2873              	.LVL187:
 2874 0362 53E7     		b	.L151
 2875              	.LVL188:
 2876              	.L184:
 173:../../libDaisy//src/hid/disp/display.h ****         currentY_ = (y >= Height()) ? Height() - 1 : y;
 2877              		.loc 7 173 32 view .LVU625
 2878 0364 4046     		mov	r0, r8
 2879 0366 9847     		blx	r3
 2880              	.LVL189:
 173:../../libDaisy//src/hid/disp/display.h ****         currentY_ = (y >= Height()) ? Height() - 1 : y;
 2881              		.loc 7 173 44 view .LVU626
 2882 0368 D8F80020 		ldr	r2, [r8]
 2883 036c 3EE7     		b	.L148
 2884              	.LVL190:
 2885              	.L138:
 173:../../libDaisy//src/hid/disp/display.h ****         currentY_ = (y >= Height()) ? Height() - 1 : y;
 2886              		.loc 7 173 44 view .LVU627
 2887              	.LBE940:
 2888              	.LBE944:
 434:../../libDaisy//src/hid/disp/display.h **** 
 2889              		.loc 7 434 19 view .LVU628
 2890 036e B8F804A0 		ldrh	r10, [r8, #4]
 2891 0372 30E7     		b	.L140
 2892              	.LVL191:
 2893              	.L187:
 2894              	.LBB945:
 2895              	.LBB941:
 174:../../libDaisy//src/hid/disp/display.h ****     }
 2896              		.loc 7 174 45 view .LVU629
 2897 0374 4046     		mov	r0, r8
 2898 0376 9847     		blx	r3
 2899              	.LVL192:
 174:../../libDaisy//src/hid/disp/display.h ****     }
 2900              		.loc 7 174 19 view .LVU630
 2901 0378 0138     		subs	r0, r0, #1
 2902 037a 83B2     		uxth	r3, r0
 2903 037c 0293     		str	r3, [sp, #8]
 2904              	.LVL193:
 174:../../libDaisy//src/hid/disp/display.h ****     }
 2905              		.loc 7 174 19 view .LVU631
 2906 037e 51E7     		b	.L152
 2907              	.LVL194:
ARM GAS  /tmp/ccZePa4k.s 			page 86


 2908              	.L185:
 173:../../libDaisy//src/hid/disp/display.h ****         currentY_ = (y >= Height()) ? Height() - 1 : y;
 2909              		.loc 7 173 43 view .LVU632
 2910 0380 4046     		mov	r0, r8
 2911 0382 9847     		blx	r3
 2912              	.LVL195:
 173:../../libDaisy//src/hid/disp/display.h ****         currentY_ = (y >= Height()) ? Height() - 1 : y;
 2913              		.loc 7 173 19 view .LVU633
 2914 0384 0138     		subs	r0, r0, #1
 174:../../libDaisy//src/hid/disp/display.h ****     }
 2915              		.loc 7 174 34 view .LVU634
 2916 0386 D8F80020 		ldr	r2, [r8]
 173:../../libDaisy//src/hid/disp/display.h ****         currentY_ = (y >= Height()) ? Height() - 1 : y;
 2917              		.loc 7 173 19 view .LVU635
 2918 038a 85B2     		uxth	r5, r0
 2919              	.LVL196:
 173:../../libDaisy//src/hid/disp/display.h ****         currentY_ = (y >= Height()) ? Height() - 1 : y;
 2920              		.loc 7 173 19 view .LVU636
 2921 038c 36E7     		b	.L149
 2922              	.LVL197:
 2923              	.L105:
 173:../../libDaisy//src/hid/disp/display.h ****         currentY_ = (y >= Height()) ? Height() - 1 : y;
 2924              		.loc 7 173 19 view .LVU637
 2925              	.LBE941:
 2926              	.LBE945:
 2927              	.LBE946:
 2928              	.LBE947:
 2929              	.LBE950:
 2930              	.LBE972:
 2931              	.LBB973:
 2932              	.LBB894:
 255:../../libDaisy//src/hid/disp/graphics_common.h ****         }
 2933              		.loc 9 255 13 is_stmt 1 view .LVU638
 255:../../libDaisy//src/hid/disp/graphics_common.h ****         }
 2934              		.loc 9 255 22 view .LVU639
 2935              	.LBB871:
 2936              	.LBI871:
  24:../../libDaisy//src/hid/disp/graphics_common.h **** 
 2937              		.loc 9 24 5 view .LVU640
 2938              	.LBE871:
 2939              	.LBE894:
 2940              	.LBE973:
 2941              	.LBB974:
 2942              	.LBB900:
 173:../../libDaisy//src/hid/disp/display.h ****         currentY_ = (y >= Height()) ? Height() - 1 : y;
 2943              		.loc 7 173 33 is_stmt 0 view .LVU641
 2944 038e D8F80030 		ldr	r3, [r8]
 2945              	.LBE900:
 2946              	.LBE974:
 2947              	.LBB975:
 2948              	.LBB895:
 2949              	.LBB873:
 2950              	.LBB872:
  24:../../libDaisy//src/hid/disp/graphics_common.h **** 
 2951              		.loc 9 24 53 view .LVU642
 2952 0392 0024     		movs	r4, #0
 2953              	.LVL198:
ARM GAS  /tmp/ccZePa4k.s 			page 87


  24:../../libDaisy//src/hid/disp/graphics_common.h **** 
 2954              		.loc 9 24 53 view .LVU643
 2955 0394 069A     		ldr	r2, [sp, #24]
 2956 0396 1349     		ldr	r1, .L190
 2957              	.LVL199:
  24:../../libDaisy//src/hid/disp/graphics_common.h **** 
 2958              		.loc 9 24 53 view .LVU644
 2959 0398 1480     		strh	r4, [r2]	@ movhi
 2960 039a 5480     		strh	r4, [r2, #2]	@ movhi
 2961 039c 9480     		strh	r4, [r2, #4]	@ movhi
 2962 039e D480     		strh	r4, [r2, #6]	@ movhi
 2963              	.LVL200:
  24:../../libDaisy//src/hid/disp/graphics_common.h **** 
 2964              		.loc 9 24 53 view .LVU645
 2965              	.LBE872:
 2966              	.LBE873:
 2967              	.LBE895:
 2968              	.LBE975:
  56:../../libDaisy//src/hid/disp/graphics_common.h ****     int16_t GetY() const { return y_; }
 2969              		.loc 9 56 28 is_stmt 1 view .LVU646
  57:../../libDaisy//src/hid/disp/graphics_common.h ****     int16_t GetWidth() const { return width_; }
 2970              		.loc 9 57 28 view .LVU647
 2971              	.LBB976:
 171:../../libDaisy//src/hid/disp/display.h ****     {
 2972              		.loc 7 171 10 view .LVU648
 2973              	.LBB901:
 173:../../libDaisy//src/hid/disp/display.h ****         currentY_ = (y >= Height()) ? Height() - 1 : y;
 2974              		.loc 7 173 9 view .LVU649
 173:../../libDaisy//src/hid/disp/display.h ****         currentY_ = (y >= Height()) ? Height() - 1 : y;
 2975              		.loc 7 173 33 is_stmt 0 view .LVU650
 2976 03a0 DA68     		ldr	r2, [r3, #12]
 2977 03a2 0191     		str	r1, [sp, #4]
 2978 03a4 8A42     		cmp	r2, r1
 2979 03a6 05D0     		beq	.L123
 2980 03a8 2746     		mov	r7, r4
 2981              	.LVL201:
 2982              	.L124:
 173:../../libDaisy//src/hid/disp/display.h ****         currentY_ = (y >= Height()) ? Height() - 1 : y;
 2983              		.loc 7 173 32 view .LVU651
 2984 03aa 4046     		mov	r0, r8
 2985 03ac 9047     		blx	r2
 2986              	.LVL202:
 173:../../libDaisy//src/hid/disp/display.h ****         currentY_ = (y >= Height()) ? Height() - 1 : y;
 2987              		.loc 7 173 44 view .LVU652
 2988 03ae D8F80030 		ldr	r3, [r8]
 2989 03b2 70E6     		b	.L125
 2990              	.LVL203:
 2991              	.L123:
 174:../../libDaisy//src/hid/disp/display.h ****     }
 2992              		.loc 7 174 34 view .LVU653
 2993 03b4 9B68     		ldr	r3, [r3, #8]
 2994 03b6 0C4A     		ldr	r2, .L190+4
 173:../../libDaisy//src/hid/disp/display.h ****         currentY_ = (y >= Height()) ? Height() - 1 : y;
 2995              		.loc 7 173 19 view .LVU654
 2996 03b8 A8F80440 		strh	r4, [r8, #4]	@ movhi
 174:../../libDaisy//src/hid/disp/display.h ****     }
 2997              		.loc 7 174 9 is_stmt 1 view .LVU655
ARM GAS  /tmp/ccZePa4k.s 			page 88


 2998 03bc 9342     		cmp	r3, r2
 2999 03be 0392     		str	r2, [sp, #12]
 3000 03c0 3FF484AE 		beq	.L130
 3001              	.LVL204:
 3002              	.L156:
 174:../../libDaisy//src/hid/disp/display.h ****     }
 3003              		.loc 7 174 33 is_stmt 0 view .LVU656
 3004 03c4 4046     		mov	r0, r8
 3005 03c6 9847     		blx	r3
 3006              	.LVL205:
 3007 03c8 76E6     		b	.L128
 3008              	.L180:
 174:../../libDaisy//src/hid/disp/display.h ****     }
 3009              		.loc 7 174 45 view .LVU657
 3010 03ca 4046     		mov	r0, r8
 3011 03cc 9847     		blx	r3
 3012              	.LVL206:
 174:../../libDaisy//src/hid/disp/display.h ****     }
 3013              		.loc 7 174 19 view .LVU658
 3014 03ce 0138     		subs	r0, r0, #1
 3015 03d0 84B2     		uxth	r4, r0
 3016 03d2 7BE6     		b	.L130
 3017              	.L179:
 173:../../libDaisy//src/hid/disp/display.h ****         currentY_ = (y >= Height()) ? Height() - 1 : y;
 3018              		.loc 7 173 43 view .LVU659
 3019 03d4 4046     		mov	r0, r8
 3020 03d6 9047     		blx	r2
 3021              	.LVL207:
 173:../../libDaisy//src/hid/disp/display.h ****         currentY_ = (y >= Height()) ? Height() - 1 : y;
 3022              		.loc 7 173 19 view .LVU660
 3023 03d8 0138     		subs	r0, r0, #1
 174:../../libDaisy//src/hid/disp/display.h ****     }
 3024              		.loc 7 174 34 view .LVU661
 3025 03da D8F80030 		ldr	r3, [r8]
 173:../../libDaisy//src/hid/disp/display.h ****         currentY_ = (y >= Height()) ? Height() - 1 : y;
 3026              		.loc 7 173 19 view .LVU662
 3027 03de 87B2     		uxth	r7, r0
 3028 03e0 61E6     		b	.L126
 3029              	.L191:
 3030 03e2 00BF     		.align	2
 3031              	.L190:
 3032 03e4 00000000 		.word	_ZNK5daisy11OledDisplayINS_13SSD130xDriverILj128ELj64ENS_24SSD130x4WireSpiTransportEEEE5Widt
 3033 03e8 00000000 		.word	_ZNK5daisy11OledDisplayINS_13SSD130xDriverILj128ELj64ENS_24SSD130x4WireSpiTransportEEEE6Heig
 3034              	.LBE901:
 3035              	.LBE976:
 3036              		.cfi_endproc
 3037              	.LFE2607:
 3039              		.section	.text._ZN5daisy11OledDisplayINS_13SSD130xDriverILj128ELj64ENS_24SSD130x4WireSpiTransportE
 3040              		.align	1
 3041              		.p2align 2,,3
 3042              		.weak	_ZN5daisy11OledDisplayINS_13SSD130xDriverILj128ELj64ENS_24SSD130x4WireSpiTransportEEEE9DrawP
 3043              		.syntax unified
 3044              		.thumb
 3045              		.thumb_func
 3047              	_ZN5daisy11OledDisplayINS_13SSD130xDriverILj128ELj64ENS_24SSD130x4WireSpiTransportEEEE9DrawPixelEjj
 3048              	.LVL208:
 3049              	.LFB2601:
ARM GAS  /tmp/ccZePa4k.s 			page 89


  42:../../libDaisy//src/hid/disp/oled_display.h ****     {
 3050              		.loc 6 42 10 is_stmt 1 view -0
 3051              		.cfi_startproc
 3052              		@ args = 0, pretend = 0, frame = 0
 3053              		@ frame_needed = 0, uses_anonymous_args = 0
 3054              		@ link register save eliminated.
 3055              	.LBB981:
 3056              	.LBI981:
 252:../../libDaisy//src/dev/oled_ssd130x.h ****     {
 3057              		.loc 8 252 10 view .LVU664
 3058              	.LBB982:
 254:../../libDaisy//src/dev/oled_ssd130x.h ****             return;
 3059              		.loc 8 254 9 is_stmt 0 view .LVU665
 3060 0000 7F29     		cmp	r1, #127
 3061 0002 1ED8     		bhi	.L192
 3062 0004 3F2A     		cmp	r2, #63
 3063 0006 1CD8     		bhi	.L192
 256:../../libDaisy//src/dev/oled_ssd130x.h ****             buffer_[x + (y / 8) * width] |= (1 << (y % 8));
 3064              		.loc 8 256 9 view .LVU666
 3065 0008 6BB1     		cbz	r3, .L194
 257:../../libDaisy//src/dev/oled_ssd130x.h ****         else
 3066              		.loc 8 257 28 view .LVU667
 3067 000a D308     		lsrs	r3, r2, #3
 3068              	.LVL209:
 257:../../libDaisy//src/dev/oled_ssd130x.h ****         else
 3069              		.loc 8 257 48 view .LVU668
 3070 000c 4FF0010C 		mov	ip, #1
 257:../../libDaisy//src/dev/oled_ssd130x.h ****         else
 3071              		.loc 8 257 54 view .LVU669
 3072 0010 02F00702 		and	r2, r2, #7
 3073              	.LVL210:
 257:../../libDaisy//src/dev/oled_ssd130x.h ****         else
 3074              		.loc 8 257 42 view .LVU670
 3075 0014 01EBC313 		add	r3, r1, r3, lsl #7
 257:../../libDaisy//src/dev/oled_ssd130x.h ****         else
 3076              		.loc 8 257 48 view .LVU671
 3077 0018 0CFA02F2 		lsl	r2, ip, r2
 257:../../libDaisy//src/dev/oled_ssd130x.h ****         else
 3078              		.loc 8 257 42 view .LVU672
 3079 001c C118     		adds	r1, r0, r3
 3080              	.LVL211:
 257:../../libDaisy//src/dev/oled_ssd130x.h ****         else
 3081              		.loc 8 257 42 view .LVU673
 3082 001e 0B7D     		ldrb	r3, [r1, #20]	@ zero_extendqisi2
 3083 0020 1A43     		orrs	r2, r2, r3
 3084 0022 0A75     		strb	r2, [r1, #20]
 3085 0024 7047     		bx	lr
 3086              	.LVL212:
 3087              	.L194:
 3088              	.LBB983:
 3089              	.LBI983:
 252:../../libDaisy//src/dev/oled_ssd130x.h ****     {
 3090              		.loc 8 252 10 is_stmt 1 view .LVU674
 3091              	.LBB984:
 259:../../libDaisy//src/dev/oled_ssd130x.h ****     }
 3092              		.loc 8 259 28 is_stmt 0 view .LVU675
 3093 0026 D308     		lsrs	r3, r2, #3
ARM GAS  /tmp/ccZePa4k.s 			page 90


 3094              	.LVL213:
 259:../../libDaisy//src/dev/oled_ssd130x.h ****     }
 3095              		.loc 8 259 49 view .LVU676
 3096 0028 4FF0010C 		mov	ip, #1
 259:../../libDaisy//src/dev/oled_ssd130x.h ****     }
 3097              		.loc 8 259 55 view .LVU677
 3098 002c 02F00702 		and	r2, r2, #7
 3099              	.LVL214:
 259:../../libDaisy//src/dev/oled_ssd130x.h ****     }
 3100              		.loc 8 259 42 view .LVU678
 3101 0030 01EBC313 		add	r3, r1, r3, lsl #7
 259:../../libDaisy//src/dev/oled_ssd130x.h ****     }
 3102              		.loc 8 259 49 view .LVU679
 3103 0034 0CFA02FC 		lsl	ip, ip, r2
 259:../../libDaisy//src/dev/oled_ssd130x.h ****     }
 3104              		.loc 8 259 42 view .LVU680
 3105 0038 C118     		adds	r1, r0, r3
 3106              	.LVL215:
 259:../../libDaisy//src/dev/oled_ssd130x.h ****     }
 3107              		.loc 8 259 42 view .LVU681
 3108 003a 0A7D     		ldrb	r2, [r1, #20]	@ zero_extendqisi2
 3109 003c 22EA0C02 		bic	r2, r2, ip
 3110 0040 0A75     		strb	r2, [r1, #20]
 3111              	.LVL216:
 3112              	.L192:
 259:../../libDaisy//src/dev/oled_ssd130x.h ****     }
 3113              		.loc 8 259 42 view .LVU682
 3114              	.LBE984:
 3115              	.LBE983:
 3116              	.LBE982:
 3117              	.LBE981:
  45:../../libDaisy//src/hid/disp/oled_display.h **** 
 3118              		.loc 6 45 5 view .LVU683
 3119 0042 7047     		bx	lr
 3120              		.cfi_endproc
 3121              	.LFE2601:
 3123              		.section	.text._ZN5daisy25OneBitGraphicsDisplayImplINS_11OledDisplayINS_13SSD130xDriverILj128ELj64
 3124              		.align	1
 3125              		.p2align 2,,3
 3126              		.weak	_ZN5daisy25OneBitGraphicsDisplayImplINS_11OledDisplayINS_13SSD130xDriverILj128ELj64ENS_24SSD
 3127              		.syntax unified
 3128              		.thumb
 3129              		.thumb_func
 3131              	_ZN5daisy25OneBitGraphicsDisplayImplINS_11OledDisplayINS_13SSD130xDriverILj128ELj64ENS_24SSD130x4Wi
 3132              	.LVL217:
 3133              	.LFB2602:
 221:../../libDaisy//src/hid/disp/display.h ****                   uint_fast8_t y1,
 3134              		.loc 7 221 10 is_stmt 1 view -0
 3135              		.cfi_startproc
 3136              		@ args = 8, pretend = 0, frame = 8
 3137              		@ frame_needed = 0, uses_anonymous_args = 0
 221:../../libDaisy//src/hid/disp/display.h ****                   uint_fast8_t y1,
 3138              		.loc 7 221 10 is_stmt 0 view .LVU685
 3139 0000 2DE9F04F 		push	{r4, r5, r6, r7, r8, r9, r10, fp, lr}
 3140              		.cfi_def_cfa_offset 36
 3141              		.cfi_offset 4, -36
 3142              		.cfi_offset 5, -32
ARM GAS  /tmp/ccZePa4k.s 			page 91


 3143              		.cfi_offset 6, -28
 3144              		.cfi_offset 7, -24
 3145              		.cfi_offset 8, -20
 3146              		.cfi_offset 9, -16
 3147              		.cfi_offset 10, -12
 3148              		.cfi_offset 11, -8
 3149              		.cfi_offset 14, -4
 3150 0004 83B0     		sub	sp, sp, #12
 3151              		.cfi_def_cfa_offset 48
 227:../../libDaisy//src/hid/disp/display.h ****         int_fast16_t deltaY = abs((int_fast16_t)y2 - (int_fast16_t)y1);
 3152              		.loc 7 227 52 view .LVU686
 3153 0006 5C1A     		subs	r4, r3, r1
 221:../../libDaisy//src/hid/disp/display.h ****                   uint_fast8_t y1,
 3154              		.loc 7 221 10 view .LVU687
 3155 0008 0C9E     		ldr	r6, [sp, #48]
 227:../../libDaisy//src/hid/disp/display.h ****         int_fast16_t deltaY = abs((int_fast16_t)y2 - (int_fast16_t)y1);
 3156              		.loc 7 227 22 view .LVU688
 3157 000a 002C     		cmp	r4, #0
 221:../../libDaisy//src/hid/disp/display.h ****                   uint_fast8_t y1,
 3158              		.loc 7 221 10 view .LVU689
 3159 000c 9DF83490 		ldrb	r9, [sp, #52]	@ zero_extendqisi2
 228:../../libDaisy//src/hid/disp/display.h ****         int_fast16_t signX  = ((x1 < x2) ? 1 : -1);
 3160              		.loc 7 228 52 view .LVU690
 3161 0010 A6EB0208 		sub	r8, r6, r2
 227:../../libDaisy//src/hid/disp/display.h ****         int_fast16_t deltaY = abs((int_fast16_t)y2 - (int_fast16_t)y1);
 3162              		.loc 7 227 22 view .LVU691
 3163 0014 B8BF     		it	lt
 3164 0016 6442     		rsblt	r4, r4, #0
 3165              	.LVL218:
 228:../../libDaisy//src/hid/disp/display.h ****         int_fast16_t signX  = ((x1 < x2) ? 1 : -1);
 3166              		.loc 7 228 22 view .LVU692
 3167 0018 B8F1000F 		cmp	r8, #0
 3168 001c B8BF     		it	lt
 3169 001e C8F10008 		rsblt	r8, r8, #0
 3170              	.LVL219:
 229:../../libDaisy//src/hid/disp/display.h ****         int_fast16_t signY  = ((y1 < y2) ? 1 : -1);
 3171              		.loc 7 229 42 view .LVU693
 3172 0022 8B42     		cmp	r3, r1
 3173 0024 8CBF     		ite	hi
 3174 0026 4FF0010A 		movhi	r10, #1
 3175 002a 4FF0FF3A 		movls	r10, #-1
 3176              	.LVL220:
 230:../../libDaisy//src/hid/disp/display.h ****         int_fast16_t error  = deltaX - deltaY;
 3177              		.loc 7 230 42 view .LVU694
 3178 002e 9642     		cmp	r6, r2
 231:../../libDaisy//src/hid/disp/display.h ****         int_fast16_t error2;
 3179              		.loc 7 231 22 view .LVU695
 3180 0030 A4EB080C 		sub	ip, r4, r8
 230:../../libDaisy//src/hid/disp/display.h ****         int_fast16_t error  = deltaX - deltaY;
 3181              		.loc 7 230 42 view .LVU696
 3182 0034 51D8     		bhi	.L197
 3183              	.LVL221:
 3184              	.LBB1001:
 3185              	.LBI1001:
  42:../../libDaisy//src/hid/disp/oled_display.h ****     {
 3186              		.loc 6 42 10 is_stmt 1 discriminator 4 view .LVU697
 3187              	.LBB1002:
ARM GAS  /tmp/ccZePa4k.s 			page 92


 3188              	.LBI1002:
 252:../../libDaisy//src/dev/oled_ssd130x.h ****     {
 3189              		.loc 8 252 10 discriminator 4 view .LVU698
 3190              	.LBE1002:
 3191              	.LBE1001:
 230:../../libDaisy//src/hid/disp/display.h ****         int_fast16_t error  = deltaX - deltaY;
 3192              		.loc 7 230 42 is_stmt 0 discriminator 4 view .LVU699
 3193 0036 4FF0FF35 		mov	r5, #-1
 3194              	.LBB1018:
 3195              	.LBB1012:
 3196              	.LBB1003:
 254:../../libDaisy//src/dev/oled_ssd130x.h ****             return;
 3197              		.loc 8 254 9 discriminator 4 view .LVU700
 3198 003a 7F2B     		cmp	r3, #127
 3199              	.LBE1003:
 3200              	.LBE1012:
 3201              	.LBE1018:
 230:../../libDaisy//src/hid/disp/display.h ****         int_fast16_t error  = deltaX - deltaY;
 3202              		.loc 7 230 42 discriminator 4 view .LVU701
 3203 003c 0195     		str	r5, [sp, #4]
 3204              	.LBB1019:
 3205              	.LBB1013:
 3206              	.LBB1008:
 254:../../libDaisy//src/dev/oled_ssd130x.h ****             return;
 3207              		.loc 8 254 9 discriminator 4 view .LVU702
 3208 003e 12D8     		bhi	.L198
 3209 0040 3F2E     		cmp	r6, #63
 3210 0042 10D8     		bhi	.L198
 3211              	.LVL222:
 3212              	.L209:
 257:../../libDaisy//src/dev/oled_ssd130x.h ****         else
 3213              		.loc 8 257 28 view .LVU703
 3214 0044 F508     		lsrs	r5, r6, #3
 257:../../libDaisy//src/dev/oled_ssd130x.h ****         else
 3215              		.loc 8 257 54 view .LVU704
 3216 0046 06F0070E 		and	lr, r6, #7
 257:../../libDaisy//src/dev/oled_ssd130x.h ****         else
 3217              		.loc 8 257 48 view .LVU705
 3218 004a 0127     		movs	r7, #1
 257:../../libDaisy//src/dev/oled_ssd130x.h ****         else
 3219              		.loc 8 257 42 view .LVU706
 3220 004c 03EBC515 		add	r5, r3, r5, lsl #7
 3221 0050 0544     		add	r5, r5, r0
 256:../../libDaisy//src/dev/oled_ssd130x.h ****             buffer_[x + (y / 8) * width] |= (1 << (y % 8));
 3222              		.loc 8 256 9 view .LVU707
 3223 0052 B9F1000F 		cmp	r9, #0
 3224 0056 47D0     		beq	.L199
 257:../../libDaisy//src/dev/oled_ssd130x.h ****         else
 3225              		.loc 8 257 48 view .LVU708
 3226 0058 07FA0EF7 		lsl	r7, r7, lr
 257:../../libDaisy//src/dev/oled_ssd130x.h ****         else
 3227              		.loc 8 257 42 view .LVU709
 3228 005c 95F814E0 		ldrb	lr, [r5, #20]	@ zero_extendqisi2
 3229 0060 47EA0E07 		orr	r7, r7, lr
 3230 0064 2F75     		strb	r7, [r5, #20]
 3231              	.LVL223:
 3232              	.L198:
ARM GAS  /tmp/ccZePa4k.s 			page 93


 257:../../libDaisy//src/dev/oled_ssd130x.h ****         else
 3233              		.loc 8 257 42 view .LVU710
 3234              	.LBE1008:
 3235              	.LBE1013:
 3236              	.LBE1019:
 239:../../libDaisy//src/hid/disp/display.h ****         {
 3237              		.loc 7 239 26 is_stmt 1 view .LVU711
 3238 0066 9642     		cmp	r6, r2
 3239 0068 01D1     		bne	.L202
 3240              	.L221:
 239:../../libDaisy//src/hid/disp/display.h ****         {
 3241              		.loc 7 239 26 is_stmt 0 view .LVU712
 3242 006a 8B42     		cmp	r3, r1
 3243 006c 29D0     		beq	.L195
 3244              	.L202:
 3245              	.LVL224:
 243:../../libDaisy//src/hid/disp/display.h ****             {
 3246              		.loc 7 243 23 view .LVU713
 3247 006e C8F10007 		rsb	r7, r8, #0
 3248              	.L204:
 3249              	.LVL225:
 3250              	.LBB1020:
 3251              	.LBI1020:
  42:../../libDaisy//src/hid/disp/oled_display.h ****     {
 3252              		.loc 6 42 10 is_stmt 1 view .LVU714
 3253              	.LBB1021:
 3254              	.LBI1021:
 252:../../libDaisy//src/dev/oled_ssd130x.h ****     {
 3255              		.loc 8 252 10 view .LVU715
 3256              	.LBB1022:
 254:../../libDaisy//src/dev/oled_ssd130x.h ****             return;
 3257              		.loc 8 254 9 is_stmt 0 view .LVU716
 3258 0072 7F29     		cmp	r1, #127
 3259 0074 14D8     		bhi	.L205
 3260 0076 3F2A     		cmp	r2, #63
 3261 0078 12D8     		bhi	.L205
 257:../../libDaisy//src/dev/oled_ssd130x.h ****         else
 3262              		.loc 8 257 28 view .LVU717
 3263 007a D508     		lsrs	r5, r2, #3
 257:../../libDaisy//src/dev/oled_ssd130x.h ****         else
 3264              		.loc 8 257 54 view .LVU718
 3265 007c 02F0070B 		and	fp, r2, #7
 257:../../libDaisy//src/dev/oled_ssd130x.h ****         else
 3266              		.loc 8 257 48 view .LVU719
 3267 0080 4FF0010E 		mov	lr, #1
 257:../../libDaisy//src/dev/oled_ssd130x.h ****         else
 3268              		.loc 8 257 42 view .LVU720
 3269 0084 01EBC515 		add	r5, r1, r5, lsl #7
 3270 0088 0544     		add	r5, r5, r0
 256:../../libDaisy//src/dev/oled_ssd130x.h ****             buffer_[x + (y / 8) * width] |= (1 << (y % 8));
 3271              		.loc 8 256 9 view .LVU721
 3272 008a B9F1000F 		cmp	r9, #0
 3273 008e 1BD0     		beq	.L206
 257:../../libDaisy//src/dev/oled_ssd130x.h ****         else
 3274              		.loc 8 257 48 view .LVU722
 3275 0090 0EFA0BFE 		lsl	lr, lr, fp
 257:../../libDaisy//src/dev/oled_ssd130x.h ****         else
ARM GAS  /tmp/ccZePa4k.s 			page 94


 3276              		.loc 8 257 42 view .LVU723
 3277 0094 95F814B0 		ldrb	fp, [r5, #20]	@ zero_extendqisi2
 3278 0098 4EEA0B0E 		orr	lr, lr, fp
 3279 009c 85F814E0 		strb	lr, [r5, #20]
 3280              	.L205:
 3281              	.LVL226:
 257:../../libDaisy//src/dev/oled_ssd130x.h ****         else
 3282              		.loc 8 257 42 view .LVU724
 3283              	.LBE1022:
 3284              	.LBE1021:
 3285              	.LBE1020:
 243:../../libDaisy//src/hid/disp/display.h ****             {
 3286              		.loc 7 243 13 view .LVU725
 3287 00a0 B7EB4C0F 		cmp	r7, ip, lsl #1
 242:../../libDaisy//src/hid/disp/display.h ****             if(error2 > -deltaY)
 3288              		.loc 7 242 20 view .LVU726
 3289 00a4 4FEA4C05 		lsl	r5, ip, #1
 3290              	.LVL227:
 243:../../libDaisy//src/hid/disp/display.h ****             {
 3291              		.loc 7 243 13 view .LVU727
 3292 00a8 02DA     		bge	.L207
 245:../../libDaisy//src/hid/disp/display.h ****                 x1 += signX;
 3293              		.loc 7 245 23 view .LVU728
 3294 00aa ACEB080C 		sub	ip, ip, r8
 3295              	.LVL228:
 246:../../libDaisy//src/hid/disp/display.h ****             }
 3296              		.loc 7 246 20 view .LVU729
 3297 00ae 5144     		add	r1, r1, r10
 3298              	.LVL229:
 3299              	.L207:
 249:../../libDaisy//src/hid/disp/display.h ****             {
 3300              		.loc 7 249 13 view .LVU730
 3301 00b0 AC42     		cmp	r4, r5
 3302 00b2 02DD     		ble	.L208
 252:../../libDaisy//src/hid/disp/display.h ****             }
 3303              		.loc 7 252 20 view .LVU731
 3304 00b4 019D     		ldr	r5, [sp, #4]
 3305              	.LVL230:
 251:../../libDaisy//src/hid/disp/display.h ****                 y1 += signY;
 3306              		.loc 7 251 23 view .LVU732
 3307 00b6 A444     		add	ip, ip, r4
 3308              	.LVL231:
 252:../../libDaisy//src/hid/disp/display.h ****             }
 3309              		.loc 7 252 20 view .LVU733
 3310 00b8 2A44     		add	r2, r2, r5
 3311              	.LVL232:
 3312              	.L208:
 239:../../libDaisy//src/hid/disp/display.h ****         {
 3313              		.loc 7 239 26 is_stmt 1 view .LVU734
 3314 00ba 9942     		cmp	r1, r3
 3315 00bc D9D1     		bne	.L204
 239:../../libDaisy//src/hid/disp/display.h ****         {
 3316              		.loc 7 239 26 is_stmt 0 view .LVU735
 3317 00be 9642     		cmp	r6, r2
 3318 00c0 D7D1     		bne	.L204
 3319              	.L195:
 255:../../libDaisy//src/hid/disp/display.h **** 
ARM GAS  /tmp/ccZePa4k.s 			page 95


 3320              		.loc 7 255 5 view .LVU736
 3321 00c2 03B0     		add	sp, sp, #12
 3322              		.cfi_remember_state
 3323              		.cfi_def_cfa_offset 36
 3324              		@ sp needed
 3325 00c4 BDE8F08F 		pop	{r4, r5, r6, r7, r8, r9, r10, fp, pc}
 3326              	.LVL233:
 3327              	.L206:
 3328              		.cfi_restore_state
 3329              	.LBB1027:
 3330              	.LBB1026:
 3331              	.LBB1025:
 3332              	.LBB1023:
 3333              	.LBI1023:
 252:../../libDaisy//src/dev/oled_ssd130x.h ****     {
 3334              		.loc 8 252 10 is_stmt 1 view .LVU737
 3335              	.LBB1024:
 259:../../libDaisy//src/dev/oled_ssd130x.h ****     }
 3336              		.loc 8 259 49 is_stmt 0 view .LVU738
 3337 00c8 0EFA0BFB 		lsl	fp, lr, fp
 259:../../libDaisy//src/dev/oled_ssd130x.h ****     }
 3338              		.loc 8 259 42 view .LVU739
 3339 00cc 95F814E0 		ldrb	lr, [r5, #20]	@ zero_extendqisi2
 3340 00d0 2EEA0B0E 		bic	lr, lr, fp
 3341 00d4 85F814E0 		strb	lr, [r5, #20]
 3342 00d8 E2E7     		b	.L205
 3343              	.LVL234:
 3344              	.L197:
 259:../../libDaisy//src/dev/oled_ssd130x.h ****     }
 3345              		.loc 8 259 42 view .LVU740
 3346              	.LBE1024:
 3347              	.LBE1023:
 3348              	.LBE1025:
 3349              	.LBE1026:
 3350              	.LBE1027:
 3351              	.LBB1028:
  42:../../libDaisy//src/hid/disp/oled_display.h ****     {
 3352              		.loc 6 42 10 is_stmt 1 view .LVU741
 3353              	.LBB1014:
 252:../../libDaisy//src/dev/oled_ssd130x.h ****     {
 3354              		.loc 8 252 10 view .LVU742
 3355              	.LBE1014:
 3356              	.LBE1028:
 230:../../libDaisy//src/hid/disp/display.h ****         int_fast16_t error  = deltaX - deltaY;
 3357              		.loc 7 230 42 is_stmt 0 view .LVU743
 3358 00da 0125     		movs	r5, #1
 3359              	.LBB1029:
 3360              	.LBB1015:
 3361              	.LBB1009:
 254:../../libDaisy//src/dev/oled_ssd130x.h ****             return;
 3362              		.loc 8 254 9 view .LVU744
 3363 00dc 7F2B     		cmp	r3, #127
 3364              	.LBE1009:
 3365              	.LBE1015:
 3366              	.LBE1029:
 230:../../libDaisy//src/hid/disp/display.h ****         int_fast16_t error  = deltaX - deltaY;
 3367              		.loc 7 230 42 view .LVU745
ARM GAS  /tmp/ccZePa4k.s 			page 96


 3368 00de 0195     		str	r5, [sp, #4]
 3369              	.LBB1030:
 3370              	.LBB1016:
 3371              	.LBB1010:
 254:../../libDaisy//src/dev/oled_ssd130x.h ****             return;
 3372              		.loc 8 254 9 view .LVU746
 3373 00e0 C5D8     		bhi	.L202
 3374 00e2 3F2E     		cmp	r6, #63
 3375 00e4 AED9     		bls	.L209
 3376 00e6 C2E7     		b	.L202
 3377              	.LVL235:
 3378              	.L199:
 3379              	.LBB1004:
 3380              	.LBI1004:
 252:../../libDaisy//src/dev/oled_ssd130x.h ****     {
 3381              		.loc 8 252 10 is_stmt 1 view .LVU747
 3382              	.LBB1005:
 259:../../libDaisy//src/dev/oled_ssd130x.h ****     }
 3383              		.loc 8 259 49 is_stmt 0 view .LVU748
 3384 00e8 07FA0EFE 		lsl	lr, r7, lr
 259:../../libDaisy//src/dev/oled_ssd130x.h ****     }
 3385              		.loc 8 259 42 view .LVU749
 3386 00ec 2F7D     		ldrb	r7, [r5, #20]	@ zero_extendqisi2
 3387              	.LBE1005:
 3388              	.LBE1004:
 3389              	.LBE1010:
 3390              	.LBE1016:
 3391              	.LBE1030:
 239:../../libDaisy//src/hid/disp/display.h ****         {
 3392              		.loc 7 239 26 view .LVU750
 3393 00ee 9642     		cmp	r6, r2
 3394              	.LBB1031:
 3395              	.LBB1017:
 3396              	.LBB1011:
 3397              	.LBB1007:
 3398              	.LBB1006:
 259:../../libDaisy//src/dev/oled_ssd130x.h ****     }
 3399              		.loc 8 259 42 view .LVU751
 3400 00f0 27EA0E07 		bic	r7, r7, lr
 3401 00f4 2F75     		strb	r7, [r5, #20]
 3402              	.LVL236:
 259:../../libDaisy//src/dev/oled_ssd130x.h ****     }
 3403              		.loc 8 259 42 view .LVU752
 3404              	.LBE1006:
 3405              	.LBE1007:
 3406              	.LBE1011:
 3407              	.LBE1017:
 3408              	.LBE1031:
 239:../../libDaisy//src/hid/disp/display.h ****         {
 3409              		.loc 7 239 26 is_stmt 1 view .LVU753
 3410 00f6 B8D0     		beq	.L221
 3411 00f8 B9E7     		b	.L202
 3412              		.cfi_endproc
 3413              	.LFE2602:
 3415 00fa 00BF     		.section	.text._ZN5daisy25OneBitGraphicsDisplayImplINS_11OledDisplayINS_13SSD130xDriverILj128ELj64
 3416              		.align	1
 3417              		.p2align 2,,3
ARM GAS  /tmp/ccZePa4k.s 			page 97


 3418              		.weak	_ZN5daisy25OneBitGraphicsDisplayImplINS_11OledDisplayINS_13SSD130xDriverILj128ELj64ENS_24SSD
 3419              		.syntax unified
 3420              		.thumb
 3421              		.thumb_func
 3423              	_ZN5daisy25OneBitGraphicsDisplayImplINS_11OledDisplayINS_13SSD130xDriverILj128ELj64ENS_24SSD130x4Wi
 3424              	.LVL237:
 3425              	.LFB2604:
 283:../../libDaisy//src/hid/disp/display.h ****                  uint_fast8_t y,
 3426              		.loc 7 283 10 view -0
 3427              		.cfi_startproc
 3428              		@ args = 12, pretend = 0, frame = 8
 3429              		@ frame_needed = 0, uses_anonymous_args = 0
 283:../../libDaisy//src/hid/disp/display.h ****                  uint_fast8_t y,
 3430              		.loc 7 283 10 is_stmt 0 view .LVU755
 3431 0000 2DE9F04F 		push	{r4, r5, r6, r7, r8, r9, r10, fp, lr}
 3432              		.cfi_def_cfa_offset 36
 3433              		.cfi_offset 4, -36
 3434              		.cfi_offset 5, -32
 3435              		.cfi_offset 6, -28
 3436              		.cfi_offset 7, -24
 3437              		.cfi_offset 8, -20
 3438              		.cfi_offset 9, -16
 3439              		.cfi_offset 10, -12
 3440              		.cfi_offset 11, -8
 3441              		.cfi_offset 14, -4
 3442 0004 2DED068B 		vpush.64	{d8, d9, d10}
 3443              		.cfi_def_cfa_offset 60
 3444              		.cfi_offset 80, -60
 3445              		.cfi_offset 81, -56
 3446              		.cfi_offset 82, -52
 3447              		.cfi_offset 83, -48
 3448              		.cfi_offset 84, -44
 3449              		.cfi_offset 85, -40
 3450 0008 83B0     		sub	sp, sp, #12
 3451              		.cfi_def_cfa_offset 72
 283:../../libDaisy//src/hid/disp/display.h ****                  uint_fast8_t y,
 3452              		.loc 7 283 10 view .LVU756
 3453 000a 1F46     		mov	r7, r3
 3454 000c 8046     		mov	r8, r0
 3455 000e 0D46     		mov	r5, r1
 3456 0010 9DF85030 		ldrb	r3, [sp, #80]	@ zero_extendqisi2
 3457              	.LVL238:
 283:../../libDaisy//src/hid/disp/display.h ****                  uint_fast8_t y,
 3458              		.loc 7 283 10 view .LVU757
 3459 0014 1646     		mov	r6, r2
 3460 0016 0193     		str	r3, [sp, #4]
 306:../../libDaisy//src/hid/disp/display.h ****         {
 3461              		.loc 7 306 9 view .LVU758
 3462 0018 139B     		ldr	r3, [sp, #76]
 3463 001a 002B     		cmp	r3, #0
 3464 001c C0F22182 		blt	.L223
 313:../../libDaisy//src/hid/disp/display.h **** 
 3465              		.loc 7 313 27 view .LVU759
 3466 0020 129A     		ldr	r2, [sp, #72]
 3467              	.LVL239:
 313:../../libDaisy//src/hid/disp/display.h **** 
 3468              		.loc 7 313 27 view .LVU760
ARM GAS  /tmp/ccZePa4k.s 			page 98


 3469 0022 1344     		add	r3, r3, r2
 3470 0024 06EE103A 		vmov	s12, r3	@ int
 3471              	.LVL240:
 3472              	.L224:
 312:../../libDaisy//src/hid/disp/display.h ****         end_angle_rad   = deg2rad(start_angle + sweep);
 3473              		.loc 7 312 27 view .LVU761
 3474 0028 DDED127A 		vldr.32	s15, [sp, #72]	@ int
 313:../../libDaisy//src/hid/disp/display.h **** 
 3475              		.loc 7 313 27 view .LVU762
 3476 002c B8EEC66B 		vcvt.f64.s32	d6, s12
 312:../../libDaisy//src/hid/disp/display.h ****         end_angle_rad   = deg2rad(start_angle + sweep);
 3477              		.loc 7 312 27 view .LVU763
 3478 0030 9FEDCD4B 		vldr.64	d4, .L299
 3479 0034 B8EEE77B 		vcvt.f64.s32	d7, s15
 3480 0038 9FEDCD5B 		vldr.64	d5, .L299+8
 3481 003c 27EE047B 		vmul.f64	d7, d7, d4
 313:../../libDaisy//src/hid/disp/display.h **** 
 3482              		.loc 7 313 27 view .LVU764
 3483 0040 26EE046B 		vmul.f64	d6, d6, d4
 312:../../libDaisy//src/hid/disp/display.h ****         end_angle_rad   = deg2rad(start_angle + sweep);
 3484              		.loc 7 312 27 view .LVU765
 3485 0044 87EE050B 		vdiv.f64	d0, d7, d5
 313:../../libDaisy//src/hid/disp/display.h **** 
 3486              		.loc 7 313 27 view .LVU766
 3487 0048 86EE05AB 		vdiv.f64	d10, d6, d5
 312:../../libDaisy//src/hid/disp/display.h ****         end_angle_rad   = deg2rad(start_angle + sweep);
 3488              		.loc 7 312 25 view .LVU767
 3489 004c F7EEC08B 		vcvt.f32.f64	s17, d0
 3490              	.LVL241:
 3491              	.LBB1064:
 3492              	.LBB1065:
 3493              		.file 10 "/home/vinfernandes/Projects/daisy/gcc-arm/arm-none-eabi/include/c++/10.3.1/cmath"
   1:/home/vinfernandes/Projects/daisy/gcc-arm/arm-none-eabi/include/c++/10.3.1/cmath **** // -*- C++ -*- C forwarding header.
   2:/home/vinfernandes/Projects/daisy/gcc-arm/arm-none-eabi/include/c++/10.3.1/cmath **** 
   3:/home/vinfernandes/Projects/daisy/gcc-arm/arm-none-eabi/include/c++/10.3.1/cmath **** // Copyright (C) 1997-2020 Free Software Foundation, Inc.
   4:/home/vinfernandes/Projects/daisy/gcc-arm/arm-none-eabi/include/c++/10.3.1/cmath **** //
   5:/home/vinfernandes/Projects/daisy/gcc-arm/arm-none-eabi/include/c++/10.3.1/cmath **** // This file is part of the GNU ISO C++ Library.  This library is free
   6:/home/vinfernandes/Projects/daisy/gcc-arm/arm-none-eabi/include/c++/10.3.1/cmath **** // software; you can redistribute it and/or modify it under the
   7:/home/vinfernandes/Projects/daisy/gcc-arm/arm-none-eabi/include/c++/10.3.1/cmath **** // terms of the GNU General Public License as published by the
   8:/home/vinfernandes/Projects/daisy/gcc-arm/arm-none-eabi/include/c++/10.3.1/cmath **** // Free Software Foundation; either version 3, or (at your option)
   9:/home/vinfernandes/Projects/daisy/gcc-arm/arm-none-eabi/include/c++/10.3.1/cmath **** // any later version.
  10:/home/vinfernandes/Projects/daisy/gcc-arm/arm-none-eabi/include/c++/10.3.1/cmath **** 
  11:/home/vinfernandes/Projects/daisy/gcc-arm/arm-none-eabi/include/c++/10.3.1/cmath **** // This library is distributed in the hope that it will be useful,
  12:/home/vinfernandes/Projects/daisy/gcc-arm/arm-none-eabi/include/c++/10.3.1/cmath **** // but WITHOUT ANY WARRANTY; without even the implied warranty of
  13:/home/vinfernandes/Projects/daisy/gcc-arm/arm-none-eabi/include/c++/10.3.1/cmath **** // MERCHANTABILITY or FITNESS FOR A PARTICULAR PURPOSE.  See the
  14:/home/vinfernandes/Projects/daisy/gcc-arm/arm-none-eabi/include/c++/10.3.1/cmath **** // GNU General Public License for more details.
  15:/home/vinfernandes/Projects/daisy/gcc-arm/arm-none-eabi/include/c++/10.3.1/cmath **** 
  16:/home/vinfernandes/Projects/daisy/gcc-arm/arm-none-eabi/include/c++/10.3.1/cmath **** // Under Section 7 of GPL version 3, you are granted additional
  17:/home/vinfernandes/Projects/daisy/gcc-arm/arm-none-eabi/include/c++/10.3.1/cmath **** // permissions described in the GCC Runtime Library Exception, version
  18:/home/vinfernandes/Projects/daisy/gcc-arm/arm-none-eabi/include/c++/10.3.1/cmath **** // 3.1, as published by the Free Software Foundation.
  19:/home/vinfernandes/Projects/daisy/gcc-arm/arm-none-eabi/include/c++/10.3.1/cmath **** 
  20:/home/vinfernandes/Projects/daisy/gcc-arm/arm-none-eabi/include/c++/10.3.1/cmath **** // You should have received a copy of the GNU General Public License and
  21:/home/vinfernandes/Projects/daisy/gcc-arm/arm-none-eabi/include/c++/10.3.1/cmath **** // a copy of the GCC Runtime Library Exception along with this program;
  22:/home/vinfernandes/Projects/daisy/gcc-arm/arm-none-eabi/include/c++/10.3.1/cmath **** // see the files COPYING3 and COPYING.RUNTIME respectively.  If not, see
  23:/home/vinfernandes/Projects/daisy/gcc-arm/arm-none-eabi/include/c++/10.3.1/cmath **** // <http://www.gnu.org/licenses/>.
  24:/home/vinfernandes/Projects/daisy/gcc-arm/arm-none-eabi/include/c++/10.3.1/cmath **** 
  25:/home/vinfernandes/Projects/daisy/gcc-arm/arm-none-eabi/include/c++/10.3.1/cmath **** /** @file include/cmath
ARM GAS  /tmp/ccZePa4k.s 			page 99


  26:/home/vinfernandes/Projects/daisy/gcc-arm/arm-none-eabi/include/c++/10.3.1/cmath ****  *  This is a Standard C++ Library file.  You should @c \#include this file
  27:/home/vinfernandes/Projects/daisy/gcc-arm/arm-none-eabi/include/c++/10.3.1/cmath ****  *  in your programs, rather than any of the @a *.h implementation files.
  28:/home/vinfernandes/Projects/daisy/gcc-arm/arm-none-eabi/include/c++/10.3.1/cmath ****  *
  29:/home/vinfernandes/Projects/daisy/gcc-arm/arm-none-eabi/include/c++/10.3.1/cmath ****  *  This is the C++ version of the Standard C Library header @c math.h,
  30:/home/vinfernandes/Projects/daisy/gcc-arm/arm-none-eabi/include/c++/10.3.1/cmath ****  *  and its contents are (mostly) the same as that header, but are all
  31:/home/vinfernandes/Projects/daisy/gcc-arm/arm-none-eabi/include/c++/10.3.1/cmath ****  *  contained in the namespace @c std (except for names which are defined
  32:/home/vinfernandes/Projects/daisy/gcc-arm/arm-none-eabi/include/c++/10.3.1/cmath ****  *  as macros in C).
  33:/home/vinfernandes/Projects/daisy/gcc-arm/arm-none-eabi/include/c++/10.3.1/cmath ****  */
  34:/home/vinfernandes/Projects/daisy/gcc-arm/arm-none-eabi/include/c++/10.3.1/cmath **** 
  35:/home/vinfernandes/Projects/daisy/gcc-arm/arm-none-eabi/include/c++/10.3.1/cmath **** //
  36:/home/vinfernandes/Projects/daisy/gcc-arm/arm-none-eabi/include/c++/10.3.1/cmath **** // ISO C++ 14882: 26.5  C library
  37:/home/vinfernandes/Projects/daisy/gcc-arm/arm-none-eabi/include/c++/10.3.1/cmath **** //
  38:/home/vinfernandes/Projects/daisy/gcc-arm/arm-none-eabi/include/c++/10.3.1/cmath **** 
  39:/home/vinfernandes/Projects/daisy/gcc-arm/arm-none-eabi/include/c++/10.3.1/cmath **** #pragma GCC system_header
  40:/home/vinfernandes/Projects/daisy/gcc-arm/arm-none-eabi/include/c++/10.3.1/cmath **** 
  41:/home/vinfernandes/Projects/daisy/gcc-arm/arm-none-eabi/include/c++/10.3.1/cmath **** #include <bits/c++config.h>
  42:/home/vinfernandes/Projects/daisy/gcc-arm/arm-none-eabi/include/c++/10.3.1/cmath **** #include <bits/cpp_type_traits.h>
  43:/home/vinfernandes/Projects/daisy/gcc-arm/arm-none-eabi/include/c++/10.3.1/cmath **** #include <ext/type_traits.h>
  44:/home/vinfernandes/Projects/daisy/gcc-arm/arm-none-eabi/include/c++/10.3.1/cmath **** #define _GLIBCXX_INCLUDE_NEXT_C_HEADERS
  45:/home/vinfernandes/Projects/daisy/gcc-arm/arm-none-eabi/include/c++/10.3.1/cmath **** #include_next <math.h>
  46:/home/vinfernandes/Projects/daisy/gcc-arm/arm-none-eabi/include/c++/10.3.1/cmath **** #undef _GLIBCXX_INCLUDE_NEXT_C_HEADERS
  47:/home/vinfernandes/Projects/daisy/gcc-arm/arm-none-eabi/include/c++/10.3.1/cmath **** #include <bits/std_abs.h>
  48:/home/vinfernandes/Projects/daisy/gcc-arm/arm-none-eabi/include/c++/10.3.1/cmath **** 
  49:/home/vinfernandes/Projects/daisy/gcc-arm/arm-none-eabi/include/c++/10.3.1/cmath **** #ifndef _GLIBCXX_CMATH
  50:/home/vinfernandes/Projects/daisy/gcc-arm/arm-none-eabi/include/c++/10.3.1/cmath **** #define _GLIBCXX_CMATH 1
  51:/home/vinfernandes/Projects/daisy/gcc-arm/arm-none-eabi/include/c++/10.3.1/cmath **** 
  52:/home/vinfernandes/Projects/daisy/gcc-arm/arm-none-eabi/include/c++/10.3.1/cmath **** // Get rid of those macros defined in <math.h> in lieu of real functions.
  53:/home/vinfernandes/Projects/daisy/gcc-arm/arm-none-eabi/include/c++/10.3.1/cmath **** #undef div
  54:/home/vinfernandes/Projects/daisy/gcc-arm/arm-none-eabi/include/c++/10.3.1/cmath **** #undef acos
  55:/home/vinfernandes/Projects/daisy/gcc-arm/arm-none-eabi/include/c++/10.3.1/cmath **** #undef asin
  56:/home/vinfernandes/Projects/daisy/gcc-arm/arm-none-eabi/include/c++/10.3.1/cmath **** #undef atan
  57:/home/vinfernandes/Projects/daisy/gcc-arm/arm-none-eabi/include/c++/10.3.1/cmath **** #undef atan2
  58:/home/vinfernandes/Projects/daisy/gcc-arm/arm-none-eabi/include/c++/10.3.1/cmath **** #undef ceil
  59:/home/vinfernandes/Projects/daisy/gcc-arm/arm-none-eabi/include/c++/10.3.1/cmath **** #undef cos
  60:/home/vinfernandes/Projects/daisy/gcc-arm/arm-none-eabi/include/c++/10.3.1/cmath **** #undef cosh
  61:/home/vinfernandes/Projects/daisy/gcc-arm/arm-none-eabi/include/c++/10.3.1/cmath **** #undef exp
  62:/home/vinfernandes/Projects/daisy/gcc-arm/arm-none-eabi/include/c++/10.3.1/cmath **** #undef fabs
  63:/home/vinfernandes/Projects/daisy/gcc-arm/arm-none-eabi/include/c++/10.3.1/cmath **** #undef floor
  64:/home/vinfernandes/Projects/daisy/gcc-arm/arm-none-eabi/include/c++/10.3.1/cmath **** #undef fmod
  65:/home/vinfernandes/Projects/daisy/gcc-arm/arm-none-eabi/include/c++/10.3.1/cmath **** #undef frexp
  66:/home/vinfernandes/Projects/daisy/gcc-arm/arm-none-eabi/include/c++/10.3.1/cmath **** #undef ldexp
  67:/home/vinfernandes/Projects/daisy/gcc-arm/arm-none-eabi/include/c++/10.3.1/cmath **** #undef log
  68:/home/vinfernandes/Projects/daisy/gcc-arm/arm-none-eabi/include/c++/10.3.1/cmath **** #undef log10
  69:/home/vinfernandes/Projects/daisy/gcc-arm/arm-none-eabi/include/c++/10.3.1/cmath **** #undef modf
  70:/home/vinfernandes/Projects/daisy/gcc-arm/arm-none-eabi/include/c++/10.3.1/cmath **** #undef pow
  71:/home/vinfernandes/Projects/daisy/gcc-arm/arm-none-eabi/include/c++/10.3.1/cmath **** #undef sin
  72:/home/vinfernandes/Projects/daisy/gcc-arm/arm-none-eabi/include/c++/10.3.1/cmath **** #undef sinh
  73:/home/vinfernandes/Projects/daisy/gcc-arm/arm-none-eabi/include/c++/10.3.1/cmath **** #undef sqrt
  74:/home/vinfernandes/Projects/daisy/gcc-arm/arm-none-eabi/include/c++/10.3.1/cmath **** #undef tan
  75:/home/vinfernandes/Projects/daisy/gcc-arm/arm-none-eabi/include/c++/10.3.1/cmath **** #undef tanh
  76:/home/vinfernandes/Projects/daisy/gcc-arm/arm-none-eabi/include/c++/10.3.1/cmath **** 
  77:/home/vinfernandes/Projects/daisy/gcc-arm/arm-none-eabi/include/c++/10.3.1/cmath **** extern "C++"
  78:/home/vinfernandes/Projects/daisy/gcc-arm/arm-none-eabi/include/c++/10.3.1/cmath **** {
  79:/home/vinfernandes/Projects/daisy/gcc-arm/arm-none-eabi/include/c++/10.3.1/cmath **** namespace std _GLIBCXX_VISIBILITY(default)
  80:/home/vinfernandes/Projects/daisy/gcc-arm/arm-none-eabi/include/c++/10.3.1/cmath **** {
  81:/home/vinfernandes/Projects/daisy/gcc-arm/arm-none-eabi/include/c++/10.3.1/cmath **** _GLIBCXX_BEGIN_NAMESPACE_VERSION
  82:/home/vinfernandes/Projects/daisy/gcc-arm/arm-none-eabi/include/c++/10.3.1/cmath **** 
ARM GAS  /tmp/ccZePa4k.s 			page 100


  83:/home/vinfernandes/Projects/daisy/gcc-arm/arm-none-eabi/include/c++/10.3.1/cmath ****   using ::acos;
  84:/home/vinfernandes/Projects/daisy/gcc-arm/arm-none-eabi/include/c++/10.3.1/cmath **** 
  85:/home/vinfernandes/Projects/daisy/gcc-arm/arm-none-eabi/include/c++/10.3.1/cmath **** #ifndef __CORRECT_ISO_CPP_MATH_H_PROTO
  86:/home/vinfernandes/Projects/daisy/gcc-arm/arm-none-eabi/include/c++/10.3.1/cmath ****   inline _GLIBCXX_CONSTEXPR float
  87:/home/vinfernandes/Projects/daisy/gcc-arm/arm-none-eabi/include/c++/10.3.1/cmath ****   acos(float __x)
  88:/home/vinfernandes/Projects/daisy/gcc-arm/arm-none-eabi/include/c++/10.3.1/cmath ****   { return __builtin_acosf(__x); }
  89:/home/vinfernandes/Projects/daisy/gcc-arm/arm-none-eabi/include/c++/10.3.1/cmath **** 
  90:/home/vinfernandes/Projects/daisy/gcc-arm/arm-none-eabi/include/c++/10.3.1/cmath ****   inline _GLIBCXX_CONSTEXPR long double
  91:/home/vinfernandes/Projects/daisy/gcc-arm/arm-none-eabi/include/c++/10.3.1/cmath ****   acos(long double __x)
  92:/home/vinfernandes/Projects/daisy/gcc-arm/arm-none-eabi/include/c++/10.3.1/cmath ****   { return __builtin_acosl(__x); }
  93:/home/vinfernandes/Projects/daisy/gcc-arm/arm-none-eabi/include/c++/10.3.1/cmath **** #endif
  94:/home/vinfernandes/Projects/daisy/gcc-arm/arm-none-eabi/include/c++/10.3.1/cmath **** 
  95:/home/vinfernandes/Projects/daisy/gcc-arm/arm-none-eabi/include/c++/10.3.1/cmath ****   template<typename _Tp>
  96:/home/vinfernandes/Projects/daisy/gcc-arm/arm-none-eabi/include/c++/10.3.1/cmath ****     inline _GLIBCXX_CONSTEXPR
  97:/home/vinfernandes/Projects/daisy/gcc-arm/arm-none-eabi/include/c++/10.3.1/cmath ****     typename __gnu_cxx::__enable_if<__is_integer<_Tp>::__value, 
  98:/home/vinfernandes/Projects/daisy/gcc-arm/arm-none-eabi/include/c++/10.3.1/cmath ****                                     double>::__type
  99:/home/vinfernandes/Projects/daisy/gcc-arm/arm-none-eabi/include/c++/10.3.1/cmath ****     acos(_Tp __x)
 100:/home/vinfernandes/Projects/daisy/gcc-arm/arm-none-eabi/include/c++/10.3.1/cmath ****     { return __builtin_acos(__x); }
 101:/home/vinfernandes/Projects/daisy/gcc-arm/arm-none-eabi/include/c++/10.3.1/cmath **** 
 102:/home/vinfernandes/Projects/daisy/gcc-arm/arm-none-eabi/include/c++/10.3.1/cmath ****   using ::asin;
 103:/home/vinfernandes/Projects/daisy/gcc-arm/arm-none-eabi/include/c++/10.3.1/cmath **** 
 104:/home/vinfernandes/Projects/daisy/gcc-arm/arm-none-eabi/include/c++/10.3.1/cmath **** #ifndef __CORRECT_ISO_CPP_MATH_H_PROTO
 105:/home/vinfernandes/Projects/daisy/gcc-arm/arm-none-eabi/include/c++/10.3.1/cmath ****   inline _GLIBCXX_CONSTEXPR float
 106:/home/vinfernandes/Projects/daisy/gcc-arm/arm-none-eabi/include/c++/10.3.1/cmath ****   asin(float __x)
 107:/home/vinfernandes/Projects/daisy/gcc-arm/arm-none-eabi/include/c++/10.3.1/cmath ****   { return __builtin_asinf(__x); }
 108:/home/vinfernandes/Projects/daisy/gcc-arm/arm-none-eabi/include/c++/10.3.1/cmath **** 
 109:/home/vinfernandes/Projects/daisy/gcc-arm/arm-none-eabi/include/c++/10.3.1/cmath ****   inline _GLIBCXX_CONSTEXPR long double
 110:/home/vinfernandes/Projects/daisy/gcc-arm/arm-none-eabi/include/c++/10.3.1/cmath ****   asin(long double __x)
 111:/home/vinfernandes/Projects/daisy/gcc-arm/arm-none-eabi/include/c++/10.3.1/cmath ****   { return __builtin_asinl(__x); }
 112:/home/vinfernandes/Projects/daisy/gcc-arm/arm-none-eabi/include/c++/10.3.1/cmath **** #endif
 113:/home/vinfernandes/Projects/daisy/gcc-arm/arm-none-eabi/include/c++/10.3.1/cmath **** 
 114:/home/vinfernandes/Projects/daisy/gcc-arm/arm-none-eabi/include/c++/10.3.1/cmath ****   template<typename _Tp>
 115:/home/vinfernandes/Projects/daisy/gcc-arm/arm-none-eabi/include/c++/10.3.1/cmath ****     inline _GLIBCXX_CONSTEXPR
 116:/home/vinfernandes/Projects/daisy/gcc-arm/arm-none-eabi/include/c++/10.3.1/cmath ****     typename __gnu_cxx::__enable_if<__is_integer<_Tp>::__value,
 117:/home/vinfernandes/Projects/daisy/gcc-arm/arm-none-eabi/include/c++/10.3.1/cmath ****                                     double>::__type
 118:/home/vinfernandes/Projects/daisy/gcc-arm/arm-none-eabi/include/c++/10.3.1/cmath ****     asin(_Tp __x)
 119:/home/vinfernandes/Projects/daisy/gcc-arm/arm-none-eabi/include/c++/10.3.1/cmath ****     { return __builtin_asin(__x); }
 120:/home/vinfernandes/Projects/daisy/gcc-arm/arm-none-eabi/include/c++/10.3.1/cmath **** 
 121:/home/vinfernandes/Projects/daisy/gcc-arm/arm-none-eabi/include/c++/10.3.1/cmath ****   using ::atan;
 122:/home/vinfernandes/Projects/daisy/gcc-arm/arm-none-eabi/include/c++/10.3.1/cmath **** 
 123:/home/vinfernandes/Projects/daisy/gcc-arm/arm-none-eabi/include/c++/10.3.1/cmath **** #ifndef __CORRECT_ISO_CPP_MATH_H_PROTO
 124:/home/vinfernandes/Projects/daisy/gcc-arm/arm-none-eabi/include/c++/10.3.1/cmath ****   inline _GLIBCXX_CONSTEXPR float
 125:/home/vinfernandes/Projects/daisy/gcc-arm/arm-none-eabi/include/c++/10.3.1/cmath ****   atan(float __x)
 126:/home/vinfernandes/Projects/daisy/gcc-arm/arm-none-eabi/include/c++/10.3.1/cmath ****   { return __builtin_atanf(__x); }
 127:/home/vinfernandes/Projects/daisy/gcc-arm/arm-none-eabi/include/c++/10.3.1/cmath **** 
 128:/home/vinfernandes/Projects/daisy/gcc-arm/arm-none-eabi/include/c++/10.3.1/cmath ****   inline _GLIBCXX_CONSTEXPR long double
 129:/home/vinfernandes/Projects/daisy/gcc-arm/arm-none-eabi/include/c++/10.3.1/cmath ****   atan(long double __x)
 130:/home/vinfernandes/Projects/daisy/gcc-arm/arm-none-eabi/include/c++/10.3.1/cmath ****   { return __builtin_atanl(__x); }
 131:/home/vinfernandes/Projects/daisy/gcc-arm/arm-none-eabi/include/c++/10.3.1/cmath **** #endif
 132:/home/vinfernandes/Projects/daisy/gcc-arm/arm-none-eabi/include/c++/10.3.1/cmath **** 
 133:/home/vinfernandes/Projects/daisy/gcc-arm/arm-none-eabi/include/c++/10.3.1/cmath ****   template<typename _Tp>
 134:/home/vinfernandes/Projects/daisy/gcc-arm/arm-none-eabi/include/c++/10.3.1/cmath ****     inline _GLIBCXX_CONSTEXPR
 135:/home/vinfernandes/Projects/daisy/gcc-arm/arm-none-eabi/include/c++/10.3.1/cmath ****     typename __gnu_cxx::__enable_if<__is_integer<_Tp>::__value,
 136:/home/vinfernandes/Projects/daisy/gcc-arm/arm-none-eabi/include/c++/10.3.1/cmath ****                                     double>::__type
 137:/home/vinfernandes/Projects/daisy/gcc-arm/arm-none-eabi/include/c++/10.3.1/cmath ****     atan(_Tp __x)
 138:/home/vinfernandes/Projects/daisy/gcc-arm/arm-none-eabi/include/c++/10.3.1/cmath ****     { return __builtin_atan(__x); }
 139:/home/vinfernandes/Projects/daisy/gcc-arm/arm-none-eabi/include/c++/10.3.1/cmath **** 
ARM GAS  /tmp/ccZePa4k.s 			page 101


 140:/home/vinfernandes/Projects/daisy/gcc-arm/arm-none-eabi/include/c++/10.3.1/cmath ****   using ::atan2;
 141:/home/vinfernandes/Projects/daisy/gcc-arm/arm-none-eabi/include/c++/10.3.1/cmath **** 
 142:/home/vinfernandes/Projects/daisy/gcc-arm/arm-none-eabi/include/c++/10.3.1/cmath **** #ifndef __CORRECT_ISO_CPP_MATH_H_PROTO
 143:/home/vinfernandes/Projects/daisy/gcc-arm/arm-none-eabi/include/c++/10.3.1/cmath ****   inline _GLIBCXX_CONSTEXPR float
 144:/home/vinfernandes/Projects/daisy/gcc-arm/arm-none-eabi/include/c++/10.3.1/cmath ****   atan2(float __y, float __x)
 145:/home/vinfernandes/Projects/daisy/gcc-arm/arm-none-eabi/include/c++/10.3.1/cmath ****   { return __builtin_atan2f(__y, __x); }
 146:/home/vinfernandes/Projects/daisy/gcc-arm/arm-none-eabi/include/c++/10.3.1/cmath **** 
 147:/home/vinfernandes/Projects/daisy/gcc-arm/arm-none-eabi/include/c++/10.3.1/cmath ****   inline _GLIBCXX_CONSTEXPR long double
 148:/home/vinfernandes/Projects/daisy/gcc-arm/arm-none-eabi/include/c++/10.3.1/cmath ****   atan2(long double __y, long double __x)
 149:/home/vinfernandes/Projects/daisy/gcc-arm/arm-none-eabi/include/c++/10.3.1/cmath ****   { return __builtin_atan2l(__y, __x); }
 150:/home/vinfernandes/Projects/daisy/gcc-arm/arm-none-eabi/include/c++/10.3.1/cmath **** #endif
 151:/home/vinfernandes/Projects/daisy/gcc-arm/arm-none-eabi/include/c++/10.3.1/cmath **** 
 152:/home/vinfernandes/Projects/daisy/gcc-arm/arm-none-eabi/include/c++/10.3.1/cmath ****   template<typename _Tp, typename _Up>
 153:/home/vinfernandes/Projects/daisy/gcc-arm/arm-none-eabi/include/c++/10.3.1/cmath ****     inline _GLIBCXX_CONSTEXPR
 154:/home/vinfernandes/Projects/daisy/gcc-arm/arm-none-eabi/include/c++/10.3.1/cmath ****     typename __gnu_cxx::__promote_2<_Tp, _Up>::__type
 155:/home/vinfernandes/Projects/daisy/gcc-arm/arm-none-eabi/include/c++/10.3.1/cmath ****     atan2(_Tp __y, _Up __x)
 156:/home/vinfernandes/Projects/daisy/gcc-arm/arm-none-eabi/include/c++/10.3.1/cmath ****     {
 157:/home/vinfernandes/Projects/daisy/gcc-arm/arm-none-eabi/include/c++/10.3.1/cmath ****       typedef typename __gnu_cxx::__promote_2<_Tp, _Up>::__type __type;
 158:/home/vinfernandes/Projects/daisy/gcc-arm/arm-none-eabi/include/c++/10.3.1/cmath ****       return atan2(__type(__y), __type(__x));
 159:/home/vinfernandes/Projects/daisy/gcc-arm/arm-none-eabi/include/c++/10.3.1/cmath ****     }
 160:/home/vinfernandes/Projects/daisy/gcc-arm/arm-none-eabi/include/c++/10.3.1/cmath **** 
 161:/home/vinfernandes/Projects/daisy/gcc-arm/arm-none-eabi/include/c++/10.3.1/cmath ****   using ::ceil;
 162:/home/vinfernandes/Projects/daisy/gcc-arm/arm-none-eabi/include/c++/10.3.1/cmath **** 
 163:/home/vinfernandes/Projects/daisy/gcc-arm/arm-none-eabi/include/c++/10.3.1/cmath **** #ifndef __CORRECT_ISO_CPP_MATH_H_PROTO
 164:/home/vinfernandes/Projects/daisy/gcc-arm/arm-none-eabi/include/c++/10.3.1/cmath ****   inline _GLIBCXX_CONSTEXPR float
 165:/home/vinfernandes/Projects/daisy/gcc-arm/arm-none-eabi/include/c++/10.3.1/cmath ****   ceil(float __x)
 166:/home/vinfernandes/Projects/daisy/gcc-arm/arm-none-eabi/include/c++/10.3.1/cmath ****   { return __builtin_ceilf(__x); }
 167:/home/vinfernandes/Projects/daisy/gcc-arm/arm-none-eabi/include/c++/10.3.1/cmath **** 
 168:/home/vinfernandes/Projects/daisy/gcc-arm/arm-none-eabi/include/c++/10.3.1/cmath ****   inline _GLIBCXX_CONSTEXPR long double
 169:/home/vinfernandes/Projects/daisy/gcc-arm/arm-none-eabi/include/c++/10.3.1/cmath ****   ceil(long double __x)
 170:/home/vinfernandes/Projects/daisy/gcc-arm/arm-none-eabi/include/c++/10.3.1/cmath ****   { return __builtin_ceill(__x); }
 171:/home/vinfernandes/Projects/daisy/gcc-arm/arm-none-eabi/include/c++/10.3.1/cmath **** #endif
 172:/home/vinfernandes/Projects/daisy/gcc-arm/arm-none-eabi/include/c++/10.3.1/cmath **** 
 173:/home/vinfernandes/Projects/daisy/gcc-arm/arm-none-eabi/include/c++/10.3.1/cmath ****   template<typename _Tp>
 174:/home/vinfernandes/Projects/daisy/gcc-arm/arm-none-eabi/include/c++/10.3.1/cmath ****     inline _GLIBCXX_CONSTEXPR
 175:/home/vinfernandes/Projects/daisy/gcc-arm/arm-none-eabi/include/c++/10.3.1/cmath ****     typename __gnu_cxx::__enable_if<__is_integer<_Tp>::__value, 
 176:/home/vinfernandes/Projects/daisy/gcc-arm/arm-none-eabi/include/c++/10.3.1/cmath ****                                     double>::__type
 177:/home/vinfernandes/Projects/daisy/gcc-arm/arm-none-eabi/include/c++/10.3.1/cmath ****     ceil(_Tp __x)
 178:/home/vinfernandes/Projects/daisy/gcc-arm/arm-none-eabi/include/c++/10.3.1/cmath ****     { return __builtin_ceil(__x); }
 179:/home/vinfernandes/Projects/daisy/gcc-arm/arm-none-eabi/include/c++/10.3.1/cmath **** 
 180:/home/vinfernandes/Projects/daisy/gcc-arm/arm-none-eabi/include/c++/10.3.1/cmath ****   using ::cos;
 181:/home/vinfernandes/Projects/daisy/gcc-arm/arm-none-eabi/include/c++/10.3.1/cmath **** 
 182:/home/vinfernandes/Projects/daisy/gcc-arm/arm-none-eabi/include/c++/10.3.1/cmath **** #ifndef __CORRECT_ISO_CPP_MATH_H_PROTO
 183:/home/vinfernandes/Projects/daisy/gcc-arm/arm-none-eabi/include/c++/10.3.1/cmath ****   inline _GLIBCXX_CONSTEXPR float
 184:/home/vinfernandes/Projects/daisy/gcc-arm/arm-none-eabi/include/c++/10.3.1/cmath ****   cos(float __x)
 185:/home/vinfernandes/Projects/daisy/gcc-arm/arm-none-eabi/include/c++/10.3.1/cmath ****   { return __builtin_cosf(__x); }
 3494              		.loc 10 185 26 view .LVU768
 3495 0050 B0EE680A 		vmov.f32	s0, s17
 3496 0054 FFF7FEFF 		bl	cosf
 3497              	.LVL242:
 3498              		.loc 10 185 26 view .LVU769
 3499              	.LBE1065:
 3500              	.LBE1064:
 315:../../libDaisy//src/hid/disp/display.h ****         start_y = -sin(start_angle_rad) * radius;
 3501              		.loc 7 315 17 view .LVU770
 3502 0058 07EE907A 		vmov	s15, r7	@ int
 313:../../libDaisy//src/hid/disp/display.h **** 
ARM GAS  /tmp/ccZePa4k.s 			page 102


 3503              		.loc 7 313 25 view .LVU771
 3504 005c B7EECAAB 		vcvt.f32.f64	s20, d10
 3505              	.LVL243:
 3506              	.LBB1068:
 3507              	.LBI1064:
 184:/home/vinfernandes/Projects/daisy/gcc-arm/arm-none-eabi/include/c++/10.3.1/cmath ****   { return __builtin_cosf(__x); }
 3508              		.loc 10 184 3 is_stmt 1 view .LVU772
 3509              	.LBB1066:
 3510              		.loc 10 185 5 view .LVU773
 3511              		.loc 10 185 5 is_stmt 0 view .LVU774
 3512              	.LBE1066:
 3513              	.LBE1068:
 315:../../libDaisy//src/hid/disp/display.h ****         start_y = -sin(start_angle_rad) * radius;
 3514              		.loc 7 315 17 view .LVU775
 3515 0060 F8EE679A 		vcvt.f32.u32	s19, s15
 3516              	.LBB1069:
 3517              	.LBB1067:
 3518              		.loc 10 185 26 view .LVU776
 3519 0064 B0EE408A 		vmov.f32	s16, s0
 3520              	.LBE1067:
 3521              	.LBE1069:
 3522              	.LBB1070:
 3523              	.LBB1071:
 186:/home/vinfernandes/Projects/daisy/gcc-arm/arm-none-eabi/include/c++/10.3.1/cmath **** 
 187:/home/vinfernandes/Projects/daisy/gcc-arm/arm-none-eabi/include/c++/10.3.1/cmath ****   inline _GLIBCXX_CONSTEXPR long double
 188:/home/vinfernandes/Projects/daisy/gcc-arm/arm-none-eabi/include/c++/10.3.1/cmath ****   cos(long double __x)
 189:/home/vinfernandes/Projects/daisy/gcc-arm/arm-none-eabi/include/c++/10.3.1/cmath ****   { return __builtin_cosl(__x); }
 190:/home/vinfernandes/Projects/daisy/gcc-arm/arm-none-eabi/include/c++/10.3.1/cmath **** #endif
 191:/home/vinfernandes/Projects/daisy/gcc-arm/arm-none-eabi/include/c++/10.3.1/cmath **** 
 192:/home/vinfernandes/Projects/daisy/gcc-arm/arm-none-eabi/include/c++/10.3.1/cmath ****   template<typename _Tp>
 193:/home/vinfernandes/Projects/daisy/gcc-arm/arm-none-eabi/include/c++/10.3.1/cmath ****     inline _GLIBCXX_CONSTEXPR
 194:/home/vinfernandes/Projects/daisy/gcc-arm/arm-none-eabi/include/c++/10.3.1/cmath ****     typename __gnu_cxx::__enable_if<__is_integer<_Tp>::__value,
 195:/home/vinfernandes/Projects/daisy/gcc-arm/arm-none-eabi/include/c++/10.3.1/cmath ****                                     double>::__type
 196:/home/vinfernandes/Projects/daisy/gcc-arm/arm-none-eabi/include/c++/10.3.1/cmath ****     cos(_Tp __x)
 197:/home/vinfernandes/Projects/daisy/gcc-arm/arm-none-eabi/include/c++/10.3.1/cmath ****     { return __builtin_cos(__x); }
 198:/home/vinfernandes/Projects/daisy/gcc-arm/arm-none-eabi/include/c++/10.3.1/cmath **** 
 199:/home/vinfernandes/Projects/daisy/gcc-arm/arm-none-eabi/include/c++/10.3.1/cmath ****   using ::cosh;
 200:/home/vinfernandes/Projects/daisy/gcc-arm/arm-none-eabi/include/c++/10.3.1/cmath **** 
 201:/home/vinfernandes/Projects/daisy/gcc-arm/arm-none-eabi/include/c++/10.3.1/cmath **** #ifndef __CORRECT_ISO_CPP_MATH_H_PROTO
 202:/home/vinfernandes/Projects/daisy/gcc-arm/arm-none-eabi/include/c++/10.3.1/cmath ****   inline _GLIBCXX_CONSTEXPR float
 203:/home/vinfernandes/Projects/daisy/gcc-arm/arm-none-eabi/include/c++/10.3.1/cmath ****   cosh(float __x)
 204:/home/vinfernandes/Projects/daisy/gcc-arm/arm-none-eabi/include/c++/10.3.1/cmath ****   { return __builtin_coshf(__x); }
 205:/home/vinfernandes/Projects/daisy/gcc-arm/arm-none-eabi/include/c++/10.3.1/cmath **** 
 206:/home/vinfernandes/Projects/daisy/gcc-arm/arm-none-eabi/include/c++/10.3.1/cmath ****   inline _GLIBCXX_CONSTEXPR long double
 207:/home/vinfernandes/Projects/daisy/gcc-arm/arm-none-eabi/include/c++/10.3.1/cmath ****   cosh(long double __x)
 208:/home/vinfernandes/Projects/daisy/gcc-arm/arm-none-eabi/include/c++/10.3.1/cmath ****   { return __builtin_coshl(__x); }
 209:/home/vinfernandes/Projects/daisy/gcc-arm/arm-none-eabi/include/c++/10.3.1/cmath **** #endif
 210:/home/vinfernandes/Projects/daisy/gcc-arm/arm-none-eabi/include/c++/10.3.1/cmath **** 
 211:/home/vinfernandes/Projects/daisy/gcc-arm/arm-none-eabi/include/c++/10.3.1/cmath ****   template<typename _Tp>
 212:/home/vinfernandes/Projects/daisy/gcc-arm/arm-none-eabi/include/c++/10.3.1/cmath ****     inline _GLIBCXX_CONSTEXPR
 213:/home/vinfernandes/Projects/daisy/gcc-arm/arm-none-eabi/include/c++/10.3.1/cmath ****     typename __gnu_cxx::__enable_if<__is_integer<_Tp>::__value,
 214:/home/vinfernandes/Projects/daisy/gcc-arm/arm-none-eabi/include/c++/10.3.1/cmath ****                                     double>::__type
 215:/home/vinfernandes/Projects/daisy/gcc-arm/arm-none-eabi/include/c++/10.3.1/cmath ****     cosh(_Tp __x)
 216:/home/vinfernandes/Projects/daisy/gcc-arm/arm-none-eabi/include/c++/10.3.1/cmath ****     { return __builtin_cosh(__x); }
 217:/home/vinfernandes/Projects/daisy/gcc-arm/arm-none-eabi/include/c++/10.3.1/cmath **** 
 218:/home/vinfernandes/Projects/daisy/gcc-arm/arm-none-eabi/include/c++/10.3.1/cmath ****   using ::exp;
 219:/home/vinfernandes/Projects/daisy/gcc-arm/arm-none-eabi/include/c++/10.3.1/cmath **** 
ARM GAS  /tmp/ccZePa4k.s 			page 103


 220:/home/vinfernandes/Projects/daisy/gcc-arm/arm-none-eabi/include/c++/10.3.1/cmath **** #ifndef __CORRECT_ISO_CPP_MATH_H_PROTO
 221:/home/vinfernandes/Projects/daisy/gcc-arm/arm-none-eabi/include/c++/10.3.1/cmath ****   inline _GLIBCXX_CONSTEXPR float
 222:/home/vinfernandes/Projects/daisy/gcc-arm/arm-none-eabi/include/c++/10.3.1/cmath ****   exp(float __x)
 223:/home/vinfernandes/Projects/daisy/gcc-arm/arm-none-eabi/include/c++/10.3.1/cmath ****   { return __builtin_expf(__x); }
 224:/home/vinfernandes/Projects/daisy/gcc-arm/arm-none-eabi/include/c++/10.3.1/cmath **** 
 225:/home/vinfernandes/Projects/daisy/gcc-arm/arm-none-eabi/include/c++/10.3.1/cmath ****   inline _GLIBCXX_CONSTEXPR long double
 226:/home/vinfernandes/Projects/daisy/gcc-arm/arm-none-eabi/include/c++/10.3.1/cmath ****   exp(long double __x)
 227:/home/vinfernandes/Projects/daisy/gcc-arm/arm-none-eabi/include/c++/10.3.1/cmath ****   { return __builtin_expl(__x); }
 228:/home/vinfernandes/Projects/daisy/gcc-arm/arm-none-eabi/include/c++/10.3.1/cmath **** #endif
 229:/home/vinfernandes/Projects/daisy/gcc-arm/arm-none-eabi/include/c++/10.3.1/cmath **** 
 230:/home/vinfernandes/Projects/daisy/gcc-arm/arm-none-eabi/include/c++/10.3.1/cmath ****   template<typename _Tp>
 231:/home/vinfernandes/Projects/daisy/gcc-arm/arm-none-eabi/include/c++/10.3.1/cmath ****     inline _GLIBCXX_CONSTEXPR
 232:/home/vinfernandes/Projects/daisy/gcc-arm/arm-none-eabi/include/c++/10.3.1/cmath ****     typename __gnu_cxx::__enable_if<__is_integer<_Tp>::__value,
 233:/home/vinfernandes/Projects/daisy/gcc-arm/arm-none-eabi/include/c++/10.3.1/cmath ****                                     double>::__type
 234:/home/vinfernandes/Projects/daisy/gcc-arm/arm-none-eabi/include/c++/10.3.1/cmath ****     exp(_Tp __x)
 235:/home/vinfernandes/Projects/daisy/gcc-arm/arm-none-eabi/include/c++/10.3.1/cmath ****     { return __builtin_exp(__x); }
 236:/home/vinfernandes/Projects/daisy/gcc-arm/arm-none-eabi/include/c++/10.3.1/cmath **** 
 237:/home/vinfernandes/Projects/daisy/gcc-arm/arm-none-eabi/include/c++/10.3.1/cmath ****   using ::fabs;
 238:/home/vinfernandes/Projects/daisy/gcc-arm/arm-none-eabi/include/c++/10.3.1/cmath **** 
 239:/home/vinfernandes/Projects/daisy/gcc-arm/arm-none-eabi/include/c++/10.3.1/cmath **** #ifndef __CORRECT_ISO_CPP_MATH_H_PROTO
 240:/home/vinfernandes/Projects/daisy/gcc-arm/arm-none-eabi/include/c++/10.3.1/cmath ****   inline _GLIBCXX_CONSTEXPR float
 241:/home/vinfernandes/Projects/daisy/gcc-arm/arm-none-eabi/include/c++/10.3.1/cmath ****   fabs(float __x)
 242:/home/vinfernandes/Projects/daisy/gcc-arm/arm-none-eabi/include/c++/10.3.1/cmath ****   { return __builtin_fabsf(__x); }
 243:/home/vinfernandes/Projects/daisy/gcc-arm/arm-none-eabi/include/c++/10.3.1/cmath **** 
 244:/home/vinfernandes/Projects/daisy/gcc-arm/arm-none-eabi/include/c++/10.3.1/cmath ****   inline _GLIBCXX_CONSTEXPR long double
 245:/home/vinfernandes/Projects/daisy/gcc-arm/arm-none-eabi/include/c++/10.3.1/cmath ****   fabs(long double __x)
 246:/home/vinfernandes/Projects/daisy/gcc-arm/arm-none-eabi/include/c++/10.3.1/cmath ****   { return __builtin_fabsl(__x); }
 247:/home/vinfernandes/Projects/daisy/gcc-arm/arm-none-eabi/include/c++/10.3.1/cmath **** #endif
 248:/home/vinfernandes/Projects/daisy/gcc-arm/arm-none-eabi/include/c++/10.3.1/cmath **** 
 249:/home/vinfernandes/Projects/daisy/gcc-arm/arm-none-eabi/include/c++/10.3.1/cmath ****   template<typename _Tp>
 250:/home/vinfernandes/Projects/daisy/gcc-arm/arm-none-eabi/include/c++/10.3.1/cmath ****     inline _GLIBCXX_CONSTEXPR
 251:/home/vinfernandes/Projects/daisy/gcc-arm/arm-none-eabi/include/c++/10.3.1/cmath ****     typename __gnu_cxx::__enable_if<__is_integer<_Tp>::__value,
 252:/home/vinfernandes/Projects/daisy/gcc-arm/arm-none-eabi/include/c++/10.3.1/cmath ****                                     double>::__type
 253:/home/vinfernandes/Projects/daisy/gcc-arm/arm-none-eabi/include/c++/10.3.1/cmath ****     fabs(_Tp __x)
 254:/home/vinfernandes/Projects/daisy/gcc-arm/arm-none-eabi/include/c++/10.3.1/cmath ****     { return __builtin_fabs(__x); }
 255:/home/vinfernandes/Projects/daisy/gcc-arm/arm-none-eabi/include/c++/10.3.1/cmath **** 
 256:/home/vinfernandes/Projects/daisy/gcc-arm/arm-none-eabi/include/c++/10.3.1/cmath ****   using ::floor;
 257:/home/vinfernandes/Projects/daisy/gcc-arm/arm-none-eabi/include/c++/10.3.1/cmath **** 
 258:/home/vinfernandes/Projects/daisy/gcc-arm/arm-none-eabi/include/c++/10.3.1/cmath **** #ifndef __CORRECT_ISO_CPP_MATH_H_PROTO
 259:/home/vinfernandes/Projects/daisy/gcc-arm/arm-none-eabi/include/c++/10.3.1/cmath ****   inline _GLIBCXX_CONSTEXPR float
 260:/home/vinfernandes/Projects/daisy/gcc-arm/arm-none-eabi/include/c++/10.3.1/cmath ****   floor(float __x)
 261:/home/vinfernandes/Projects/daisy/gcc-arm/arm-none-eabi/include/c++/10.3.1/cmath ****   { return __builtin_floorf(__x); }
 262:/home/vinfernandes/Projects/daisy/gcc-arm/arm-none-eabi/include/c++/10.3.1/cmath **** 
 263:/home/vinfernandes/Projects/daisy/gcc-arm/arm-none-eabi/include/c++/10.3.1/cmath ****   inline _GLIBCXX_CONSTEXPR long double
 264:/home/vinfernandes/Projects/daisy/gcc-arm/arm-none-eabi/include/c++/10.3.1/cmath ****   floor(long double __x)
 265:/home/vinfernandes/Projects/daisy/gcc-arm/arm-none-eabi/include/c++/10.3.1/cmath ****   { return __builtin_floorl(__x); }
 266:/home/vinfernandes/Projects/daisy/gcc-arm/arm-none-eabi/include/c++/10.3.1/cmath **** #endif
 267:/home/vinfernandes/Projects/daisy/gcc-arm/arm-none-eabi/include/c++/10.3.1/cmath **** 
 268:/home/vinfernandes/Projects/daisy/gcc-arm/arm-none-eabi/include/c++/10.3.1/cmath ****   template<typename _Tp>
 269:/home/vinfernandes/Projects/daisy/gcc-arm/arm-none-eabi/include/c++/10.3.1/cmath ****     inline _GLIBCXX_CONSTEXPR
 270:/home/vinfernandes/Projects/daisy/gcc-arm/arm-none-eabi/include/c++/10.3.1/cmath ****     typename __gnu_cxx::__enable_if<__is_integer<_Tp>::__value,
 271:/home/vinfernandes/Projects/daisy/gcc-arm/arm-none-eabi/include/c++/10.3.1/cmath ****                                     double>::__type
 272:/home/vinfernandes/Projects/daisy/gcc-arm/arm-none-eabi/include/c++/10.3.1/cmath ****     floor(_Tp __x)
 273:/home/vinfernandes/Projects/daisy/gcc-arm/arm-none-eabi/include/c++/10.3.1/cmath ****     { return __builtin_floor(__x); }
 274:/home/vinfernandes/Projects/daisy/gcc-arm/arm-none-eabi/include/c++/10.3.1/cmath **** 
 275:/home/vinfernandes/Projects/daisy/gcc-arm/arm-none-eabi/include/c++/10.3.1/cmath ****   using ::fmod;
 276:/home/vinfernandes/Projects/daisy/gcc-arm/arm-none-eabi/include/c++/10.3.1/cmath **** 
ARM GAS  /tmp/ccZePa4k.s 			page 104


 277:/home/vinfernandes/Projects/daisy/gcc-arm/arm-none-eabi/include/c++/10.3.1/cmath **** #ifndef __CORRECT_ISO_CPP_MATH_H_PROTO
 278:/home/vinfernandes/Projects/daisy/gcc-arm/arm-none-eabi/include/c++/10.3.1/cmath ****   inline _GLIBCXX_CONSTEXPR float
 279:/home/vinfernandes/Projects/daisy/gcc-arm/arm-none-eabi/include/c++/10.3.1/cmath ****   fmod(float __x, float __y)
 280:/home/vinfernandes/Projects/daisy/gcc-arm/arm-none-eabi/include/c++/10.3.1/cmath ****   { return __builtin_fmodf(__x, __y); }
 281:/home/vinfernandes/Projects/daisy/gcc-arm/arm-none-eabi/include/c++/10.3.1/cmath **** 
 282:/home/vinfernandes/Projects/daisy/gcc-arm/arm-none-eabi/include/c++/10.3.1/cmath ****   inline _GLIBCXX_CONSTEXPR long double
 283:/home/vinfernandes/Projects/daisy/gcc-arm/arm-none-eabi/include/c++/10.3.1/cmath ****   fmod(long double __x, long double __y)
 284:/home/vinfernandes/Projects/daisy/gcc-arm/arm-none-eabi/include/c++/10.3.1/cmath ****   { return __builtin_fmodl(__x, __y); }
 285:/home/vinfernandes/Projects/daisy/gcc-arm/arm-none-eabi/include/c++/10.3.1/cmath **** #endif
 286:/home/vinfernandes/Projects/daisy/gcc-arm/arm-none-eabi/include/c++/10.3.1/cmath **** 
 287:/home/vinfernandes/Projects/daisy/gcc-arm/arm-none-eabi/include/c++/10.3.1/cmath ****   template<typename _Tp, typename _Up>
 288:/home/vinfernandes/Projects/daisy/gcc-arm/arm-none-eabi/include/c++/10.3.1/cmath ****     inline _GLIBCXX_CONSTEXPR
 289:/home/vinfernandes/Projects/daisy/gcc-arm/arm-none-eabi/include/c++/10.3.1/cmath ****     typename __gnu_cxx::__promote_2<_Tp, _Up>::__type
 290:/home/vinfernandes/Projects/daisy/gcc-arm/arm-none-eabi/include/c++/10.3.1/cmath ****     fmod(_Tp __x, _Up __y)
 291:/home/vinfernandes/Projects/daisy/gcc-arm/arm-none-eabi/include/c++/10.3.1/cmath ****     {
 292:/home/vinfernandes/Projects/daisy/gcc-arm/arm-none-eabi/include/c++/10.3.1/cmath ****       typedef typename __gnu_cxx::__promote_2<_Tp, _Up>::__type __type;
 293:/home/vinfernandes/Projects/daisy/gcc-arm/arm-none-eabi/include/c++/10.3.1/cmath ****       return fmod(__type(__x), __type(__y));
 294:/home/vinfernandes/Projects/daisy/gcc-arm/arm-none-eabi/include/c++/10.3.1/cmath ****     }
 295:/home/vinfernandes/Projects/daisy/gcc-arm/arm-none-eabi/include/c++/10.3.1/cmath **** 
 296:/home/vinfernandes/Projects/daisy/gcc-arm/arm-none-eabi/include/c++/10.3.1/cmath ****   using ::frexp;
 297:/home/vinfernandes/Projects/daisy/gcc-arm/arm-none-eabi/include/c++/10.3.1/cmath **** 
 298:/home/vinfernandes/Projects/daisy/gcc-arm/arm-none-eabi/include/c++/10.3.1/cmath **** #ifndef __CORRECT_ISO_CPP_MATH_H_PROTO
 299:/home/vinfernandes/Projects/daisy/gcc-arm/arm-none-eabi/include/c++/10.3.1/cmath ****   inline float
 300:/home/vinfernandes/Projects/daisy/gcc-arm/arm-none-eabi/include/c++/10.3.1/cmath ****   frexp(float __x, int* __exp)
 301:/home/vinfernandes/Projects/daisy/gcc-arm/arm-none-eabi/include/c++/10.3.1/cmath ****   { return __builtin_frexpf(__x, __exp); }
 302:/home/vinfernandes/Projects/daisy/gcc-arm/arm-none-eabi/include/c++/10.3.1/cmath **** 
 303:/home/vinfernandes/Projects/daisy/gcc-arm/arm-none-eabi/include/c++/10.3.1/cmath ****   inline long double
 304:/home/vinfernandes/Projects/daisy/gcc-arm/arm-none-eabi/include/c++/10.3.1/cmath ****   frexp(long double __x, int* __exp)
 305:/home/vinfernandes/Projects/daisy/gcc-arm/arm-none-eabi/include/c++/10.3.1/cmath ****   { return __builtin_frexpl(__x, __exp); }
 306:/home/vinfernandes/Projects/daisy/gcc-arm/arm-none-eabi/include/c++/10.3.1/cmath **** #endif
 307:/home/vinfernandes/Projects/daisy/gcc-arm/arm-none-eabi/include/c++/10.3.1/cmath **** 
 308:/home/vinfernandes/Projects/daisy/gcc-arm/arm-none-eabi/include/c++/10.3.1/cmath ****   template<typename _Tp>
 309:/home/vinfernandes/Projects/daisy/gcc-arm/arm-none-eabi/include/c++/10.3.1/cmath ****     inline _GLIBCXX_CONSTEXPR
 310:/home/vinfernandes/Projects/daisy/gcc-arm/arm-none-eabi/include/c++/10.3.1/cmath ****     typename __gnu_cxx::__enable_if<__is_integer<_Tp>::__value, 
 311:/home/vinfernandes/Projects/daisy/gcc-arm/arm-none-eabi/include/c++/10.3.1/cmath ****                                     double>::__type
 312:/home/vinfernandes/Projects/daisy/gcc-arm/arm-none-eabi/include/c++/10.3.1/cmath ****     frexp(_Tp __x, int* __exp)
 313:/home/vinfernandes/Projects/daisy/gcc-arm/arm-none-eabi/include/c++/10.3.1/cmath ****     { return __builtin_frexp(__x, __exp); }
 314:/home/vinfernandes/Projects/daisy/gcc-arm/arm-none-eabi/include/c++/10.3.1/cmath **** 
 315:/home/vinfernandes/Projects/daisy/gcc-arm/arm-none-eabi/include/c++/10.3.1/cmath ****   using ::ldexp;
 316:/home/vinfernandes/Projects/daisy/gcc-arm/arm-none-eabi/include/c++/10.3.1/cmath **** 
 317:/home/vinfernandes/Projects/daisy/gcc-arm/arm-none-eabi/include/c++/10.3.1/cmath **** #ifndef __CORRECT_ISO_CPP_MATH_H_PROTO
 318:/home/vinfernandes/Projects/daisy/gcc-arm/arm-none-eabi/include/c++/10.3.1/cmath ****   inline _GLIBCXX_CONSTEXPR float
 319:/home/vinfernandes/Projects/daisy/gcc-arm/arm-none-eabi/include/c++/10.3.1/cmath ****   ldexp(float __x, int __exp)
 320:/home/vinfernandes/Projects/daisy/gcc-arm/arm-none-eabi/include/c++/10.3.1/cmath ****   { return __builtin_ldexpf(__x, __exp); }
 321:/home/vinfernandes/Projects/daisy/gcc-arm/arm-none-eabi/include/c++/10.3.1/cmath **** 
 322:/home/vinfernandes/Projects/daisy/gcc-arm/arm-none-eabi/include/c++/10.3.1/cmath ****   inline _GLIBCXX_CONSTEXPR long double
 323:/home/vinfernandes/Projects/daisy/gcc-arm/arm-none-eabi/include/c++/10.3.1/cmath ****   ldexp(long double __x, int __exp)
 324:/home/vinfernandes/Projects/daisy/gcc-arm/arm-none-eabi/include/c++/10.3.1/cmath ****   { return __builtin_ldexpl(__x, __exp); }
 325:/home/vinfernandes/Projects/daisy/gcc-arm/arm-none-eabi/include/c++/10.3.1/cmath **** #endif
 326:/home/vinfernandes/Projects/daisy/gcc-arm/arm-none-eabi/include/c++/10.3.1/cmath **** 
 327:/home/vinfernandes/Projects/daisy/gcc-arm/arm-none-eabi/include/c++/10.3.1/cmath ****   template<typename _Tp>
 328:/home/vinfernandes/Projects/daisy/gcc-arm/arm-none-eabi/include/c++/10.3.1/cmath ****     inline _GLIBCXX_CONSTEXPR
 329:/home/vinfernandes/Projects/daisy/gcc-arm/arm-none-eabi/include/c++/10.3.1/cmath ****     typename __gnu_cxx::__enable_if<__is_integer<_Tp>::__value, 
 330:/home/vinfernandes/Projects/daisy/gcc-arm/arm-none-eabi/include/c++/10.3.1/cmath ****                                     double>::__type
 331:/home/vinfernandes/Projects/daisy/gcc-arm/arm-none-eabi/include/c++/10.3.1/cmath ****     ldexp(_Tp __x, int __exp)
 332:/home/vinfernandes/Projects/daisy/gcc-arm/arm-none-eabi/include/c++/10.3.1/cmath ****     { return __builtin_ldexp(__x, __exp); }
 333:/home/vinfernandes/Projects/daisy/gcc-arm/arm-none-eabi/include/c++/10.3.1/cmath **** 
ARM GAS  /tmp/ccZePa4k.s 			page 105


 334:/home/vinfernandes/Projects/daisy/gcc-arm/arm-none-eabi/include/c++/10.3.1/cmath ****   using ::log;
 335:/home/vinfernandes/Projects/daisy/gcc-arm/arm-none-eabi/include/c++/10.3.1/cmath **** 
 336:/home/vinfernandes/Projects/daisy/gcc-arm/arm-none-eabi/include/c++/10.3.1/cmath **** #ifndef __CORRECT_ISO_CPP_MATH_H_PROTO
 337:/home/vinfernandes/Projects/daisy/gcc-arm/arm-none-eabi/include/c++/10.3.1/cmath ****   inline _GLIBCXX_CONSTEXPR float
 338:/home/vinfernandes/Projects/daisy/gcc-arm/arm-none-eabi/include/c++/10.3.1/cmath ****   log(float __x)
 339:/home/vinfernandes/Projects/daisy/gcc-arm/arm-none-eabi/include/c++/10.3.1/cmath ****   { return __builtin_logf(__x); }
 340:/home/vinfernandes/Projects/daisy/gcc-arm/arm-none-eabi/include/c++/10.3.1/cmath **** 
 341:/home/vinfernandes/Projects/daisy/gcc-arm/arm-none-eabi/include/c++/10.3.1/cmath ****   inline _GLIBCXX_CONSTEXPR long double
 342:/home/vinfernandes/Projects/daisy/gcc-arm/arm-none-eabi/include/c++/10.3.1/cmath ****   log(long double __x)
 343:/home/vinfernandes/Projects/daisy/gcc-arm/arm-none-eabi/include/c++/10.3.1/cmath ****   { return __builtin_logl(__x); }
 344:/home/vinfernandes/Projects/daisy/gcc-arm/arm-none-eabi/include/c++/10.3.1/cmath **** #endif
 345:/home/vinfernandes/Projects/daisy/gcc-arm/arm-none-eabi/include/c++/10.3.1/cmath **** 
 346:/home/vinfernandes/Projects/daisy/gcc-arm/arm-none-eabi/include/c++/10.3.1/cmath ****   template<typename _Tp>
 347:/home/vinfernandes/Projects/daisy/gcc-arm/arm-none-eabi/include/c++/10.3.1/cmath ****     inline _GLIBCXX_CONSTEXPR
 348:/home/vinfernandes/Projects/daisy/gcc-arm/arm-none-eabi/include/c++/10.3.1/cmath ****     typename __gnu_cxx::__enable_if<__is_integer<_Tp>::__value, 
 349:/home/vinfernandes/Projects/daisy/gcc-arm/arm-none-eabi/include/c++/10.3.1/cmath ****                                     double>::__type
 350:/home/vinfernandes/Projects/daisy/gcc-arm/arm-none-eabi/include/c++/10.3.1/cmath ****     log(_Tp __x)
 351:/home/vinfernandes/Projects/daisy/gcc-arm/arm-none-eabi/include/c++/10.3.1/cmath ****     { return __builtin_log(__x); }
 352:/home/vinfernandes/Projects/daisy/gcc-arm/arm-none-eabi/include/c++/10.3.1/cmath **** 
 353:/home/vinfernandes/Projects/daisy/gcc-arm/arm-none-eabi/include/c++/10.3.1/cmath ****   using ::log10;
 354:/home/vinfernandes/Projects/daisy/gcc-arm/arm-none-eabi/include/c++/10.3.1/cmath **** 
 355:/home/vinfernandes/Projects/daisy/gcc-arm/arm-none-eabi/include/c++/10.3.1/cmath **** #ifndef __CORRECT_ISO_CPP_MATH_H_PROTO
 356:/home/vinfernandes/Projects/daisy/gcc-arm/arm-none-eabi/include/c++/10.3.1/cmath ****   inline _GLIBCXX_CONSTEXPR float
 357:/home/vinfernandes/Projects/daisy/gcc-arm/arm-none-eabi/include/c++/10.3.1/cmath ****   log10(float __x)
 358:/home/vinfernandes/Projects/daisy/gcc-arm/arm-none-eabi/include/c++/10.3.1/cmath ****   { return __builtin_log10f(__x); }
 359:/home/vinfernandes/Projects/daisy/gcc-arm/arm-none-eabi/include/c++/10.3.1/cmath **** 
 360:/home/vinfernandes/Projects/daisy/gcc-arm/arm-none-eabi/include/c++/10.3.1/cmath ****   inline _GLIBCXX_CONSTEXPR long double
 361:/home/vinfernandes/Projects/daisy/gcc-arm/arm-none-eabi/include/c++/10.3.1/cmath ****   log10(long double __x)
 362:/home/vinfernandes/Projects/daisy/gcc-arm/arm-none-eabi/include/c++/10.3.1/cmath ****   { return __builtin_log10l(__x); }
 363:/home/vinfernandes/Projects/daisy/gcc-arm/arm-none-eabi/include/c++/10.3.1/cmath **** #endif
 364:/home/vinfernandes/Projects/daisy/gcc-arm/arm-none-eabi/include/c++/10.3.1/cmath **** 
 365:/home/vinfernandes/Projects/daisy/gcc-arm/arm-none-eabi/include/c++/10.3.1/cmath ****   template<typename _Tp>
 366:/home/vinfernandes/Projects/daisy/gcc-arm/arm-none-eabi/include/c++/10.3.1/cmath ****     inline _GLIBCXX_CONSTEXPR
 367:/home/vinfernandes/Projects/daisy/gcc-arm/arm-none-eabi/include/c++/10.3.1/cmath ****     typename __gnu_cxx::__enable_if<__is_integer<_Tp>::__value,
 368:/home/vinfernandes/Projects/daisy/gcc-arm/arm-none-eabi/include/c++/10.3.1/cmath ****                                     double>::__type
 369:/home/vinfernandes/Projects/daisy/gcc-arm/arm-none-eabi/include/c++/10.3.1/cmath ****     log10(_Tp __x)
 370:/home/vinfernandes/Projects/daisy/gcc-arm/arm-none-eabi/include/c++/10.3.1/cmath ****     { return __builtin_log10(__x); }
 371:/home/vinfernandes/Projects/daisy/gcc-arm/arm-none-eabi/include/c++/10.3.1/cmath **** 
 372:/home/vinfernandes/Projects/daisy/gcc-arm/arm-none-eabi/include/c++/10.3.1/cmath ****   using ::modf;
 373:/home/vinfernandes/Projects/daisy/gcc-arm/arm-none-eabi/include/c++/10.3.1/cmath **** 
 374:/home/vinfernandes/Projects/daisy/gcc-arm/arm-none-eabi/include/c++/10.3.1/cmath **** #ifndef __CORRECT_ISO_CPP_MATH_H_PROTO
 375:/home/vinfernandes/Projects/daisy/gcc-arm/arm-none-eabi/include/c++/10.3.1/cmath ****   inline float
 376:/home/vinfernandes/Projects/daisy/gcc-arm/arm-none-eabi/include/c++/10.3.1/cmath ****   modf(float __x, float* __iptr)
 377:/home/vinfernandes/Projects/daisy/gcc-arm/arm-none-eabi/include/c++/10.3.1/cmath ****   { return __builtin_modff(__x, __iptr); }
 378:/home/vinfernandes/Projects/daisy/gcc-arm/arm-none-eabi/include/c++/10.3.1/cmath **** 
 379:/home/vinfernandes/Projects/daisy/gcc-arm/arm-none-eabi/include/c++/10.3.1/cmath ****   inline long double
 380:/home/vinfernandes/Projects/daisy/gcc-arm/arm-none-eabi/include/c++/10.3.1/cmath ****   modf(long double __x, long double* __iptr)
 381:/home/vinfernandes/Projects/daisy/gcc-arm/arm-none-eabi/include/c++/10.3.1/cmath ****   { return __builtin_modfl(__x, __iptr); }
 382:/home/vinfernandes/Projects/daisy/gcc-arm/arm-none-eabi/include/c++/10.3.1/cmath **** #endif
 383:/home/vinfernandes/Projects/daisy/gcc-arm/arm-none-eabi/include/c++/10.3.1/cmath **** 
 384:/home/vinfernandes/Projects/daisy/gcc-arm/arm-none-eabi/include/c++/10.3.1/cmath ****   using ::pow;
 385:/home/vinfernandes/Projects/daisy/gcc-arm/arm-none-eabi/include/c++/10.3.1/cmath **** 
 386:/home/vinfernandes/Projects/daisy/gcc-arm/arm-none-eabi/include/c++/10.3.1/cmath **** #ifndef __CORRECT_ISO_CPP_MATH_H_PROTO
 387:/home/vinfernandes/Projects/daisy/gcc-arm/arm-none-eabi/include/c++/10.3.1/cmath ****   inline _GLIBCXX_CONSTEXPR float
 388:/home/vinfernandes/Projects/daisy/gcc-arm/arm-none-eabi/include/c++/10.3.1/cmath ****   pow(float __x, float __y)
 389:/home/vinfernandes/Projects/daisy/gcc-arm/arm-none-eabi/include/c++/10.3.1/cmath ****   { return __builtin_powf(__x, __y); }
 390:/home/vinfernandes/Projects/daisy/gcc-arm/arm-none-eabi/include/c++/10.3.1/cmath **** 
ARM GAS  /tmp/ccZePa4k.s 			page 106


 391:/home/vinfernandes/Projects/daisy/gcc-arm/arm-none-eabi/include/c++/10.3.1/cmath ****   inline _GLIBCXX_CONSTEXPR long double
 392:/home/vinfernandes/Projects/daisy/gcc-arm/arm-none-eabi/include/c++/10.3.1/cmath ****   pow(long double __x, long double __y)
 393:/home/vinfernandes/Projects/daisy/gcc-arm/arm-none-eabi/include/c++/10.3.1/cmath ****   { return __builtin_powl(__x, __y); }
 394:/home/vinfernandes/Projects/daisy/gcc-arm/arm-none-eabi/include/c++/10.3.1/cmath **** 
 395:/home/vinfernandes/Projects/daisy/gcc-arm/arm-none-eabi/include/c++/10.3.1/cmath **** #if __cplusplus < 201103L
 396:/home/vinfernandes/Projects/daisy/gcc-arm/arm-none-eabi/include/c++/10.3.1/cmath ****   // _GLIBCXX_RESOLVE_LIB_DEFECTS
 397:/home/vinfernandes/Projects/daisy/gcc-arm/arm-none-eabi/include/c++/10.3.1/cmath ****   // DR 550. What should the return type of pow(float,int) be?
 398:/home/vinfernandes/Projects/daisy/gcc-arm/arm-none-eabi/include/c++/10.3.1/cmath ****   inline double
 399:/home/vinfernandes/Projects/daisy/gcc-arm/arm-none-eabi/include/c++/10.3.1/cmath ****   pow(double __x, int __i)
 400:/home/vinfernandes/Projects/daisy/gcc-arm/arm-none-eabi/include/c++/10.3.1/cmath ****   { return __builtin_powi(__x, __i); }
 401:/home/vinfernandes/Projects/daisy/gcc-arm/arm-none-eabi/include/c++/10.3.1/cmath **** 
 402:/home/vinfernandes/Projects/daisy/gcc-arm/arm-none-eabi/include/c++/10.3.1/cmath ****   inline float
 403:/home/vinfernandes/Projects/daisy/gcc-arm/arm-none-eabi/include/c++/10.3.1/cmath ****   pow(float __x, int __n)
 404:/home/vinfernandes/Projects/daisy/gcc-arm/arm-none-eabi/include/c++/10.3.1/cmath ****   { return __builtin_powif(__x, __n); }
 405:/home/vinfernandes/Projects/daisy/gcc-arm/arm-none-eabi/include/c++/10.3.1/cmath **** 
 406:/home/vinfernandes/Projects/daisy/gcc-arm/arm-none-eabi/include/c++/10.3.1/cmath ****   inline long double
 407:/home/vinfernandes/Projects/daisy/gcc-arm/arm-none-eabi/include/c++/10.3.1/cmath ****   pow(long double __x, int __n)
 408:/home/vinfernandes/Projects/daisy/gcc-arm/arm-none-eabi/include/c++/10.3.1/cmath ****   { return __builtin_powil(__x, __n); }
 409:/home/vinfernandes/Projects/daisy/gcc-arm/arm-none-eabi/include/c++/10.3.1/cmath **** #endif
 410:/home/vinfernandes/Projects/daisy/gcc-arm/arm-none-eabi/include/c++/10.3.1/cmath **** #endif
 411:/home/vinfernandes/Projects/daisy/gcc-arm/arm-none-eabi/include/c++/10.3.1/cmath **** 
 412:/home/vinfernandes/Projects/daisy/gcc-arm/arm-none-eabi/include/c++/10.3.1/cmath ****   template<typename _Tp, typename _Up>
 413:/home/vinfernandes/Projects/daisy/gcc-arm/arm-none-eabi/include/c++/10.3.1/cmath ****     inline _GLIBCXX_CONSTEXPR
 414:/home/vinfernandes/Projects/daisy/gcc-arm/arm-none-eabi/include/c++/10.3.1/cmath ****     typename __gnu_cxx::__promote_2<_Tp, _Up>::__type
 415:/home/vinfernandes/Projects/daisy/gcc-arm/arm-none-eabi/include/c++/10.3.1/cmath ****     pow(_Tp __x, _Up __y)
 416:/home/vinfernandes/Projects/daisy/gcc-arm/arm-none-eabi/include/c++/10.3.1/cmath ****     {
 417:/home/vinfernandes/Projects/daisy/gcc-arm/arm-none-eabi/include/c++/10.3.1/cmath ****       typedef typename __gnu_cxx::__promote_2<_Tp, _Up>::__type __type;
 418:/home/vinfernandes/Projects/daisy/gcc-arm/arm-none-eabi/include/c++/10.3.1/cmath ****       return pow(__type(__x), __type(__y));
 419:/home/vinfernandes/Projects/daisy/gcc-arm/arm-none-eabi/include/c++/10.3.1/cmath ****     }
 420:/home/vinfernandes/Projects/daisy/gcc-arm/arm-none-eabi/include/c++/10.3.1/cmath **** 
 421:/home/vinfernandes/Projects/daisy/gcc-arm/arm-none-eabi/include/c++/10.3.1/cmath ****   using ::sin;
 422:/home/vinfernandes/Projects/daisy/gcc-arm/arm-none-eabi/include/c++/10.3.1/cmath **** 
 423:/home/vinfernandes/Projects/daisy/gcc-arm/arm-none-eabi/include/c++/10.3.1/cmath **** #ifndef __CORRECT_ISO_CPP_MATH_H_PROTO
 424:/home/vinfernandes/Projects/daisy/gcc-arm/arm-none-eabi/include/c++/10.3.1/cmath ****   inline _GLIBCXX_CONSTEXPR float
 425:/home/vinfernandes/Projects/daisy/gcc-arm/arm-none-eabi/include/c++/10.3.1/cmath ****   sin(float __x)
 426:/home/vinfernandes/Projects/daisy/gcc-arm/arm-none-eabi/include/c++/10.3.1/cmath ****   { return __builtin_sinf(__x); }
 3524              		.loc 10 426 26 view .LVU777
 3525 0068 B0EE680A 		vmov.f32	s0, s17
 3526 006c FFF7FEFF 		bl	sinf
 3527              	.LVL244:
 3528              	.LBE1071:
 3529              	.LBE1070:
 316:../../libDaisy//src/hid/disp/display.h ****         end_x   = cos(end_angle_rad) * radius;
 3530              		.loc 7 316 17 view .LVU778
 3531 0070 60EE698A 		vnmul.f32	s17, s0, s19
 3532              	.LVL245:
 3533              	.LBB1073:
 3534              	.LBB1074:
 185:/home/vinfernandes/Projects/daisy/gcc-arm/arm-none-eabi/include/c++/10.3.1/cmath **** 
 3535              		.loc 10 185 26 view .LVU779
 3536 0074 B0EE4A0A 		vmov.f32	s0, s20
 3537 0078 FFF7FEFF 		bl	cosf
 3538              	.LVL246:
 3539 007c B0EE409A 		vmov.f32	s18, s0
 3540              	.LBE1074:
 3541              	.LBE1073:
 3542              	.LBB1076:
ARM GAS  /tmp/ccZePa4k.s 			page 107


 3543              	.LBB1077:
 3544              		.loc 10 426 26 view .LVU780
 3545 0080 B0EE4A0A 		vmov.f32	s0, s20
 3546 0084 FFF7FEFF 		bl	sinf
 3547              	.LVL247:
 3548              	.LBE1077:
 3549              	.LBE1076:
 318:../../libDaisy//src/hid/disp/display.h **** 
 3550              		.loc 7 318 17 view .LVU781
 3551 0088 20EE690A 		vnmul.f32	s0, s0, s19
 315:../../libDaisy//src/hid/disp/display.h ****         start_y = -sin(start_angle_rad) * radius;
 3552              		.loc 7 315 17 view .LVU782
 3553 008c 29EE888A 		vmul.f32	s16, s19, s16
 3554              	.LVL248:
 3555              	.LBB1079:
 3556              	.LBI1070:
 425:/home/vinfernandes/Projects/daisy/gcc-arm/arm-none-eabi/include/c++/10.3.1/cmath ****   { return __builtin_sinf(__x); }
 3557              		.loc 10 425 3 is_stmt 1 view .LVU783
 3558              	.LBB1072:
 3559              		.loc 10 426 5 view .LVU784
 3560              		.loc 10 426 5 is_stmt 0 view .LVU785
 3561              	.LBE1072:
 3562              	.LBE1079:
 3563              	.LBB1080:
 3564              	.LBI1073:
 184:/home/vinfernandes/Projects/daisy/gcc-arm/arm-none-eabi/include/c++/10.3.1/cmath ****   { return __builtin_cosf(__x); }
 3565              		.loc 10 184 3 is_stmt 1 view .LVU786
 3566              	.LBB1075:
 185:/home/vinfernandes/Projects/daisy/gcc-arm/arm-none-eabi/include/c++/10.3.1/cmath **** 
 3567              		.loc 10 185 5 view .LVU787
 185:/home/vinfernandes/Projects/daisy/gcc-arm/arm-none-eabi/include/c++/10.3.1/cmath **** 
 3568              		.loc 10 185 5 is_stmt 0 view .LVU788
 3569              	.LBE1075:
 3570              	.LBE1080:
 317:../../libDaisy//src/hid/disp/display.h ****         end_y   = -sin(end_angle_rad) * radius;
 3571              		.loc 7 317 17 view .LVU789
 3572 0090 29EE899A 		vmul.f32	s18, s19, s18
 3573              	.LVL249:
 3574              	.LBB1081:
 3575              	.LBI1076:
 425:/home/vinfernandes/Projects/daisy/gcc-arm/arm-none-eabi/include/c++/10.3.1/cmath ****   { return __builtin_sinf(__x); }
 3576              		.loc 10 425 3 is_stmt 1 view .LVU790
 3577              	.LBB1078:
 3578              		.loc 10 426 5 view .LVU791
 3579              		.loc 10 426 5 is_stmt 0 view .LVU792
 3580              	.LBE1078:
 3581              	.LBE1081:
 322:../../libDaisy//src/hid/disp/display.h ****            < 2.0f)
 3582              		.loc 7 322 25 view .LVU793
 3583 0094 70EE687A 		vsub.f32	s15, s0, s17
 321:../../libDaisy//src/hid/disp/display.h ****                + (end_y - start_y) * (end_y - start_y)
 3584              		.loc 7 321 9 view .LVU794
 3585 0098 F0EE006A 		vmov.f32	s13, #2.0e+0
 321:../../libDaisy//src/hid/disp/display.h ****                + (end_y - start_y) * (end_y - start_y)
 3586              		.loc 7 321 19 view .LVU795
 3587 009c 39EE487A 		vsub.f32	s14, s18, s16
 322:../../libDaisy//src/hid/disp/display.h ****            < 2.0f)
ARM GAS  /tmp/ccZePa4k.s 			page 108


 3588              		.loc 7 322 36 view .LVU796
 3589 00a0 67EEA77A 		vmul.f32	s15, s15, s15
 322:../../libDaisy//src/hid/disp/display.h ****            < 2.0f)
 3590              		.loc 7 322 16 view .LVU797
 3591 00a4 E7EE077A 		vfma.f32	s15, s14, s14
 321:../../libDaisy//src/hid/disp/display.h ****                + (end_y - start_y) * (end_y - start_y)
 3592              		.loc 7 321 9 view .LVU798
 3593 00a8 F4EEE67A 		vcmpe.f32	s15, s13
 3594 00ac F1EE10FA 		vmrs	APSR_nzcv, FPSCR
 3595 00b0 06D5     		bpl	.L281
 325:../../libDaisy//src/hid/disp/display.h ****                 circle = true;
 3596              		.loc 7 325 13 view .LVU799
 3597 00b2 139B     		ldr	r3, [sp, #76]
 3598 00b4 B42B     		cmp	r3, #180
 3599 00b6 40F39680 		ble	.L222
 326:../../libDaisy//src/hid/disp/display.h ****             else
 3600              		.loc 7 326 24 view .LVU800
 3601 00ba 4FF00109 		mov	r9, #1
 3602 00be 01E0     		b	.L225
 3603              	.L281:
 304:../../libDaisy//src/hid/disp/display.h **** 
 3604              		.loc 7 304 14 view .LVU801
 3605 00c0 4FF00009 		mov	r9, #0
 3606              	.L225:
 3607              	.LVL250:
 302:../../libDaisy//src/hid/disp/display.h **** 
 3608              		.loc 7 302 27 view .LVU802
 3609 00c4 0124     		movs	r4, #1
 332:../../libDaisy//src/hid/disp/display.h ****         t_y = 0;
 3610              		.loc 7 332 13 view .LVU803
 3611 00c6 7842     		rsbs	r0, r7, #0
 3612              	.LVL251:
 333:../../libDaisy//src/hid/disp/display.h ****         err = 2 - 2 * radius;
 3613              		.loc 7 333 13 view .LVU804
 3614 00c8 4FF0000C 		mov	ip, #0
 3615 00cc 0095     		str	r5, [sp]
 334:../../libDaisy//src/hid/disp/display.h **** 
 3616              		.loc 7 334 17 view .LVU805
 3617 00ce E31B     		subs	r3, r4, r7
 302:../../libDaisy//src/hid/disp/display.h **** 
 3618              		.loc 7 302 17 view .LVU806
 3619 00d0 2146     		mov	r1, r4
 302:../../libDaisy//src/hid/disp/display.h **** 
 3620              		.loc 7 302 22 view .LVU807
 3621 00d2 2746     		mov	r7, r4
 3622              	.LVL252:
 302:../../libDaisy//src/hid/disp/display.h **** 
 3623              		.loc 7 302 12 view .LVU808
 3624 00d4 2246     		mov	r2, r4
 334:../../libDaisy//src/hid/disp/display.h **** 
 3625              		.loc 7 334 17 view .LVU809
 3626 00d6 A340     		lsls	r3, r3, r4
 3627              	.LVL253:
 3628              	.L251:
 338:../../libDaisy//src/hid/disp/display.h ****             {
 3629              		.loc 7 338 13 view .LVU810
 3630 00d8 B9F1000F 		cmp	r9, #0
ARM GAS  /tmp/ccZePa4k.s 			page 109


 3631 00dc 6AD1     		bne	.L227
 343:../../libDaisy//src/hid/disp/display.h ****                 t_exy  = end_x * t_y;
 3632              		.loc 7 343 34 view .LVU811
 3633 00de 4242     		rsbs	r2, r0, #0
 3634              	.LVL254:
 340:../../libDaisy//src/hid/disp/display.h ****                 t_syx  = start_y * t_x;
 3635              		.loc 7 340 24 view .LVU812
 3636 00e0 06EE90CA 		vmov	s13, ip	@ int
 342:../../libDaisy//src/hid/disp/display.h ****                 t_synx = start_y * -t_x;
 3637              		.loc 7 342 34 view .LVU813
 3638 00e4 CCF10001 		rsb	r1, ip, #0
 3639              	.LVL255:
 343:../../libDaisy//src/hid/disp/display.h ****                 t_exy  = end_x * t_y;
 3640              		.loc 7 343 34 view .LVU814
 3641 00e8 07EE102A 		vmov	s14, r2	@ int
 340:../../libDaisy//src/hid/disp/display.h ****                 t_syx  = start_y * t_x;
 3642              		.loc 7 340 24 view .LVU815
 3643 00ec B8EEE66A 		vcvt.f32.s32	s12, s13
 342:../../libDaisy//src/hid/disp/display.h ****                 t_synx = start_y * -t_x;
 3644              		.loc 7 342 34 view .LVU816
 3645 00f0 07EE901A 		vmov	s15, r1	@ int
 341:../../libDaisy//src/hid/disp/display.h ****                 t_sxny = start_x * -t_y;
 3646              		.loc 7 341 24 view .LVU817
 3647 00f4 06EE900A 		vmov	s13, r0	@ int
 343:../../libDaisy//src/hid/disp/display.h ****                 t_exy  = end_x * t_y;
 3648              		.loc 7 343 34 view .LVU818
 3649 00f8 B8EEC77A 		vcvt.f32.s32	s14, s14
 349:../../libDaisy//src/hid/disp/display.h ****                 {
 3650              		.loc 7 349 17 view .LVU819
 3651 00fc 139A     		ldr	r2, [sp, #76]
 340:../../libDaisy//src/hid/disp/display.h ****                 t_syx  = start_y * t_x;
 3652              		.loc 7 340 24 view .LVU820
 3653 00fe 66EE084A 		vmul.f32	s9, s12, s16
 3654              	.LVL256:
 342:../../libDaisy//src/hid/disp/display.h ****                 t_synx = start_y * -t_x;
 3655              		.loc 7 342 34 view .LVU821
 3656 0102 F8EEE77A 		vcvt.f32.s32	s15, s15
 349:../../libDaisy//src/hid/disp/display.h ****                 {
 3657              		.loc 7 349 17 view .LVU822
 3658 0106 B42A     		cmp	r2, #180
 343:../../libDaisy//src/hid/disp/display.h ****                 t_exy  = end_x * t_y;
 3659              		.loc 7 343 24 view .LVU823
 3660 0108 27EE284A 		vmul.f32	s8, s14, s17
 341:../../libDaisy//src/hid/disp/display.h ****                 t_sxny = start_x * -t_y;
 3661              		.loc 7 341 24 view .LVU824
 3662 010c F8EEE66A 		vcvt.f32.s32	s13, s13
 342:../../libDaisy//src/hid/disp/display.h ****                 t_synx = start_y * -t_x;
 3663              		.loc 7 342 24 view .LVU825
 3664 0110 67EE885A 		vmul.f32	s11, s15, s16
 351:../../libDaisy//src/hid/disp/display.h ****                     d2 = (t_sxy - t_syx < 0 || t_exy - t_eyx > 0);
 3665              		.loc 7 351 33 view .LVU826
 3666 0114 74EEC43A 		vsub.f32	s7, s9, s8
 341:../../libDaisy//src/hid/disp/display.h ****                 t_sxny = start_x * -t_y;
 3667              		.loc 7 341 24 view .LVU827
 3668 0118 26EEA85A 		vmul.f32	s10, s13, s17
 3669              	.LVL257:
 344:../../libDaisy//src/hid/disp/display.h ****                 t_eyx  = end_y * t_x;
ARM GAS  /tmp/ccZePa4k.s 			page 110


 3670              		.loc 7 344 24 view .LVU828
 3671 011c 26EE096A 		vmul.f32	s12, s12, s18
 3672              	.LVL258:
 345:../../libDaisy//src/hid/disp/display.h ****                 t_exny = end_x * -t_y;
 3673              		.loc 7 345 24 view .LVU829
 3674 0120 66EE806A 		vmul.f32	s13, s13, s0
 3675              	.LVL259:
 346:../../libDaisy//src/hid/disp/display.h ****                 t_eynx = end_y * -t_x;
 3676              		.loc 7 346 24 view .LVU830
 3677 0124 67EE897A 		vmul.f32	s15, s15, s18
 3678              	.LVL260:
 347:../../libDaisy//src/hid/disp/display.h **** 
 3679              		.loc 7 347 24 view .LVU831
 3680 0128 27EE007A 		vmul.f32	s14, s14, s0
 3681              	.LVL261:
 351:../../libDaisy//src/hid/disp/display.h ****                     d2 = (t_sxy - t_syx < 0 || t_exy - t_eyx > 0);
 3682              		.loc 7 351 46 view .LVU832
 3683 012c F5EEC03A 		vcmpe.f32	s7, #0
 349:../../libDaisy//src/hid/disp/display.h ****                 {
 3684              		.loc 7 349 17 view .LVU833
 3685 0130 40F3F280 		ble	.L228
 351:../../libDaisy//src/hid/disp/display.h ****                     d2 = (t_sxy - t_syx < 0 || t_exy - t_eyx > 0);
 3686              		.loc 7 351 46 view .LVU834
 3687 0134 F1EE10FA 		vmrs	APSR_nzcv, FPSCR
 3688 0138 00F17F81 		bmi	.L254
 351:../../libDaisy//src/hid/disp/display.h ****                     d2 = (t_sxy - t_syx < 0 || t_exy - t_eyx > 0);
 3689              		.loc 7 351 55 discriminator 2 view .LVU835
 3690 013c 76EE473A 		vsub.f32	s7, s12, s14
 352:../../libDaisy//src/hid/disp/display.h ****                     d3 = (t_sxny - t_syx < 0 || t_exny - t_eyx > 0);
 3691              		.loc 7 352 33 discriminator 2 view .LVU836
 3692 0140 74EEC54A 		vsub.f32	s9, s9, s10
 3693              	.LVL262:
 351:../../libDaisy//src/hid/disp/display.h ****                     d2 = (t_sxy - t_syx < 0 || t_exy - t_eyx > 0);
 3694              		.loc 7 351 46 discriminator 2 view .LVU837
 3695 0144 F5EEC03A 		vcmpe.f32	s7, #0
 3696 0148 F1EE10FA 		vmrs	APSR_nzcv, FPSCR
 352:../../libDaisy//src/hid/disp/display.h ****                     d3 = (t_sxny - t_syx < 0 || t_exny - t_eyx > 0);
 3697              		.loc 7 352 45 discriminator 2 view .LVU838
 3698 014c F5EEC04A 		vcmpe.f32	s9, #0
 351:../../libDaisy//src/hid/disp/display.h ****                     d2 = (t_sxy - t_syx < 0 || t_exy - t_eyx > 0);
 3699              		.loc 7 351 46 discriminator 2 view .LVU839
 3700 0150 CCBF     		ite	gt
 3701 0152 0122     		movgt	r2, #1
 3702 0154 0022     		movle	r2, #0
 3703              	.LVL263:
 352:../../libDaisy//src/hid/disp/display.h ****                     d3 = (t_sxny - t_syx < 0 || t_exny - t_eyx > 0);
 3704              		.loc 7 352 45 discriminator 2 view .LVU840
 3705 0156 F1EE10FA 		vmrs	APSR_nzcv, FPSCR
 3706 015a 00F17781 		bmi	.L255
 3707              	.L297:
 352:../../libDaisy//src/hid/disp/display.h ****                     d3 = (t_sxny - t_syx < 0 || t_exny - t_eyx > 0);
 3708              		.loc 7 352 54 discriminator 2 view .LVU841
 3709 015e 36EE666A 		vsub.f32	s12, s12, s13
 3710              	.LVL264:
 353:../../libDaisy//src/hid/disp/display.h ****                     d4 = (t_sxny - t_synx < 0 || t_exny - t_eynx > 0);
 3711              		.loc 7 353 34 discriminator 2 view .LVU842
 3712 0162 35EEC55A 		vsub.f32	s10, s11, s10
ARM GAS  /tmp/ccZePa4k.s 			page 111


 3713              	.LVL265:
 352:../../libDaisy//src/hid/disp/display.h ****                     d3 = (t_sxny - t_syx < 0 || t_exny - t_eyx > 0);
 3714              		.loc 7 352 45 discriminator 2 view .LVU843
 3715 0166 B5EEC06A 		vcmpe.f32	s12, #0
 3716 016a F1EE10FA 		vmrs	APSR_nzcv, FPSCR
 353:../../libDaisy//src/hid/disp/display.h ****                     d4 = (t_sxny - t_synx < 0 || t_exny - t_eynx > 0);
 3717              		.loc 7 353 46 discriminator 2 view .LVU844
 3718 016e B5EEC05A 		vcmpe.f32	s10, #0
 352:../../libDaisy//src/hid/disp/display.h ****                     d3 = (t_sxny - t_syx < 0 || t_exny - t_eyx > 0);
 3719              		.loc 7 352 45 discriminator 2 view .LVU845
 3720 0172 CCBF     		ite	gt
 3721 0174 0121     		movgt	r1, #1
 3722 0176 0021     		movle	r1, #0
 3723              	.LVL266:
 353:../../libDaisy//src/hid/disp/display.h ****                     d4 = (t_sxny - t_synx < 0 || t_exny - t_eynx > 0);
 3724              		.loc 7 353 46 discriminator 2 view .LVU846
 3725 0178 F1EE10FA 		vmrs	APSR_nzcv, FPSCR
 3726 017c 00F16F81 		bmi	.L256
 3727              	.L298:
 353:../../libDaisy//src/hid/disp/display.h ****                     d4 = (t_sxny - t_synx < 0 || t_exny - t_eynx > 0);
 3728              		.loc 7 353 56 discriminator 2 view .LVU847
 3729 0180 77EEE66A 		vsub.f32	s13, s15, s13
 3730              	.LVL267:
 353:../../libDaisy//src/hid/disp/display.h ****                     d4 = (t_sxny - t_synx < 0 || t_exny - t_eynx > 0);
 3731              		.loc 7 353 46 discriminator 2 view .LVU848
 3732 0184 F5EEC06A 		vcmpe.f32	s13, #0
 3733 0188 F1EE10FA 		vmrs	APSR_nzcv, FPSCR
 3734 018c CCBF     		ite	gt
 3735 018e 0127     		movgt	r7, #1
 3736              	.LVL268:
 353:../../libDaisy//src/hid/disp/display.h ****                     d4 = (t_sxny - t_synx < 0 || t_exny - t_eynx > 0);
 3737              		.loc 7 353 46 discriminator 2 view .LVU849
 3738 0190 0027     		movle	r7, #0
 3739              	.L231:
 3740              	.LVL269:
 354:../../libDaisy//src/hid/disp/display.h ****                 }
 3741              		.loc 7 354 34 discriminator 6 view .LVU850
 3742 0192 75EEC45A 		vsub.f32	s11, s11, s8
 3743              	.LVL270:
 354:../../libDaisy//src/hid/disp/display.h ****                 }
 3744              		.loc 7 354 47 discriminator 6 view .LVU851
 3745 0196 F5EEC05A 		vcmpe.f32	s11, #0
 3746 019a F1EE10FA 		vmrs	APSR_nzcv, FPSCR
 3747 019e 00F14781 		bmi	.L257
 3748              	.L287:
 361:../../libDaisy//src/hid/disp/display.h ****                 }
 3749              		.loc 7 361 57 discriminator 1 view .LVU852
 3750 01a2 77EEC77A 		vsub.f32	s15, s15, s14
 3751              	.LVL271:
 361:../../libDaisy//src/hid/disp/display.h ****                 }
 3752              		.loc 7 361 47 discriminator 1 view .LVU853
 3753 01a6 F5EEC07A 		vcmpe.f32	s15, #0
 3754 01aa F1EE10FA 		vmrs	APSR_nzcv, FPSCR
 3755 01ae CCBF     		ite	gt
 3756 01b0 0124     		movgt	r4, #1
 3757              	.LVL272:
 361:../../libDaisy//src/hid/disp/display.h ****                 }
ARM GAS  /tmp/ccZePa4k.s 			page 112


 3758              		.loc 7 361 47 discriminator 1 view .LVU854
 3759 01b2 0024     		movle	r4, #0
 3760              	.LVL273:
 3761              	.L227:
 365:../../libDaisy//src/hid/disp/display.h ****                 ((ChildType*)(this))
 3762              		.loc 7 365 13 view .LVU855
 3763 01b4 002A     		cmp	r2, #0
 3764 01b6 40F08A80 		bne	.L288
 3765              	.L239:
 368:../../libDaisy//src/hid/disp/display.h ****                 ((ChildType*)(this))
 3766              		.loc 7 368 13 view .LVU856
 3767 01ba 0029     		cmp	r1, #0
 3768 01bc 64D1     		bne	.L289
 3769              	.L241:
 371:../../libDaisy//src/hid/disp/display.h ****                 ((ChildType*)(this))
 3770              		.loc 7 371 13 view .LVU857
 3771 01be BFB9     		cbnz	r7, .L290
 3772              	.L243:
 374:../../libDaisy//src/hid/disp/display.h ****                 ((ChildType*)(this))
 3773              		.loc 7 374 13 view .LVU858
 3774 01c0 C4BB     		cbnz	r4, .L291
 3775              	.L245:
 3776              	.LVL274:
 379:../../libDaisy//src/hid/disp/display.h ****             {
 3777              		.loc 7 379 13 view .LVU859
 3778 01c2 9C45     		cmp	ip, r3
 3779 01c4 58DB     		blt	.L262
 3780              	.L293:
 381:../../libDaisy//src/hid/disp/display.h ****                 err = err + (t_y * 2 + 1);
 3781              		.loc 7 381 17 view .LVU860
 3782 01c6 0CF1010C 		add	ip, ip, #1
 3783              	.LVL275:
 382:../../libDaisy//src/hid/disp/display.h ****                 if(-t_x == t_y && e2 <= t_x)
 3784              		.loc 7 382 38 view .LVU861
 3785 01ca 03EB4C0E 		add	lr, r3, ip, lsl #1
 383:../../libDaisy//src/hid/disp/display.h ****                 {
 3786              		.loc 7 383 17 view .LVU862
 3787 01ce 1CEB000F 		cmn	ip, r0
 382:../../libDaisy//src/hid/disp/display.h ****                 if(-t_x == t_y && e2 <= t_x)
 3788              		.loc 7 382 21 view .LVU863
 3789 01d2 0EF1010E 		add	lr, lr, #1
 3790              	.LVL276:
 383:../../libDaisy//src/hid/disp/display.h ****                 {
 3791              		.loc 7 383 17 view .LVU864
 3792 01d6 00F0C080 		beq	.L292
 3793              	.LVL277:
 3794              	.L247:
 388:../../libDaisy//src/hid/disp/display.h ****             {
 3795              		.loc 7 388 13 view .LVU865
 3796 01da 9842     		cmp	r0, r3
 3797 01dc 4FDB     		blt	.L248
 3798              	.L263:
 388:../../libDaisy//src/hid/disp/display.h ****             {
 3799              		.loc 7 388 13 view .LVU866
 3800 01de 7346     		mov	r3, lr
 3801              	.LVL278:
 3802              	.L249:
ARM GAS  /tmp/ccZePa4k.s 			page 113


 393:../../libDaisy//src/hid/disp/display.h ****     }
 3803              		.loc 7 393 21 is_stmt 1 view .LVU867
 3804 01e0 0028     		cmp	r0, #0
 3805 01e2 7FF779AF 		ble	.L251
 3806              	.LVL279:
 3807              	.L222:
 394:../../libDaisy//src/hid/disp/display.h **** 
 3808              		.loc 7 394 5 is_stmt 0 view .LVU868
 3809 01e6 03B0     		add	sp, sp, #12
 3810              		.cfi_remember_state
 3811              		.cfi_def_cfa_offset 60
 3812              		@ sp needed
 3813 01e8 BDEC068B 		vldm	sp!, {d8-d10}
 3814              		.cfi_restore 84
 3815              		.cfi_restore 85
 3816              		.cfi_restore 82
 3817              		.cfi_restore 83
 3818              		.cfi_restore 80
 3819              		.cfi_restore 81
 3820              		.cfi_def_cfa_offset 36
 3821              	.LVL280:
 394:../../libDaisy//src/hid/disp/display.h **** 
 3822              		.loc 7 394 5 view .LVU869
 3823 01ec BDE8F08F 		pop	{r4, r5, r6, r7, r8, r9, r10, fp, pc}
 3824              	.LVL281:
 3825              	.L290:
 3826              		.cfi_restore_state
 373:../../libDaisy//src/hid/disp/display.h ****             if(d4)
 3827              		.loc 7 373 43 view .LVU870
 3828 01f0 009D     		ldr	r5, [sp]
 3829 01f2 A6EB0C0E 		sub	lr, r6, ip
 3830 01f6 00EB050A 		add	r10, r0, r5
 3831              	.LVL282:
 3832              	.LBB1082:
 3833              	.LBI1082:
  42:../../libDaisy//src/hid/disp/oled_display.h ****     {
 3834              		.loc 6 42 10 is_stmt 1 view .LVU871
 3835              	.LBB1083:
 3836              	.LBI1083:
 252:../../libDaisy//src/dev/oled_ssd130x.h ****     {
 3837              		.loc 8 252 10 view .LVU872
 3838              	.LBB1084:
 254:../../libDaisy//src/dev/oled_ssd130x.h ****             return;
 3839              		.loc 8 254 9 is_stmt 0 view .LVU873
 3840 01fa BAF17F0F 		cmp	r10, #127
 3841 01fe DFD8     		bhi	.L243
 3842 0200 BEF13F0F 		cmp	lr, #63
 3843 0204 DCD8     		bhi	.L243
 257:../../libDaisy//src/dev/oled_ssd130x.h ****         else
 3844              		.loc 8 257 28 view .LVU874
 3845 0206 4FEADE0B 		lsr	fp, lr, #3
 256:../../libDaisy//src/dev/oled_ssd130x.h ****             buffer_[x + (y / 8) * width] |= (1 << (y % 8));
 3846              		.loc 8 256 9 view .LVU875
 3847 020a 019D     		ldr	r5, [sp, #4]
 257:../../libDaisy//src/dev/oled_ssd130x.h ****         else
 3848              		.loc 8 257 42 view .LVU876
 3849 020c 0AEBCB1A 		add	r10, r10, fp, lsl #7
ARM GAS  /tmp/ccZePa4k.s 			page 114


 3850              	.LVL283:
 256:../../libDaisy//src/dev/oled_ssd130x.h ****             buffer_[x + (y / 8) * width] |= (1 << (y % 8));
 3851              		.loc 8 256 9 view .LVU877
 3852 0210 002D     		cmp	r5, #0
 3853 0212 00F0B180 		beq	.L244
 257:../../libDaisy//src/dev/oled_ssd130x.h ****         else
 3854              		.loc 8 257 54 view .LVU878
 3855 0216 0EF0070B 		and	fp, lr, #7
 257:../../libDaisy//src/dev/oled_ssd130x.h ****         else
 3856              		.loc 8 257 42 view .LVU879
 3857 021a C244     		add	r10, r10, r8
 257:../../libDaisy//src/dev/oled_ssd130x.h ****         else
 3858              		.loc 8 257 48 view .LVU880
 3859 021c 4FF0010E 		mov	lr, #1
 3860              	.LVL284:
 257:../../libDaisy//src/dev/oled_ssd130x.h ****         else
 3861              		.loc 8 257 48 view .LVU881
 3862 0220 0EFA0BFE 		lsl	lr, lr, fp
 257:../../libDaisy//src/dev/oled_ssd130x.h ****         else
 3863              		.loc 8 257 42 view .LVU882
 3864 0224 9AF814B0 		ldrb	fp, [r10, #20]	@ zero_extendqisi2
 3865 0228 4EEA0B0E 		orr	lr, lr, fp
 3866 022c 8AF814E0 		strb	lr, [r10, #20]
 3867              	.LVL285:
 257:../../libDaisy//src/dev/oled_ssd130x.h ****         else
 3868              		.loc 8 257 42 view .LVU883
 3869              	.LBE1084:
 3870              	.LBE1083:
 3871              	.LBE1082:
 374:../../libDaisy//src/hid/disp/display.h ****                 ((ChildType*)(this))
 3872              		.loc 7 374 13 view .LVU884
 3873 0230 002C     		cmp	r4, #0
 3874 0232 C6D0     		beq	.L245
 3875              	.L291:
 376:../../libDaisy//src/hid/disp/display.h **** 
 3876              		.loc 7 376 43 view .LVU885
 3877 0234 009D     		ldr	r5, [sp]
 3878 0236 A6EB0C0E 		sub	lr, r6, ip
 3879 023a A5EB000A 		sub	r10, r5, r0
 3880              	.LVL286:
 3881              	.LBB1089:
 3882              	.LBI1089:
  42:../../libDaisy//src/hid/disp/oled_display.h ****     {
 3883              		.loc 6 42 10 is_stmt 1 view .LVU886
 3884              	.LBB1090:
 3885              	.LBI1090:
 252:../../libDaisy//src/dev/oled_ssd130x.h ****     {
 3886              		.loc 8 252 10 view .LVU887
 3887              	.LBB1091:
 254:../../libDaisy//src/dev/oled_ssd130x.h ****             return;
 3888              		.loc 8 254 9 is_stmt 0 view .LVU888
 3889 023e BAF17F0F 		cmp	r10, #127
 3890 0242 BED8     		bhi	.L245
 3891 0244 BEF13F0F 		cmp	lr, #63
 3892 0248 BBD8     		bhi	.L245
 257:../../libDaisy//src/dev/oled_ssd130x.h ****         else
 3893              		.loc 8 257 28 view .LVU889
ARM GAS  /tmp/ccZePa4k.s 			page 115


 3894 024a 4FEADE0B 		lsr	fp, lr, #3
 256:../../libDaisy//src/dev/oled_ssd130x.h ****             buffer_[x + (y / 8) * width] |= (1 << (y % 8));
 3895              		.loc 8 256 9 view .LVU890
 3896 024e 019D     		ldr	r5, [sp, #4]
 257:../../libDaisy//src/dev/oled_ssd130x.h ****         else
 3897              		.loc 8 257 42 view .LVU891
 3898 0250 0AEBCB1A 		add	r10, r10, fp, lsl #7
 3899              	.LVL287:
 256:../../libDaisy//src/dev/oled_ssd130x.h ****             buffer_[x + (y / 8) * width] |= (1 << (y % 8));
 3900              		.loc 8 256 9 view .LVU892
 3901 0254 002D     		cmp	r5, #0
 3902 0256 00F0AE80 		beq	.L246
 257:../../libDaisy//src/dev/oled_ssd130x.h ****         else
 3903              		.loc 8 257 54 view .LVU893
 3904 025a 0EF0070B 		and	fp, lr, #7
 257:../../libDaisy//src/dev/oled_ssd130x.h ****         else
 3905              		.loc 8 257 42 view .LVU894
 3906 025e C244     		add	r10, r10, r8
 257:../../libDaisy//src/dev/oled_ssd130x.h ****         else
 3907              		.loc 8 257 48 view .LVU895
 3908 0260 4FF0010E 		mov	lr, #1
 3909              	.LVL288:
 257:../../libDaisy//src/dev/oled_ssd130x.h ****         else
 3910              		.loc 8 257 48 view .LVU896
 3911              	.LBE1091:
 3912              	.LBE1090:
 3913              	.LBE1089:
 379:../../libDaisy//src/hid/disp/display.h ****             {
 3914              		.loc 7 379 13 view .LVU897
 3915 0264 9C45     		cmp	ip, r3
 3916              	.LBB1098:
 3917              	.LBB1096:
 3918              	.LBB1094:
 257:../../libDaisy//src/dev/oled_ssd130x.h ****         else
 3919              		.loc 8 257 48 view .LVU898
 3920 0266 0EFA0BFE 		lsl	lr, lr, fp
 257:../../libDaisy//src/dev/oled_ssd130x.h ****         else
 3921              		.loc 8 257 42 view .LVU899
 3922 026a 9AF814B0 		ldrb	fp, [r10, #20]	@ zero_extendqisi2
 3923 026e 4EEA0B0E 		orr	lr, lr, fp
 3924 0272 8AF814E0 		strb	lr, [r10, #20]
 3925              	.LVL289:
 257:../../libDaisy//src/dev/oled_ssd130x.h ****         else
 3926              		.loc 8 257 42 view .LVU900
 3927              	.LBE1094:
 3928              	.LBE1096:
 3929              	.LBE1098:
 379:../../libDaisy//src/hid/disp/display.h ****             {
 3930              		.loc 7 379 13 view .LVU901
 3931 0276 A6DA     		bge	.L293
 3932              	.L262:
 388:../../libDaisy//src/hid/disp/display.h ****             {
 3933              		.loc 7 388 13 view .LVU902
 3934 0278 9842     		cmp	r0, r3
 3935 027a 9E46     		mov	lr, r3
 3936              	.LVL290:
 388:../../libDaisy//src/hid/disp/display.h ****             {
ARM GAS  /tmp/ccZePa4k.s 			page 116


 3937              		.loc 7 388 13 view .LVU903
 3938 027c AFDA     		bge	.L263
 3939              	.LVL291:
 3940              	.L248:
 390:../../libDaisy//src/hid/disp/display.h ****                 err = err + (t_x * 2 + 1);
 3941              		.loc 7 390 17 view .LVU904
 3942 027e 0130     		adds	r0, r0, #1
 3943              	.LVL292:
 391:../../libDaisy//src/hid/disp/display.h ****             }
 3944              		.loc 7 391 38 view .LVU905
 3945 0280 0EEB4003 		add	r3, lr, r0, lsl #1
 391:../../libDaisy//src/hid/disp/display.h ****             }
 3946              		.loc 7 391 21 view .LVU906
 3947 0284 0133     		adds	r3, r3, #1
 3948              	.LVL293:
 391:../../libDaisy//src/hid/disp/display.h ****             }
 3949              		.loc 7 391 21 view .LVU907
 3950 0286 ABE7     		b	.L249
 3951              	.L289:
 370:../../libDaisy//src/hid/disp/display.h ****             if(d3)
 3952              		.loc 7 370 43 view .LVU908
 3953 0288 009D     		ldr	r5, [sp]
 3954 028a 0CEB060E 		add	lr, ip, r6
 3955 028e 00EB050A 		add	r10, r0, r5
 3956              	.LVL294:
 3957              	.LBB1099:
 3958              	.LBI1099:
  42:../../libDaisy//src/hid/disp/oled_display.h ****     {
 3959              		.loc 6 42 10 is_stmt 1 view .LVU909
 3960              	.LBB1100:
 3961              	.LBI1100:
 252:../../libDaisy//src/dev/oled_ssd130x.h ****     {
 3962              		.loc 8 252 10 view .LVU910
 3963              	.LBB1101:
 254:../../libDaisy//src/dev/oled_ssd130x.h ****             return;
 3964              		.loc 8 254 9 is_stmt 0 view .LVU911
 3965 0292 BAF17F0F 		cmp	r10, #127
 3966 0296 92D8     		bhi	.L241
 3967 0298 BEF13F0F 		cmp	lr, #63
 3968 029c 8FD8     		bhi	.L241
 257:../../libDaisy//src/dev/oled_ssd130x.h ****         else
 3969              		.loc 8 257 28 view .LVU912
 3970 029e 4FEADE0B 		lsr	fp, lr, #3
 256:../../libDaisy//src/dev/oled_ssd130x.h ****             buffer_[x + (y / 8) * width] |= (1 << (y % 8));
 3971              		.loc 8 256 9 view .LVU913
 3972 02a2 019D     		ldr	r5, [sp, #4]
 257:../../libDaisy//src/dev/oled_ssd130x.h ****         else
 3973              		.loc 8 257 42 view .LVU914
 3974 02a4 0AEBCB1A 		add	r10, r10, fp, lsl #7
 3975              	.LVL295:
 256:../../libDaisy//src/dev/oled_ssd130x.h ****             buffer_[x + (y / 8) * width] |= (1 << (y % 8));
 3976              		.loc 8 256 9 view .LVU915
 3977 02a8 002D     		cmp	r5, #0
 3978 02aa 73D0     		beq	.L242
 257:../../libDaisy//src/dev/oled_ssd130x.h ****         else
 3979              		.loc 8 257 54 view .LVU916
 3980 02ac 0EF0070B 		and	fp, lr, #7
ARM GAS  /tmp/ccZePa4k.s 			page 117


 257:../../libDaisy//src/dev/oled_ssd130x.h ****         else
 3981              		.loc 8 257 42 view .LVU917
 3982 02b0 C244     		add	r10, r10, r8
 257:../../libDaisy//src/dev/oled_ssd130x.h ****         else
 3983              		.loc 8 257 48 view .LVU918
 3984 02b2 4FF0010E 		mov	lr, #1
 3985              	.LVL296:
 257:../../libDaisy//src/dev/oled_ssd130x.h ****         else
 3986              		.loc 8 257 48 view .LVU919
 3987 02b6 0EFA0BFE 		lsl	lr, lr, fp
 257:../../libDaisy//src/dev/oled_ssd130x.h ****         else
 3988              		.loc 8 257 42 view .LVU920
 3989 02ba 9AF814B0 		ldrb	fp, [r10, #20]	@ zero_extendqisi2
 3990 02be 4EEA0B0E 		orr	lr, lr, fp
 3991 02c2 8AF814E0 		strb	lr, [r10, #20]
 3992              	.LVL297:
 257:../../libDaisy//src/dev/oled_ssd130x.h ****         else
 3993              		.loc 8 257 42 view .LVU921
 3994              	.LBE1101:
 3995              	.LBE1100:
 3996              	.LBE1099:
 371:../../libDaisy//src/hid/disp/display.h ****                 ((ChildType*)(this))
 3997              		.loc 7 371 13 view .LVU922
 3998 02c6 002F     		cmp	r7, #0
 3999 02c8 3FF47AAF 		beq	.L243
 4000 02cc 90E7     		b	.L290
 4001              	.L288:
 367:../../libDaisy//src/hid/disp/display.h ****             if(d2)
 4002              		.loc 7 367 43 view .LVU923
 4003 02ce 009D     		ldr	r5, [sp]
 4004 02d0 0CEB060E 		add	lr, ip, r6
 4005 02d4 A5EB000A 		sub	r10, r5, r0
 4006              	.LVL298:
 4007              	.LBB1106:
 4008              	.LBI1106:
  42:../../libDaisy//src/hid/disp/oled_display.h ****     {
 4009              		.loc 6 42 10 is_stmt 1 view .LVU924
 4010              	.LBB1107:
 4011              	.LBI1107:
 252:../../libDaisy//src/dev/oled_ssd130x.h ****     {
 4012              		.loc 8 252 10 view .LVU925
 4013              	.LBB1108:
 254:../../libDaisy//src/dev/oled_ssd130x.h ****             return;
 4014              		.loc 8 254 9 is_stmt 0 view .LVU926
 4015 02d8 BAF17F0F 		cmp	r10, #127
 4016 02dc 3FF66DAF 		bhi	.L239
 4017 02e0 BEF13F0F 		cmp	lr, #63
 4018 02e4 3FF669AF 		bhi	.L239
 257:../../libDaisy//src/dev/oled_ssd130x.h ****         else
 4019              		.loc 8 257 28 view .LVU927
 4020 02e8 4FEADE0B 		lsr	fp, lr, #3
 256:../../libDaisy//src/dev/oled_ssd130x.h ****             buffer_[x + (y / 8) * width] |= (1 << (y % 8));
 4021              		.loc 8 256 9 view .LVU928
 4022 02ec 019D     		ldr	r5, [sp, #4]
 257:../../libDaisy//src/dev/oled_ssd130x.h ****         else
 4023              		.loc 8 257 42 view .LVU929
 4024 02ee 0AEBCB1A 		add	r10, r10, fp, lsl #7
ARM GAS  /tmp/ccZePa4k.s 			page 118


 4025              	.LVL299:
 256:../../libDaisy//src/dev/oled_ssd130x.h ****             buffer_[x + (y / 8) * width] |= (1 << (y % 8));
 4026              		.loc 8 256 9 view .LVU930
 4027 02f2 002D     		cmp	r5, #0
 4028 02f4 6DD0     		beq	.L240
 257:../../libDaisy//src/dev/oled_ssd130x.h ****         else
 4029              		.loc 8 257 54 view .LVU931
 4030 02f6 0EF0070B 		and	fp, lr, #7
 257:../../libDaisy//src/dev/oled_ssd130x.h ****         else
 4031              		.loc 8 257 42 view .LVU932
 4032 02fa C244     		add	r10, r10, r8
 257:../../libDaisy//src/dev/oled_ssd130x.h ****         else
 4033              		.loc 8 257 48 view .LVU933
 4034 02fc 4FF0010E 		mov	lr, #1
 4035              	.LVL300:
 257:../../libDaisy//src/dev/oled_ssd130x.h ****         else
 4036              		.loc 8 257 48 view .LVU934
 4037 0300 0EFA0BFE 		lsl	lr, lr, fp
 257:../../libDaisy//src/dev/oled_ssd130x.h ****         else
 4038              		.loc 8 257 42 view .LVU935
 4039 0304 9AF814B0 		ldrb	fp, [r10, #20]	@ zero_extendqisi2
 4040 0308 4EEA0B0E 		orr	lr, lr, fp
 4041 030c 8AF814E0 		strb	lr, [r10, #20]
 4042              	.LVL301:
 257:../../libDaisy//src/dev/oled_ssd130x.h ****         else
 4043              		.loc 8 257 42 view .LVU936
 4044              	.LBE1108:
 4045              	.LBE1107:
 4046              	.LBE1106:
 368:../../libDaisy//src/hid/disp/display.h ****                 ((ChildType*)(this))
 4047              		.loc 7 368 13 view .LVU937
 4048 0310 0029     		cmp	r1, #0
 4049 0312 3FF454AF 		beq	.L241
 4050 0316 B7E7     		b	.L289
 4051              	.LVL302:
 4052              	.L228:
 358:../../libDaisy//src/hid/disp/display.h ****                     d2 = (t_sxy - t_syx < 0 && t_exy - t_eyx > 0);
 4053              		.loc 7 358 46 view .LVU938
 4054 0318 F1EE10FA 		vmrs	APSR_nzcv, FPSCR
 4055 031c 7ED4     		bmi	.L294
 4056 031e 4A46     		mov	r2, r9
 4057              	.L232:
 4058              	.LVL303:
 359:../../libDaisy//src/hid/disp/display.h ****                     d3 = (t_sxny - t_syx < 0 && t_exny - t_eyx > 0);
 4059              		.loc 7 359 33 discriminator 6 view .LVU939
 4060 0320 74EEC54A 		vsub.f32	s9, s9, s10
 4061              	.LVL304:
 359:../../libDaisy//src/hid/disp/display.h ****                     d3 = (t_sxny - t_syx < 0 && t_exny - t_eyx > 0);
 4062              		.loc 7 359 45 discriminator 6 view .LVU940
 4063 0324 F5EEC04A 		vcmpe.f32	s9, #0
 4064 0328 F1EE10FA 		vmrs	APSR_nzcv, FPSCR
 4065 032c 6CD4     		bmi	.L295
 359:../../libDaisy//src/hid/disp/display.h ****                     d3 = (t_sxny - t_syx < 0 && t_exny - t_eyx > 0);
 4066              		.loc 7 359 45 view .LVU941
 4067 032e 0021     		movs	r1, #0
 4068              	.LVL305:
 4069              	.L234:
ARM GAS  /tmp/ccZePa4k.s 			page 119


 360:../../libDaisy//src/hid/disp/display.h ****                     d4 = (t_sxny - t_synx < 0 && t_exny - t_eynx > 0);
 4070              		.loc 7 360 34 discriminator 6 view .LVU942
 4071 0330 35EEC55A 		vsub.f32	s10, s11, s10
 4072              	.LVL306:
 360:../../libDaisy//src/hid/disp/display.h ****                     d4 = (t_sxny - t_synx < 0 && t_exny - t_eynx > 0);
 4073              		.loc 7 360 46 discriminator 6 view .LVU943
 4074 0334 B5EEC05A 		vcmpe.f32	s10, #0
 4075 0338 F1EE10FA 		vmrs	APSR_nzcv, FPSCR
 4076 033c 5AD4     		bmi	.L296
 360:../../libDaisy//src/hid/disp/display.h ****                     d4 = (t_sxny - t_synx < 0 && t_exny - t_eynx > 0);
 4077              		.loc 7 360 46 view .LVU944
 4078 033e 0027     		movs	r7, #0
 4079              	.LVL307:
 4080              	.L236:
 361:../../libDaisy//src/hid/disp/display.h ****                 }
 4081              		.loc 7 361 34 discriminator 6 view .LVU945
 4082 0340 75EEC45A 		vsub.f32	s11, s11, s8
 4083              	.LVL308:
 361:../../libDaisy//src/hid/disp/display.h ****                 }
 4084              		.loc 7 361 47 discriminator 6 view .LVU946
 4085 0344 F5EEC05A 		vcmpe.f32	s11, #0
 4086 0348 F1EE10FA 		vmrs	APSR_nzcv, FPSCR
 4087 034c 3FF529AF 		bmi	.L287
 361:../../libDaisy//src/hid/disp/display.h ****                 }
 4088              		.loc 7 361 47 view .LVU947
 4089 0350 0024     		movs	r4, #0
 4090              	.LVL309:
 365:../../libDaisy//src/hid/disp/display.h ****                 ((ChildType*)(this))
 4091              		.loc 7 365 13 view .LVU948
 4092 0352 002A     		cmp	r2, #0
 4093 0354 3FF431AF 		beq	.L239
 4094 0358 B9E7     		b	.L288
 4095              	.LVL310:
 4096              	.L292:
 383:../../libDaisy//src/hid/disp/display.h ****                 {
 4097              		.loc 7 383 32 discriminator 1 view .LVU949
 4098 035a 9842     		cmp	r0, r3
 4099 035c 8FDB     		blt	.L248
 385:../../libDaisy//src/hid/disp/display.h ****                 }
 4100              		.loc 7 385 24 view .LVU950
 4101 035e 0023     		movs	r3, #0
 4102              	.LVL311:
 385:../../libDaisy//src/hid/disp/display.h ****                 }
 4103              		.loc 7 385 24 view .LVU951
 4104 0360 3BE7     		b	.L247
 4105              	.L300:
 4106 0362 00BFAFF3 		.align	3
 4106      0080
 4107              	.L299:
 4108 0368 7A008BFC 		.word	-57999238
 4109 036c FA210940 		.word	1074340346
 4110 0370 00000000 		.word	0
 4111 0374 00806640 		.word	1080459264
 4112              	.LVL312:
 4113              	.L244:
 4114              	.LBB1113:
 4115              	.LBB1088:
ARM GAS  /tmp/ccZePa4k.s 			page 120


 4116              	.LBB1087:
 4117              	.LBB1085:
 4118              	.LBI1085:
 252:../../libDaisy//src/dev/oled_ssd130x.h ****     {
 4119              		.loc 8 252 10 is_stmt 1 view .LVU952
 4120              	.LBB1086:
 259:../../libDaisy//src/dev/oled_ssd130x.h ****     }
 4121              		.loc 8 259 42 is_stmt 0 view .LVU953
 4122 0378 C244     		add	r10, r10, r8
 4123              	.LVL313:
 259:../../libDaisy//src/dev/oled_ssd130x.h ****     }
 4124              		.loc 8 259 49 view .LVU954
 4125 037a 4FF0010B 		mov	fp, #1
 4126              	.LVL314:
 259:../../libDaisy//src/dev/oled_ssd130x.h ****     }
 4127              		.loc 8 259 55 view .LVU955
 4128 037e 0EF0070E 		and	lr, lr, #7
 4129              	.LVL315:
 259:../../libDaisy//src/dev/oled_ssd130x.h ****     }
 4130              		.loc 8 259 49 view .LVU956
 4131 0382 0BFA0EFE 		lsl	lr, fp, lr
 259:../../libDaisy//src/dev/oled_ssd130x.h ****     }
 4132              		.loc 8 259 42 view .LVU957
 4133 0386 9AF814B0 		ldrb	fp, [r10, #20]	@ zero_extendqisi2
 4134 038a 2BEA0E0E 		bic	lr, fp, lr
 4135 038e 8AF814E0 		strb	lr, [r10, #20]
 4136              	.LVL316:
 259:../../libDaisy//src/dev/oled_ssd130x.h ****     }
 4137              		.loc 8 259 42 view .LVU958
 4138 0392 15E7     		b	.L243
 4139              	.LVL317:
 4140              	.L242:
 259:../../libDaisy//src/dev/oled_ssd130x.h ****     }
 4141              		.loc 8 259 42 view .LVU959
 4142              	.LBE1086:
 4143              	.LBE1085:
 4144              	.LBE1087:
 4145              	.LBE1088:
 4146              	.LBE1113:
 4147              	.LBB1114:
 4148              	.LBB1105:
 4149              	.LBB1104:
 4150              	.LBB1102:
 4151              	.LBI1102:
 252:../../libDaisy//src/dev/oled_ssd130x.h ****     {
 4152              		.loc 8 252 10 is_stmt 1 view .LVU960
 4153              	.LBB1103:
 259:../../libDaisy//src/dev/oled_ssd130x.h ****     }
 4154              		.loc 8 259 42 is_stmt 0 view .LVU961
 4155 0394 C244     		add	r10, r10, r8
 4156              	.LVL318:
 259:../../libDaisy//src/dev/oled_ssd130x.h ****     }
 4157              		.loc 8 259 49 view .LVU962
 4158 0396 4FF0010B 		mov	fp, #1
 4159              	.LVL319:
 259:../../libDaisy//src/dev/oled_ssd130x.h ****     }
 4160              		.loc 8 259 55 view .LVU963
ARM GAS  /tmp/ccZePa4k.s 			page 121


 4161 039a 0EF0070E 		and	lr, lr, #7
 4162              	.LVL320:
 259:../../libDaisy//src/dev/oled_ssd130x.h ****     }
 4163              		.loc 8 259 49 view .LVU964
 4164 039e 0BFA0EFE 		lsl	lr, fp, lr
 259:../../libDaisy//src/dev/oled_ssd130x.h ****     }
 4165              		.loc 8 259 42 view .LVU965
 4166 03a2 9AF814B0 		ldrb	fp, [r10, #20]	@ zero_extendqisi2
 4167 03a6 2BEA0E0E 		bic	lr, fp, lr
 4168 03aa 8AF814E0 		strb	lr, [r10, #20]
 4169              	.LVL321:
 259:../../libDaisy//src/dev/oled_ssd130x.h ****     }
 4170              		.loc 8 259 42 view .LVU966
 4171              	.LBE1103:
 4172              	.LBE1102:
 4173              	.LBE1104:
 4174              	.LBE1105:
 4175              	.LBE1114:
 371:../../libDaisy//src/hid/disp/display.h ****                 ((ChildType*)(this))
 4176              		.loc 7 371 13 view .LVU967
 4177 03ae 002F     		cmp	r7, #0
 4178 03b0 3FF406AF 		beq	.L243
 4179 03b4 1CE7     		b	.L290
 4180              	.LVL322:
 4181              	.L246:
 4182              	.LBB1115:
 4183              	.LBB1097:
 4184              	.LBB1095:
 4185              	.LBB1092:
 4186              	.LBI1092:
 252:../../libDaisy//src/dev/oled_ssd130x.h ****     {
 4187              		.loc 8 252 10 is_stmt 1 view .LVU968
 4188              	.LBB1093:
 259:../../libDaisy//src/dev/oled_ssd130x.h ****     }
 4189              		.loc 8 259 42 is_stmt 0 view .LVU969
 4190 03b6 C244     		add	r10, r10, r8
 4191              	.LVL323:
 259:../../libDaisy//src/dev/oled_ssd130x.h ****     }
 4192              		.loc 8 259 49 view .LVU970
 4193 03b8 4FF0010B 		mov	fp, #1
 4194              	.LVL324:
 259:../../libDaisy//src/dev/oled_ssd130x.h ****     }
 4195              		.loc 8 259 55 view .LVU971
 4196 03bc 0EF0070E 		and	lr, lr, #7
 4197              	.LVL325:
 259:../../libDaisy//src/dev/oled_ssd130x.h ****     }
 4198              		.loc 8 259 49 view .LVU972
 4199 03c0 0BFA0EFE 		lsl	lr, fp, lr
 259:../../libDaisy//src/dev/oled_ssd130x.h ****     }
 4200              		.loc 8 259 42 view .LVU973
 4201 03c4 9AF814B0 		ldrb	fp, [r10, #20]	@ zero_extendqisi2
 4202 03c8 2BEA0E0E 		bic	lr, fp, lr
 4203 03cc 8AF814E0 		strb	lr, [r10, #20]
 4204              	.LVL326:
 259:../../libDaisy//src/dev/oled_ssd130x.h ****     }
 4205              		.loc 8 259 42 view .LVU974
 4206 03d0 F7E6     		b	.L245
ARM GAS  /tmp/ccZePa4k.s 			page 122


 4207              	.LVL327:
 4208              	.L240:
 259:../../libDaisy//src/dev/oled_ssd130x.h ****     }
 4209              		.loc 8 259 42 view .LVU975
 4210              	.LBE1093:
 4211              	.LBE1092:
 4212              	.LBE1095:
 4213              	.LBE1097:
 4214              	.LBE1115:
 4215              	.LBB1116:
 4216              	.LBB1112:
 4217              	.LBB1111:
 4218              	.LBB1109:
 4219              	.LBI1109:
 252:../../libDaisy//src/dev/oled_ssd130x.h ****     {
 4220              		.loc 8 252 10 is_stmt 1 view .LVU976
 4221              	.LBB1110:
 259:../../libDaisy//src/dev/oled_ssd130x.h ****     }
 4222              		.loc 8 259 42 is_stmt 0 view .LVU977
 4223 03d2 C244     		add	r10, r10, r8
 4224              	.LVL328:
 259:../../libDaisy//src/dev/oled_ssd130x.h ****     }
 4225              		.loc 8 259 49 view .LVU978
 4226 03d4 4FF0010B 		mov	fp, #1
 4227              	.LVL329:
 259:../../libDaisy//src/dev/oled_ssd130x.h ****     }
 4228              		.loc 8 259 55 view .LVU979
 4229 03d8 0EF0070E 		and	lr, lr, #7
 4230              	.LVL330:
 259:../../libDaisy//src/dev/oled_ssd130x.h ****     }
 4231              		.loc 8 259 49 view .LVU980
 4232 03dc 0BFA0EFE 		lsl	lr, fp, lr
 259:../../libDaisy//src/dev/oled_ssd130x.h ****     }
 4233              		.loc 8 259 42 view .LVU981
 4234 03e0 9AF814B0 		ldrb	fp, [r10, #20]	@ zero_extendqisi2
 4235 03e4 2BEA0E0E 		bic	lr, fp, lr
 4236 03e8 8AF814E0 		strb	lr, [r10, #20]
 4237              	.LVL331:
 259:../../libDaisy//src/dev/oled_ssd130x.h ****     }
 4238              		.loc 8 259 42 view .LVU982
 4239              	.LBE1110:
 4240              	.LBE1109:
 4241              	.LBE1111:
 4242              	.LBE1112:
 4243              	.LBE1116:
 368:../../libDaisy//src/hid/disp/display.h ****                 ((ChildType*)(this))
 4244              		.loc 7 368 13 view .LVU983
 4245 03ec 0029     		cmp	r1, #0
 4246 03ee 3FF4E6AE 		beq	.L241
 4247 03f2 49E7     		b	.L289
 4248              	.LVL332:
 4249              	.L296:
 360:../../libDaisy//src/hid/disp/display.h ****                     d4 = (t_sxny - t_synx < 0 && t_exny - t_eynx > 0);
 4250              		.loc 7 360 56 discriminator 1 view .LVU984
 4251 03f4 77EEE66A 		vsub.f32	s13, s15, s13
 4252              	.LVL333:
 360:../../libDaisy//src/hid/disp/display.h ****                     d4 = (t_sxny - t_synx < 0 && t_exny - t_eynx > 0);
ARM GAS  /tmp/ccZePa4k.s 			page 123


 4253              		.loc 7 360 46 discriminator 1 view .LVU985
 4254 03f8 F5EEC06A 		vcmpe.f32	s13, #0
 4255 03fc F1EE10FA 		vmrs	APSR_nzcv, FPSCR
 4256 0400 CCBF     		ite	gt
 4257 0402 0127     		movgt	r7, #1
 4258              	.LVL334:
 360:../../libDaisy//src/hid/disp/display.h ****                     d4 = (t_sxny - t_synx < 0 && t_exny - t_eynx > 0);
 4259              		.loc 7 360 46 discriminator 1 view .LVU986
 4260 0404 0027     		movle	r7, #0
 4261 0406 9BE7     		b	.L236
 4262              	.LVL335:
 4263              	.L295:
 359:../../libDaisy//src/hid/disp/display.h ****                     d3 = (t_sxny - t_syx < 0 && t_exny - t_eyx > 0);
 4264              		.loc 7 359 54 discriminator 1 view .LVU987
 4265 0408 36EE666A 		vsub.f32	s12, s12, s13
 4266              	.LVL336:
 359:../../libDaisy//src/hid/disp/display.h ****                     d3 = (t_sxny - t_syx < 0 && t_exny - t_eyx > 0);
 4267              		.loc 7 359 45 discriminator 1 view .LVU988
 4268 040c B5EEC06A 		vcmpe.f32	s12, #0
 4269 0410 F1EE10FA 		vmrs	APSR_nzcv, FPSCR
 4270 0414 CCBF     		ite	gt
 4271 0416 0121     		movgt	r1, #1
 4272 0418 0021     		movle	r1, #0
 4273 041a 89E7     		b	.L234
 4274              	.LVL337:
 4275              	.L294:
 358:../../libDaisy//src/hid/disp/display.h ****                     d2 = (t_sxy - t_syx < 0 && t_exy - t_eyx > 0);
 4276              		.loc 7 358 55 discriminator 1 view .LVU989
 4277 041c 76EE473A 		vsub.f32	s7, s12, s14
 358:../../libDaisy//src/hid/disp/display.h ****                     d2 = (t_sxy - t_syx < 0 && t_exy - t_eyx > 0);
 4278              		.loc 7 358 46 discriminator 1 view .LVU990
 4279 0420 F5EEC03A 		vcmpe.f32	s7, #0
 4280 0424 F1EE10FA 		vmrs	APSR_nzcv, FPSCR
 4281 0428 CCBF     		ite	gt
 4282 042a 0122     		movgt	r2, #1
 4283 042c 0022     		movle	r2, #0
 4284 042e 77E7     		b	.L232
 4285              	.LVL338:
 4286              	.L257:
 354:../../libDaisy//src/hid/disp/display.h ****                 }
 4287              		.loc 7 354 47 view .LVU991
 4288 0430 0124     		movs	r4, #1
 4289              	.LVL339:
 365:../../libDaisy//src/hid/disp/display.h ****                 ((ChildType*)(this))
 4290              		.loc 7 365 13 view .LVU992
 4291 0432 002A     		cmp	r2, #0
 4292 0434 3FF4C1AE 		beq	.L239
 365:../../libDaisy//src/hid/disp/display.h ****                 ((ChildType*)(this))
 4293              		.loc 7 365 13 view .LVU993
 4294 0438 49E7     		b	.L288
 4295              	.LVL340:
 4296              	.L254:
 352:../../libDaisy//src/hid/disp/display.h ****                     d3 = (t_sxny - t_syx < 0 || t_exny - t_eyx > 0);
 4297              		.loc 7 352 33 view .LVU994
 4298 043a 74EEC54A 		vsub.f32	s9, s9, s10
 4299              	.LVL341:
 351:../../libDaisy//src/hid/disp/display.h ****                     d2 = (t_sxy - t_syx < 0 || t_exy - t_eyx > 0);
ARM GAS  /tmp/ccZePa4k.s 			page 124


 4300              		.loc 7 351 46 view .LVU995
 4301 043e 0122     		movs	r2, #1
 4302              	.LVL342:
 352:../../libDaisy//src/hid/disp/display.h ****                     d3 = (t_sxny - t_syx < 0 || t_exny - t_eyx > 0);
 4303              		.loc 7 352 45 view .LVU996
 4304 0440 F5EEC04A 		vcmpe.f32	s9, #0
 4305 0444 F1EE10FA 		vmrs	APSR_nzcv, FPSCR
 4306 0448 7FF589AE 		bpl	.L297
 4307              	.L255:
 353:../../libDaisy//src/hid/disp/display.h ****                     d4 = (t_sxny - t_synx < 0 || t_exny - t_eynx > 0);
 4308              		.loc 7 353 34 view .LVU997
 4309 044c 35EEC55A 		vsub.f32	s10, s11, s10
 4310              	.LVL343:
 352:../../libDaisy//src/hid/disp/display.h ****                     d3 = (t_sxny - t_syx < 0 || t_exny - t_eyx > 0);
 4311              		.loc 7 352 45 view .LVU998
 4312 0450 0121     		movs	r1, #1
 4313              	.LVL344:
 353:../../libDaisy//src/hid/disp/display.h ****                     d4 = (t_sxny - t_synx < 0 || t_exny - t_eynx > 0);
 4314              		.loc 7 353 46 view .LVU999
 4315 0452 B5EEC05A 		vcmpe.f32	s10, #0
 4316 0456 F1EE10FA 		vmrs	APSR_nzcv, FPSCR
 4317 045a 7FF591AE 		bpl	.L298
 4318              	.LVL345:
 4319              	.L256:
 353:../../libDaisy//src/hid/disp/display.h ****                     d4 = (t_sxny - t_synx < 0 || t_exny - t_eynx > 0);
 4320              		.loc 7 353 46 view .LVU1000
 4321 045e 0127     		movs	r7, #1
 4322              	.LVL346:
 353:../../libDaisy//src/hid/disp/display.h ****                     d4 = (t_sxny - t_synx < 0 || t_exny - t_eynx > 0);
 4323              		.loc 7 353 46 view .LVU1001
 4324 0460 97E6     		b	.L231
 4325              	.LVL347:
 4326              	.L223:
 308:../../libDaisy//src/hid/disp/display.h ****             sweep = -sweep;
 4327              		.loc 7 308 25 view .LVU1002
 4328 0462 DDE91223 		ldrd	r2, r3, [sp, #72]
 4329              	.LVL348:
 308:../../libDaisy//src/hid/disp/display.h ****             sweep = -sweep;
 4330              		.loc 7 308 25 view .LVU1003
 4331 0466 1344     		add	r3, r3, r2
 4332              	.LVL349:
 308:../../libDaisy//src/hid/disp/display.h ****             sweep = -sweep;
 4333              		.loc 7 308 25 view .LVU1004
 4334 0468 06EE102A 		vmov	s12, r2	@ int
 4335 046c 1293     		str	r3, [sp, #72]
 4336 046e 139B     		ldr	r3, [sp, #76]
 4337              	.LVL350:
 308:../../libDaisy//src/hid/disp/display.h ****             sweep = -sweep;
 4338              		.loc 7 308 25 view .LVU1005
 4339 0470 5B42     		rsbs	r3, r3, #0
 4340 0472 1393     		str	r3, [sp, #76]
 4341              	.LVL351:
 308:../../libDaisy//src/hid/disp/display.h ****             sweep = -sweep;
 4342              		.loc 7 308 25 view .LVU1006
 4343 0474 D8E5     		b	.L224
 4344              		.cfi_endproc
 4345              	.LFE2604:
ARM GAS  /tmp/ccZePa4k.s 			page 125


 4347 0476 00BF     		.section	.text._ZN5daisy25OneBitGraphicsDisplayImplINS_11OledDisplayINS_13SSD130xDriverILj128ELj64
 4348              		.align	1
 4349              		.p2align 2,,3
 4350              		.weak	_ZN5daisy25OneBitGraphicsDisplayImplINS_11OledDisplayINS_13SSD130xDriverILj128ELj64ENS_24SSD
 4351              		.syntax unified
 4352              		.thumb
 4353              		.thumb_func
 4355              	_ZN5daisy25OneBitGraphicsDisplayImplINS_11OledDisplayINS_13SSD130xDriverILj128ELj64ENS_24SSD130x4Wi
 4356              	.LVL352:
 4357              	.LFB2603:
 257:../../libDaisy//src/hid/disp/display.h ****                   uint_fast8_t y1,
 4358              		.loc 7 257 10 is_stmt 1 view -0
 4359              		.cfi_startproc
 4360              		@ args = 12, pretend = 0, frame = 24
 4361              		@ frame_needed = 0, uses_anonymous_args = 0
 257:../../libDaisy//src/hid/disp/display.h ****                   uint_fast8_t y1,
 4362              		.loc 7 257 10 is_stmt 0 view .LVU1008
 4363 0000 2DE9F04F 		push	{r4, r5, r6, r7, r8, r9, r10, fp, lr}
 4364              		.cfi_def_cfa_offset 36
 4365              		.cfi_offset 4, -36
 4366              		.cfi_offset 5, -32
 4367              		.cfi_offset 6, -28
 4368              		.cfi_offset 7, -24
 4369              		.cfi_offset 8, -20
 4370              		.cfi_offset 9, -16
 4371              		.cfi_offset 10, -12
 4372              		.cfi_offset 11, -8
 4373              		.cfi_offset 14, -4
 4374 0004 87B0     		sub	sp, sp, #28
 4375              		.cfi_def_cfa_offset 64
 257:../../libDaisy//src/hid/disp/display.h ****                   uint_fast8_t y1,
 4376              		.loc 7 257 10 view .LVU1009
 4377 0006 9DF84850 		ldrb	r5, [sp, #72]	@ zero_extendqisi2
 4378 000a 109C     		ldr	r4, [sp, #64]
 4379 000c 2E46     		mov	r6, r5
 4380 000e 0195     		str	r5, [sp, #4]
 4381 0010 9DF84450 		ldrb	r5, [sp, #68]	@ zero_extendqisi2
 4382              	.LBB1186:
 264:../../libDaisy//src/hid/disp/display.h ****         {
 4383              		.loc 7 264 9 view .LVU1010
 4384 0014 9EB3     		cbz	r6, .L302
 4385              	.LVL353:
 264:../../libDaisy//src/hid/disp/display.h ****         {
 4386              		.loc 7 264 9 view .LVU1011
 4387              	.LBE1186:
 4388              	.LBB1308:
 4389              	.LBB1309:
 266:../../libDaisy//src/hid/disp/display.h ****             {
 4390              		.loc 7 266 40 is_stmt 1 view .LVU1012
 4391 0016 9942     		cmp	r1, r3
 4392 0018 2ED8     		bhi	.L301
 4393 001a 9946     		mov	r9, r3
 4394              	.LVL354:
 4395              	.L305:
 4396              	.LBB1310:
 268:../../libDaisy//src/hid/disp/display.h ****                 {
 4397              		.loc 7 268 44 view .LVU1013
ARM GAS  /tmp/ccZePa4k.s 			page 126


 4398 001c A242     		cmp	r2, r4
 4399 001e 28D8     		bhi	.L308
 4400              	.LBB1311:
 4401              	.LBB1312:
 4402              	.LBB1313:
 254:../../libDaisy//src/dev/oled_ssd130x.h ****             return;
 4403              		.loc 8 254 14 is_stmt 0 view .LVU1014
 4404 0020 7F29     		cmp	r1, #127
 4405 0022 1646     		mov	r6, r2
 4406 0024 94BF     		ite	ls
 4407 0026 0023     		movls	r3, #0
 4408 0028 0123     		movhi	r3, #1
 4409 002a 08E0     		b	.L309
 4410              	.LVL355:
 4411              	.L392:
 257:../../libDaisy//src/dev/oled_ssd130x.h ****         else
 4412              		.loc 8 257 42 view .LVU1015
 4413 002c 9CF81480 		ldrb	r8, [ip, #20]	@ zero_extendqisi2
 4414 0030 4EEA080E 		orr	lr, lr, r8
 4415 0034 8CF814E0 		strb	lr, [ip, #20]
 4416              	.LVL356:
 4417              	.L306:
 257:../../libDaisy//src/dev/oled_ssd130x.h ****         else
 4418              		.loc 8 257 42 view .LVU1016
 4419              	.LBE1313:
 4420              	.LBE1312:
 4421              	.LBE1311:
 268:../../libDaisy//src/hid/disp/display.h ****                 {
 4422              		.loc 7 268 17 is_stmt 1 view .LVU1017
 4423 0038 0136     		adds	r6, r6, #1
 4424              	.LVL357:
 268:../../libDaisy//src/hid/disp/display.h ****                 {
 4425              		.loc 7 268 44 view .LVU1018
 4426 003a B442     		cmp	r4, r6
 4427 003c 19D3     		bcc	.L308
 4428              	.L309:
 4429              	.LVL358:
 4430              	.LBB1327:
 4431              	.LBI1311:
  42:../../libDaisy//src/hid/disp/oled_display.h ****     {
 4432              		.loc 6 42 10 view .LVU1019
 4433              	.LBB1324:
 4434              	.LBI1312:
 252:../../libDaisy//src/dev/oled_ssd130x.h ****     {
 4435              		.loc 8 252 10 view .LVU1020
 4436              	.LBB1321:
 254:../../libDaisy//src/dev/oled_ssd130x.h ****             return;
 4437              		.loc 8 254 9 is_stmt 0 view .LVU1021
 4438 003e 3F2E     		cmp	r6, #63
 4439 0040 FAD8     		bhi	.L306
 254:../../libDaisy//src/dev/oled_ssd130x.h ****             return;
 4440              		.loc 8 254 9 view .LVU1022
 4441 0042 002B     		cmp	r3, #0
 4442 0044 F8D1     		bne	.L306
 4443              	.LVL359:
 4444              	.LBB1314:
 4445              	.LBI1314:
ARM GAS  /tmp/ccZePa4k.s 			page 127


 252:../../libDaisy//src/dev/oled_ssd130x.h ****     {
 4446              		.loc 8 252 10 is_stmt 1 view .LVU1023
 252:../../libDaisy//src/dev/oled_ssd130x.h ****     {
 4447              		.loc 8 252 10 is_stmt 0 view .LVU1024
 4448              	.LBE1314:
 257:../../libDaisy//src/dev/oled_ssd130x.h ****         else
 4449              		.loc 8 257 28 view .LVU1025
 4450 0046 4FEAD60C 		lsr	ip, r6, #3
 257:../../libDaisy//src/dev/oled_ssd130x.h ****         else
 4451              		.loc 8 257 54 view .LVU1026
 4452 004a 06F0070E 		and	lr, r6, #7
 257:../../libDaisy//src/dev/oled_ssd130x.h ****         else
 4453              		.loc 8 257 48 view .LVU1027
 4454 004e 4FF00108 		mov	r8, #1
 257:../../libDaisy//src/dev/oled_ssd130x.h ****         else
 4455              		.loc 8 257 42 view .LVU1028
 4456 0052 01EBCC1C 		add	ip, r1, ip, lsl #7
 257:../../libDaisy//src/dev/oled_ssd130x.h ****         else
 4457              		.loc 8 257 48 view .LVU1029
 4458 0056 08FA0EFE 		lsl	lr, r8, lr
 257:../../libDaisy//src/dev/oled_ssd130x.h ****         else
 4459              		.loc 8 257 42 view .LVU1030
 4460 005a 8444     		add	ip, ip, r0
 256:../../libDaisy//src/dev/oled_ssd130x.h ****             buffer_[x + (y / 8) * width] |= (1 << (y % 8));
 4461              		.loc 8 256 9 view .LVU1031
 4462 005c 002D     		cmp	r5, #0
 4463 005e E5D1     		bne	.L392
 4464              	.LBB1318:
 4465              	.LBB1315:
 259:../../libDaisy//src/dev/oled_ssd130x.h ****     }
 4466              		.loc 8 259 42 view .LVU1032
 4467 0060 9CF814B0 		ldrb	fp, [ip, #20]	@ zero_extendqisi2
 4468              	.LBE1315:
 4469              	.LBE1318:
 4470              	.LBE1321:
 4471              	.LBE1324:
 4472              	.LBE1327:
 268:../../libDaisy//src/hid/disp/display.h ****                 {
 4473              		.loc 7 268 17 view .LVU1033
 4474 0064 0136     		adds	r6, r6, #1
 4475              	.LVL360:
 4476              	.LBB1328:
 4477              	.LBB1325:
 4478              	.LBB1322:
 4479              	.LBB1319:
 4480              	.LBB1316:
 259:../../libDaisy//src/dev/oled_ssd130x.h ****     }
 4481              		.loc 8 259 42 view .LVU1034
 4482 0066 2BEA0E0A 		bic	r10, fp, lr
 4483              	.LBE1316:
 4484              	.LBE1319:
 4485              	.LBE1322:
 4486              	.LBE1325:
 4487              	.LBE1328:
 268:../../libDaisy//src/hid/disp/display.h ****                 {
 4488              		.loc 7 268 44 view .LVU1035
 4489 006a B442     		cmp	r4, r6
ARM GAS  /tmp/ccZePa4k.s 			page 128


 4490              	.LBB1329:
 4491              	.LBB1326:
 4492              	.LBB1323:
 4493              	.LBB1320:
 4494              	.LBB1317:
 259:../../libDaisy//src/dev/oled_ssd130x.h ****     }
 4495              		.loc 8 259 42 view .LVU1036
 4496 006c 8CF814A0 		strb	r10, [ip, #20]
 4497              	.LVL361:
 259:../../libDaisy//src/dev/oled_ssd130x.h ****     }
 4498              		.loc 8 259 42 view .LVU1037
 4499              	.LBE1317:
 4500              	.LBE1320:
 4501              	.LBE1323:
 4502              	.LBE1326:
 4503              	.LBE1329:
 268:../../libDaisy//src/hid/disp/display.h ****                 {
 4504              		.loc 7 268 17 is_stmt 1 view .LVU1038
 268:../../libDaisy//src/hid/disp/display.h ****                 {
 4505              		.loc 7 268 44 view .LVU1039
 4506 0070 E5D2     		bcs	.L309
 4507              	.LVL362:
 4508              	.L308:
 268:../../libDaisy//src/hid/disp/display.h ****                 {
 4509              		.loc 7 268 44 is_stmt 0 view .LVU1040
 4510              	.LBE1310:
 266:../../libDaisy//src/hid/disp/display.h ****             {
 4511              		.loc 7 266 13 is_stmt 1 view .LVU1041
 4512 0072 0131     		adds	r1, r1, #1
 4513              	.LVL363:
 266:../../libDaisy//src/hid/disp/display.h ****             {
 4514              		.loc 7 266 40 view .LVU1042
 4515 0074 8945     		cmp	r9, r1
 4516 0076 D1D2     		bcs	.L305
 4517              	.LVL364:
 4518              	.L301:
 266:../../libDaisy//src/hid/disp/display.h ****             {
 4519              		.loc 7 266 40 is_stmt 0 view .LVU1043
 4520              	.LBE1309:
 4521              	.LBE1308:
 281:../../libDaisy//src/hid/disp/display.h **** 
 4522              		.loc 7 281 5 view .LVU1044
 4523 0078 07B0     		add	sp, sp, #28
 4524              		.cfi_remember_state
 4525              		.cfi_def_cfa_offset 36
 4526              		@ sp needed
 4527 007a BDE8F08F 		pop	{r4, r5, r6, r7, r8, r9, r10, fp, pc}
 4528              	.LVL365:
 4529              	.L302:
 4530              		.cfi_restore_state
 4531              	.LBB1330:
 4532              	.LBB1187:
 4533              	.LBI1187:
 221:../../libDaisy//src/hid/disp/display.h ****                   uint_fast8_t y1,
 4534              		.loc 7 221 10 is_stmt 1 view .LVU1045
 4535              	.LBB1188:
 227:../../libDaisy//src/hid/disp/display.h ****         int_fast16_t deltaY = abs((int_fast16_t)y2 - (int_fast16_t)y1);
ARM GAS  /tmp/ccZePa4k.s 			page 129


 4536              		.loc 7 227 52 is_stmt 0 view .LVU1046
 4537 007e A3EB0108 		sub	r8, r3, r1
 227:../../libDaisy//src/hid/disp/display.h ****         int_fast16_t deltaY = abs((int_fast16_t)y2 - (int_fast16_t)y1);
 4538              		.loc 7 227 22 view .LVU1047
 4539 0082 B8F1000F 		cmp	r8, #0
 4540 0086 B8BF     		it	lt
 4541 0088 C8F10008 		rsblt	r8, r8, #0
 4542              	.LVL366:
 229:../../libDaisy//src/hid/disp/display.h ****         int_fast16_t signY  = ((y1 < y2) ? 1 : -1);
 4543              		.loc 7 229 42 view .LVU1048
 4544 008c 9942     		cmp	r1, r3
 4545 008e C0F04E81 		bcc	.L310
 4546              	.LVL367:
 4547              	.LBB1189:
 4548              	.LBI1189:
  42:../../libDaisy//src/hid/disp/oled_display.h ****     {
 4549              		.loc 6 42 10 is_stmt 1 view .LVU1049
 4550              	.LBB1190:
 4551              	.LBI1190:
 252:../../libDaisy//src/dev/oled_ssd130x.h ****     {
 4552              		.loc 8 252 10 view .LVU1050
 4553              	.LBB1191:
 254:../../libDaisy//src/dev/oled_ssd130x.h ****             return;
 4554              		.loc 8 254 14 is_stmt 0 view .LVU1051
 4555 0092 7F2B     		cmp	r3, #127
 4556              	.LBE1191:
 4557              	.LBE1190:
 4558              	.LBE1189:
 229:../../libDaisy//src/hid/disp/display.h ****         int_fast16_t signY  = ((y1 < y2) ? 1 : -1);
 4559              		.loc 7 229 42 view .LVU1052
 4560 0094 4FF0FF3A 		mov	r10, #-1
 4561              	.LBB1202:
 4562              	.LBB1198:
 4563              	.LBB1194:
 254:../../libDaisy//src/dev/oled_ssd130x.h ****             return;
 4564              		.loc 8 254 14 view .LVU1053
 4565 0098 94BF     		ite	ls
 4566 009a 0026     		movls	r6, #0
 4567 009c 0126     		movhi	r6, #1
 254:../../libDaisy//src/dev/oled_ssd130x.h ****             return;
 4568              		.loc 8 254 28 view .LVU1054
 4569 009e 3F2A     		cmp	r2, #63
 254:../../libDaisy//src/dev/oled_ssd130x.h ****             return;
 4570              		.loc 8 254 14 view .LVU1055
 4571 00a0 0096     		str	r6, [sp]
 254:../../libDaisy//src/dev/oled_ssd130x.h ****             return;
 4572              		.loc 8 254 28 view .LVU1056
 4573 00a2 94BF     		ite	ls
 4574 00a4 0027     		movls	r7, #0
 4575 00a6 0127     		movhi	r7, #1
 4576 00a8 0297     		str	r7, [sp, #8]
 254:../../libDaisy//src/dev/oled_ssd130x.h ****             return;
 4577              		.loc 8 254 9 view .LVU1057
 4578 00aa A6B9     		cbnz	r6, .L311
 4579 00ac 9FB9     		cbnz	r7, .L311
 4580              	.LVL368:
 4581              	.L352:
ARM GAS  /tmp/ccZePa4k.s 			page 130


 257:../../libDaisy//src/dev/oled_ssd130x.h ****         else
 4582              		.loc 8 257 28 view .LVU1058
 4583 00ae D608     		lsrs	r6, r2, #3
 257:../../libDaisy//src/dev/oled_ssd130x.h ****         else
 4584              		.loc 8 257 54 view .LVU1059
 4585 00b0 02F0070C 		and	ip, r2, #7
 257:../../libDaisy//src/dev/oled_ssd130x.h ****         else
 4586              		.loc 8 257 48 view .LVU1060
 4587 00b4 0127     		movs	r7, #1
 257:../../libDaisy//src/dev/oled_ssd130x.h ****         else
 4588              		.loc 8 257 42 view .LVU1061
 4589 00b6 03EBC616 		add	r6, r3, r6, lsl #7
 4590 00ba 0644     		add	r6, r6, r0
 256:../../libDaisy//src/dev/oled_ssd130x.h ****             buffer_[x + (y / 8) * width] |= (1 << (y % 8));
 4591              		.loc 8 256 9 view .LVU1062
 4592 00bc 002D     		cmp	r5, #0
 4593 00be 00F09481 		beq	.L312
 257:../../libDaisy//src/dev/oled_ssd130x.h ****         else
 4594              		.loc 8 257 48 view .LVU1063
 4595 00c2 07FA0CF7 		lsl	r7, r7, ip
 257:../../libDaisy//src/dev/oled_ssd130x.h ****         else
 4596              		.loc 8 257 42 view .LVU1064
 4597 00c6 96F814C0 		ldrb	ip, [r6, #20]	@ zero_extendqisi2
 4598 00ca 47EA0C07 		orr	r7, r7, ip
 4599 00ce 3775     		strb	r7, [r6, #20]
 4600 00d0 0026     		movs	r6, #0
 4601 00d2 0296     		str	r6, [sp, #8]
 4602 00d4 0096     		str	r6, [sp]
 4603              	.L311:
 4604              	.LVL369:
 257:../../libDaisy//src/dev/oled_ssd130x.h ****         else
 4605              		.loc 8 257 42 view .LVU1065
 4606              	.LBE1194:
 4607              	.LBE1198:
 4608              	.LBE1202:
 239:../../libDaisy//src/hid/disp/display.h ****         {
 4609              		.loc 7 239 26 is_stmt 1 view .LVU1066
 4610 00d6 9942     		cmp	r1, r3
 4611 00d8 00F09781 		beq	.L393
 4612              	.L314:
 4613              	.LVL370:
 227:../../libDaisy//src/hid/disp/display.h ****         int_fast16_t deltaY = abs((int_fast16_t)y2 - (int_fast16_t)y1);
 4614              		.loc 7 227 22 is_stmt 0 view .LVU1067
 4615 00dc 4646     		mov	r6, r8
 4616 00de 9446     		mov	ip, r2
 4617 00e0 8E46     		mov	lr, r1
 4618              	.LVL371:
 4619              	.L316:
 4620              	.LBB1203:
 4621              	.LBI1203:
  42:../../libDaisy//src/hid/disp/oled_display.h ****     {
 4622              		.loc 6 42 10 is_stmt 1 view .LVU1068
 4623              	.LBB1204:
 4624              	.LBI1204:
 252:../../libDaisy//src/dev/oled_ssd130x.h ****     {
 4625              		.loc 8 252 10 view .LVU1069
 4626              	.LBB1205:
ARM GAS  /tmp/ccZePa4k.s 			page 131


 254:../../libDaisy//src/dev/oled_ssd130x.h ****             return;
 4627              		.loc 8 254 9 is_stmt 0 view .LVU1070
 4628 00e2 BEF17F0F 		cmp	lr, #127
 4629 00e6 16D8     		bhi	.L317
 4630 00e8 BCF13F0F 		cmp	ip, #63
 4631 00ec 13D8     		bhi	.L317
 257:../../libDaisy//src/dev/oled_ssd130x.h ****         else
 4632              		.loc 8 257 28 view .LVU1071
 4633 00ee 4FEADC07 		lsr	r7, ip, #3
 257:../../libDaisy//src/dev/oled_ssd130x.h ****         else
 4634              		.loc 8 257 54 view .LVU1072
 4635 00f2 0CF0070B 		and	fp, ip, #7
 257:../../libDaisy//src/dev/oled_ssd130x.h ****         else
 4636              		.loc 8 257 48 view .LVU1073
 4637 00f6 4FF00109 		mov	r9, #1
 257:../../libDaisy//src/dev/oled_ssd130x.h ****         else
 4638              		.loc 8 257 42 view .LVU1074
 4639 00fa 0EEBC717 		add	r7, lr, r7, lsl #7
 4640 00fe 0744     		add	r7, r7, r0
 256:../../libDaisy//src/dev/oled_ssd130x.h ****             buffer_[x + (y / 8) * width] |= (1 << (y % 8));
 4641              		.loc 8 256 9 view .LVU1075
 4642 0100 002D     		cmp	r5, #0
 4643 0102 00F03981 		beq	.L318
 257:../../libDaisy//src/dev/oled_ssd130x.h ****         else
 4644              		.loc 8 257 48 view .LVU1076
 4645 0106 09FA0BF9 		lsl	r9, r9, fp
 257:../../libDaisy//src/dev/oled_ssd130x.h ****         else
 4646              		.loc 8 257 42 view .LVU1077
 4647 010a 97F814B0 		ldrb	fp, [r7, #20]	@ zero_extendqisi2
 4648 010e 49EA0B09 		orr	r9, r9, fp
 4649 0112 87F81490 		strb	r9, [r7, #20]
 4650              	.L317:
 4651              	.LVL372:
 257:../../libDaisy//src/dev/oled_ssd130x.h ****         else
 4652              		.loc 8 257 42 view .LVU1078
 4653              	.LBE1205:
 4654              	.LBE1204:
 4655              	.LBE1203:
 243:../../libDaisy//src/hid/disp/display.h ****             {
 4656              		.loc 7 243 13 view .LVU1079
 4657 0116 7700     		lsls	r7, r6, #1
 4658              	.LVL373:
 246:../../libDaisy//src/hid/disp/display.h ****             }
 4659              		.loc 7 246 20 view .LVU1080
 4660 0118 18BF     		it	ne
 4661 011a D644     		addne	lr, lr, r10
 4662              	.LVL374:
 249:../../libDaisy//src/hid/disp/display.h ****             {
 4663              		.loc 7 249 13 view .LVU1081
 4664 011c B845     		cmp	r8, r7
 4665 011e 02DD     		ble	.L320
 251:../../libDaisy//src/hid/disp/display.h ****                 y1 += signY;
 4666              		.loc 7 251 23 view .LVU1082
 4667 0120 4644     		add	r6, r6, r8
 4668              	.LVL375:
 252:../../libDaisy//src/hid/disp/display.h ****             }
 4669              		.loc 7 252 20 view .LVU1083
ARM GAS  /tmp/ccZePa4k.s 			page 132


 4670 0122 0CF1FF3C 		add	ip, ip, #-1
 4671              	.LVL376:
 4672              	.L320:
 239:../../libDaisy//src/hid/disp/display.h ****         {
 4673              		.loc 7 239 26 is_stmt 1 view .LVU1084
 4674 0126 7345     		cmp	r3, lr
 4675 0128 DBD1     		bne	.L316
 239:../../libDaisy//src/hid/disp/display.h ****         {
 4676              		.loc 7 239 26 is_stmt 0 view .LVU1085
 4677 012a 6245     		cmp	r2, ip
 4678 012c D9D1     		bne	.L316
 4679 012e 0026     		movs	r6, #0
 4680              	.LVL377:
 239:../../libDaisy//src/hid/disp/display.h ****         {
 4681              		.loc 7 239 26 view .LVU1086
 4682 0130 0496     		str	r6, [sp, #16]
 4683              	.LVL378:
 4684              	.L313:
 239:../../libDaisy//src/hid/disp/display.h ****         {
 4685              		.loc 7 239 26 view .LVU1087
 4686              	.LBE1188:
 4687              	.LBE1187:
 4688              	.LBB1218:
 4689              	.LBI1218:
 221:../../libDaisy//src/hid/disp/display.h ****                   uint_fast8_t y1,
 4690              		.loc 7 221 10 is_stmt 1 view .LVU1088
 4691              	.LBB1219:
 228:../../libDaisy//src/hid/disp/display.h ****         int_fast16_t signX  = ((x1 < x2) ? 1 : -1);
 4692              		.loc 7 228 52 is_stmt 0 view .LVU1089
 4693 0132 A4EB0209 		sub	r9, r4, r2
 4694              	.LBB1220:
 4695              	.LBB1221:
 4696              	.LBB1222:
 254:../../libDaisy//src/dev/oled_ssd130x.h ****             return;
 4697              		.loc 8 254 9 view .LVU1090
 4698 0136 009F     		ldr	r7, [sp]
 4699              	.LBE1222:
 4700              	.LBE1221:
 4701              	.LBE1220:
 228:../../libDaisy//src/hid/disp/display.h ****         int_fast16_t signX  = ((x1 < x2) ? 1 : -1);
 4702              		.loc 7 228 22 view .LVU1091
 4703 0138 B9F1000F 		cmp	r9, #0
 4704 013c B8BF     		it	lt
 4705 013e C9F10009 		rsblt	r9, r9, #0
 4706              	.LVL379:
 4707              	.LBB1237:
 4708              	.LBB1231:
 4709              	.LBB1225:
 254:../../libDaisy//src/dev/oled_ssd130x.h ****             return;
 4710              		.loc 8 254 28 view .LVU1092
 4711 0142 3F2C     		cmp	r4, #63
 4712 0144 94BF     		ite	ls
 4713 0146 0026     		movls	r6, #0
 4714 0148 0126     		movhi	r6, #1
 4715              	.LBE1225:
 4716              	.LBE1231:
 4717              	.LBE1237:
ARM GAS  /tmp/ccZePa4k.s 			page 133


 230:../../libDaisy//src/hid/disp/display.h ****         int_fast16_t error  = deltaX - deltaY;
 4718              		.loc 7 230 42 view .LVU1093
 4719 014a A242     		cmp	r2, r4
 231:../../libDaisy//src/hid/disp/display.h ****         int_fast16_t error2;
 4720              		.loc 7 231 22 view .LVU1094
 4721 014c C9F10008 		rsb	r8, r9, #0
 4722              	.LVL380:
 4723              	.LBB1238:
 4724              	.LBI1220:
  42:../../libDaisy//src/hid/disp/oled_display.h ****     {
 4725              		.loc 6 42 10 is_stmt 1 view .LVU1095
 4726              	.LBB1232:
 4727              	.LBI1221:
 252:../../libDaisy//src/dev/oled_ssd130x.h ****     {
 4728              		.loc 8 252 10 view .LVU1096
 4729              	.LBB1226:
 254:../../libDaisy//src/dev/oled_ssd130x.h ****             return;
 4730              		.loc 8 254 28 is_stmt 0 view .LVU1097
 4731 0150 0396     		str	r6, [sp, #12]
 4732              	.LBE1226:
 4733              	.LBE1232:
 4734              	.LBE1238:
 230:../../libDaisy//src/hid/disp/display.h ****         int_fast16_t error  = deltaX - deltaY;
 4735              		.loc 7 230 42 view .LVU1098
 4736 0152 C0F02381 		bcc	.L321
 4737              	.LVL381:
 4738              	.LBB1239:
 4739              	.LBB1233:
 4740              	.LBB1227:
 254:../../libDaisy//src/dev/oled_ssd130x.h ****             return;
 4741              		.loc 8 254 9 view .LVU1099
 4742 0156 002F     		cmp	r7, #0
 4743 0158 40F05081 		bne	.L356
 4744 015c 002E     		cmp	r6, #0
 4745 015e 40F04D81 		bne	.L356
 4746              	.LBE1227:
 4747              	.LBE1233:
 4748              	.LBE1239:
 230:../../libDaisy//src/hid/disp/display.h ****         int_fast16_t error  = deltaX - deltaY;
 4749              		.loc 7 230 42 view .LVU1100
 4750 0162 4FF0FF36 		mov	r6, #-1
 4751 0166 0096     		str	r6, [sp]
 4752              	.LBB1240:
 4753              	.LBB1234:
 4754              	.LBB1228:
 257:../../libDaisy//src/dev/oled_ssd130x.h ****         else
 4755              		.loc 8 257 28 view .LVU1101
 4756 0168 E608     		lsrs	r6, r4, #3
 257:../../libDaisy//src/dev/oled_ssd130x.h ****         else
 4757              		.loc 8 257 42 view .LVU1102
 4758 016a 03EBC616 		add	r6, r3, r6, lsl #7
 4759 016e 0644     		add	r6, r6, r0
 256:../../libDaisy//src/dev/oled_ssd130x.h ****             buffer_[x + (y / 8) * width] |= (1 << (y % 8));
 4760              		.loc 8 256 9 view .LVU1103
 4761 0170 002D     		cmp	r5, #0
 4762 0172 00F01E81 		beq	.L323
 4763              	.LVL382:
ARM GAS  /tmp/ccZePa4k.s 			page 134


 4764              	.L395:
 257:../../libDaisy//src/dev/oled_ssd130x.h ****         else
 4765              		.loc 8 257 48 view .LVU1104
 4766 0176 4FF0010C 		mov	ip, #1
 257:../../libDaisy//src/dev/oled_ssd130x.h ****         else
 4767              		.loc 8 257 54 view .LVU1105
 4768 017a 04F00707 		and	r7, r4, #7
 257:../../libDaisy//src/dev/oled_ssd130x.h ****         else
 4769              		.loc 8 257 48 view .LVU1106
 4770 017e 0CFA07F7 		lsl	r7, ip, r7
 257:../../libDaisy//src/dev/oled_ssd130x.h ****         else
 4771              		.loc 8 257 42 view .LVU1107
 4772 0182 96F814C0 		ldrb	ip, [r6, #20]	@ zero_extendqisi2
 4773 0186 47EA0C07 		orr	r7, r7, ip
 4774 018a 3775     		strb	r7, [r6, #20]
 4775 018c 0026     		movs	r6, #0
 4776 018e 0396     		str	r6, [sp, #12]
 4777              	.L322:
 4778              	.LVL383:
 257:../../libDaisy//src/dev/oled_ssd130x.h ****         else
 4779              		.loc 8 257 42 view .LVU1108
 4780              	.LBE1228:
 4781              	.LBE1234:
 4782              	.LBE1240:
 239:../../libDaisy//src/hid/disp/display.h ****         {
 4783              		.loc 7 239 26 is_stmt 1 view .LVU1109
 4784 0190 A242     		cmp	r2, r4
 4785 0192 00F03D81 		beq	.L394
 4786              	.L325:
 4787              	.LVL384:
 230:../../libDaisy//src/hid/disp/display.h ****         int_fast16_t error  = deltaX - deltaY;
 4788              		.loc 7 230 42 is_stmt 0 view .LVU1110
 4789 0196 C446     		mov	ip, r8
 4790 0198 1646     		mov	r6, r2
 4791 019a 1F46     		mov	r7, r3
 4792 019c 0592     		str	r2, [sp, #20]
 4793              	.LVL385:
 4794              	.L327:
 4795              	.LBB1241:
 4796              	.LBI1241:
  42:../../libDaisy//src/hid/disp/oled_display.h ****     {
 4797              		.loc 6 42 10 is_stmt 1 view .LVU1111
 4798              	.LBB1242:
 4799              	.LBI1242:
 252:../../libDaisy//src/dev/oled_ssd130x.h ****     {
 4800              		.loc 8 252 10 view .LVU1112
 4801              	.LBB1243:
 254:../../libDaisy//src/dev/oled_ssd130x.h ****             return;
 4802              		.loc 8 254 9 is_stmt 0 view .LVU1113
 4803 019e 7F2F     		cmp	r7, #127
 4804 01a0 15D8     		bhi	.L328
 4805 01a2 3F2E     		cmp	r6, #63
 4806 01a4 13D8     		bhi	.L328
 257:../../libDaisy//src/dev/oled_ssd130x.h ****         else
 4807              		.loc 8 257 28 view .LVU1114
 4808 01a6 4FEAD60E 		lsr	lr, r6, #3
 257:../../libDaisy//src/dev/oled_ssd130x.h ****         else
ARM GAS  /tmp/ccZePa4k.s 			page 135


 4809              		.loc 8 257 54 view .LVU1115
 4810 01aa 06F0070B 		and	fp, r6, #7
 257:../../libDaisy//src/dev/oled_ssd130x.h ****         else
 4811              		.loc 8 257 48 view .LVU1116
 4812 01ae 4FF0010A 		mov	r10, #1
 257:../../libDaisy//src/dev/oled_ssd130x.h ****         else
 4813              		.loc 8 257 42 view .LVU1117
 4814 01b2 07EBCE1E 		add	lr, r7, lr, lsl #7
 4815 01b6 8644     		add	lr, lr, r0
 256:../../libDaisy//src/dev/oled_ssd130x.h ****             buffer_[x + (y / 8) * width] |= (1 << (y % 8));
 4816              		.loc 8 256 9 view .LVU1118
 4817 01b8 002D     		cmp	r5, #0
 4818 01ba 00F0E680 		beq	.L329
 257:../../libDaisy//src/dev/oled_ssd130x.h ****         else
 4819              		.loc 8 257 48 view .LVU1119
 4820 01be 0AFA0BFA 		lsl	r10, r10, fp
 257:../../libDaisy//src/dev/oled_ssd130x.h ****         else
 4821              		.loc 8 257 42 view .LVU1120
 4822 01c2 9EF814B0 		ldrb	fp, [lr, #20]	@ zero_extendqisi2
 4823 01c6 4AEA0B0A 		orr	r10, r10, fp
 4824 01ca 8EF814A0 		strb	r10, [lr, #20]
 4825              	.L328:
 4826              	.LVL386:
 257:../../libDaisy//src/dev/oled_ssd130x.h ****         else
 4827              		.loc 8 257 42 view .LVU1121
 4828              	.LBE1243:
 4829              	.LBE1242:
 4830              	.LBE1241:
 243:../../libDaisy//src/hid/disp/display.h ****             {
 4831              		.loc 7 243 13 view .LVU1122
 4832 01ce B8EB4C0F 		cmp	r8, ip, lsl #1
 242:../../libDaisy//src/hid/disp/display.h ****             if(error2 > -deltaY)
 4833              		.loc 7 242 20 view .LVU1123
 4834 01d2 4FEA4C0E 		lsl	lr, ip, #1
 4835              	.LVL387:
 243:../../libDaisy//src/hid/disp/display.h ****             {
 4836              		.loc 7 243 13 view .LVU1124
 4837 01d6 02DA     		bge	.L330
 245:../../libDaisy//src/hid/disp/display.h ****                 x1 += signX;
 4838              		.loc 7 245 23 view .LVU1125
 4839 01d8 ACEB090C 		sub	ip, ip, r9
 4840              	.LVL388:
 246:../../libDaisy//src/hid/disp/display.h ****             }
 4841              		.loc 7 246 20 view .LVU1126
 4842 01dc 013F     		subs	r7, r7, #1
 4843              	.LVL389:
 4844              	.L330:
 249:../../libDaisy//src/hid/disp/display.h ****             {
 4845              		.loc 7 249 13 view .LVU1127
 4846 01de BEF1000F 		cmp	lr, #0
 4847 01e2 01D0     		beq	.L331
 252:../../libDaisy//src/hid/disp/display.h ****             }
 4848              		.loc 7 252 20 view .LVU1128
 4849 01e4 009A     		ldr	r2, [sp]
 4850 01e6 1644     		add	r6, r6, r2
 4851              	.LVL390:
 4852              	.L331:
ARM GAS  /tmp/ccZePa4k.s 			page 136


 239:../../libDaisy//src/hid/disp/display.h ****         {
 4853              		.loc 7 239 26 is_stmt 1 view .LVU1129
 4854 01e8 BB42     		cmp	r3, r7
 4855 01ea D8D1     		bne	.L327
 239:../../libDaisy//src/hid/disp/display.h ****         {
 4856              		.loc 7 239 26 is_stmt 0 view .LVU1130
 4857 01ec B442     		cmp	r4, r6
 4858 01ee D6D1     		bne	.L327
 4859 01f0 059A     		ldr	r2, [sp, #20]
 4860              	.LVL391:
 4861              	.L324:
 239:../../libDaisy//src/hid/disp/display.h ****         {
 4862              		.loc 7 239 26 view .LVU1131
 4863              	.LBE1219:
 4864              	.LBE1218:
 4865              	.LBB1254:
 4866              	.LBI1254:
 221:../../libDaisy//src/hid/disp/display.h ****                   uint_fast8_t y1,
 4867              		.loc 7 221 10 is_stmt 1 view .LVU1132
 4868              	.LBB1255:
 227:../../libDaisy//src/hid/disp/display.h ****         int_fast16_t deltaY = abs((int_fast16_t)y2 - (int_fast16_t)y1);
 4869              		.loc 7 227 52 is_stmt 0 view .LVU1133
 4870 01f2 A1EB030E 		sub	lr, r1, r3
 227:../../libDaisy//src/hid/disp/display.h ****         int_fast16_t deltaY = abs((int_fast16_t)y2 - (int_fast16_t)y1);
 4871              		.loc 7 227 22 view .LVU1134
 4872 01f6 BEF1000F 		cmp	lr, #0
 4873 01fa B8BF     		it	lt
 4874 01fc CEF1000E 		rsblt	lr, lr, #0
 4875              	.LVL392:
 4876              	.LBB1256:
 4877              	.LBB1257:
 4878              	.LBB1258:
 254:../../libDaisy//src/dev/oled_ssd130x.h ****             return;
 4879              		.loc 8 254 14 view .LVU1135
 4880 0200 7F29     		cmp	r1, #127
 4881 0202 94BF     		ite	ls
 4882 0204 4FF0000A 		movls	r10, #0
 4883 0208 4FF0010A 		movhi	r10, #1
 4884              	.LBE1258:
 4885              	.LBE1257:
 4886              	.LBE1256:
 229:../../libDaisy//src/hid/disp/display.h ****         int_fast16_t signY  = ((y1 < y2) ? 1 : -1);
 4887              		.loc 7 229 42 view .LVU1136
 4888 020c 9942     		cmp	r1, r3
 4889 020e 8CBF     		ite	hi
 4890 0210 4FF00109 		movhi	r9, #1
 4891 0214 4FF0FF39 		movls	r9, #-1
 4892              	.LVL393:
 4893              	.LBB1265:
 4894              	.LBI1256:
  42:../../libDaisy//src/hid/disp/oled_display.h ****     {
 4895              		.loc 6 42 10 is_stmt 1 view .LVU1137
 4896              	.LBB1263:
 4897              	.LBI1257:
 252:../../libDaisy//src/dev/oled_ssd130x.h ****     {
 4898              		.loc 8 252 10 view .LVU1138
 4899              	.LBB1261:
ARM GAS  /tmp/ccZePa4k.s 			page 137


 254:../../libDaisy//src/dev/oled_ssd130x.h ****             return;
 4900              		.loc 8 254 9 is_stmt 0 view .LVU1139
 4901 0218 BAF1000F 		cmp	r10, #0
 4902 021c 13D1     		bne	.L333
 4903 021e 039E     		ldr	r6, [sp, #12]
 4904 0220 8EB9     		cbnz	r6, .L333
 257:../../libDaisy//src/dev/oled_ssd130x.h ****         else
 4905              		.loc 8 257 28 view .LVU1140
 4906 0222 E608     		lsrs	r6, r4, #3
 257:../../libDaisy//src/dev/oled_ssd130x.h ****         else
 4907              		.loc 8 257 42 view .LVU1141
 4908 0224 01EBC616 		add	r6, r1, r6, lsl #7
 4909 0228 0644     		add	r6, r6, r0
 256:../../libDaisy//src/dev/oled_ssd130x.h ****             buffer_[x + (y / 8) * width] |= (1 << (y % 8));
 4910              		.loc 8 256 9 view .LVU1142
 4911 022a 002D     		cmp	r5, #0
 4912 022c 00F0D380 		beq	.L334
 257:../../libDaisy//src/dev/oled_ssd130x.h ****         else
 4913              		.loc 8 257 48 view .LVU1143
 4914 0230 4FF0010C 		mov	ip, #1
 257:../../libDaisy//src/dev/oled_ssd130x.h ****         else
 4915              		.loc 8 257 54 view .LVU1144
 4916 0234 04F00707 		and	r7, r4, #7
 257:../../libDaisy//src/dev/oled_ssd130x.h ****         else
 4917              		.loc 8 257 48 view .LVU1145
 4918 0238 0CFA07F7 		lsl	r7, ip, r7
 257:../../libDaisy//src/dev/oled_ssd130x.h ****         else
 4919              		.loc 8 257 42 view .LVU1146
 4920 023c 96F814C0 		ldrb	ip, [r6, #20]	@ zero_extendqisi2
 4921 0240 47EA0C07 		orr	r7, r7, ip
 4922 0244 3775     		strb	r7, [r6, #20]
 4923              	.L333:
 4924              	.LVL394:
 257:../../libDaisy//src/dev/oled_ssd130x.h ****         else
 4925              		.loc 8 257 42 view .LVU1147
 4926              	.LBE1261:
 4927              	.LBE1263:
 4928              	.LBE1265:
 239:../../libDaisy//src/hid/disp/display.h ****         {
 4929              		.loc 7 239 26 is_stmt 1 view .LVU1148
 4930 0246 049E     		ldr	r6, [sp, #16]
 4931 0248 26BB     		cbnz	r6, .L335
 227:../../libDaisy//src/hid/disp/display.h ****         int_fast16_t deltaY = abs((int_fast16_t)y2 - (int_fast16_t)y1);
 4932              		.loc 7 227 22 is_stmt 0 view .LVU1149
 4933 024a 7746     		mov	r7, lr
 239:../../libDaisy//src/hid/disp/display.h ****         {
 4934              		.loc 7 239 26 view .LVU1150
 4935 024c 2646     		mov	r6, r4
 4936              	.LVL395:
 4937              	.L336:
 4938              	.LBB1266:
 4939              	.LBI1266:
  42:../../libDaisy//src/hid/disp/oled_display.h ****     {
 4940              		.loc 6 42 10 is_stmt 1 view .LVU1151
 4941              	.LBB1267:
 4942              	.LBI1267:
 252:../../libDaisy//src/dev/oled_ssd130x.h ****     {
ARM GAS  /tmp/ccZePa4k.s 			page 138


 4943              		.loc 8 252 10 view .LVU1152
 4944              	.LBB1268:
 254:../../libDaisy//src/dev/oled_ssd130x.h ****             return;
 4945              		.loc 8 254 9 is_stmt 0 view .LVU1153
 4946 024e 7F2B     		cmp	r3, #127
 4947 0250 14D8     		bhi	.L338
 254:../../libDaisy//src/dev/oled_ssd130x.h ****             return;
 4948              		.loc 8 254 9 view .LVU1154
 4949 0252 3F2E     		cmp	r6, #63
 4950 0254 12D8     		bhi	.L338
 257:../../libDaisy//src/dev/oled_ssd130x.h ****         else
 4951              		.loc 8 257 28 view .LVU1155
 4952 0256 4FEAD60C 		lsr	ip, r6, #3
 257:../../libDaisy//src/dev/oled_ssd130x.h ****         else
 4953              		.loc 8 257 54 view .LVU1156
 4954 025a 06F0070B 		and	fp, r6, #7
 257:../../libDaisy//src/dev/oled_ssd130x.h ****         else
 4955              		.loc 8 257 48 view .LVU1157
 4956 025e 4FF00108 		mov	r8, #1
 257:../../libDaisy//src/dev/oled_ssd130x.h ****         else
 4957              		.loc 8 257 42 view .LVU1158
 4958 0262 03EBCC1C 		add	ip, r3, ip, lsl #7
 4959 0266 8444     		add	ip, ip, r0
 256:../../libDaisy//src/dev/oled_ssd130x.h ****             buffer_[x + (y / 8) * width] |= (1 << (y % 8));
 4960              		.loc 8 256 9 view .LVU1159
 4961 0268 002D     		cmp	r5, #0
 4962 026a 73D0     		beq	.L339
 257:../../libDaisy//src/dev/oled_ssd130x.h ****         else
 4963              		.loc 8 257 48 view .LVU1160
 4964 026c 08FA0BF8 		lsl	r8, r8, fp
 257:../../libDaisy//src/dev/oled_ssd130x.h ****         else
 4965              		.loc 8 257 42 view .LVU1161
 4966 0270 9CF814B0 		ldrb	fp, [ip, #20]	@ zero_extendqisi2
 4967 0274 48EA0B08 		orr	r8, r8, fp
 4968 0278 8CF81480 		strb	r8, [ip, #20]
 4969              	.L338:
 4970              	.LVL396:
 257:../../libDaisy//src/dev/oled_ssd130x.h ****         else
 4971              		.loc 8 257 42 view .LVU1162
 4972              	.LBE1268:
 4973              	.LBE1267:
 4974              	.LBE1266:
 243:../../libDaisy//src/hid/disp/display.h ****             {
 4975              		.loc 7 243 13 view .LVU1163
 4976 027c 5FEA470C 		lsls	ip, r7, #1
 4977              	.LVL397:
 246:../../libDaisy//src/hid/disp/display.h ****             }
 4978              		.loc 7 246 20 view .LVU1164
 4979 0280 18BF     		it	ne
 4980 0282 4B44     		addne	r3, r3, r9
 4981              	.LVL398:
 249:../../libDaisy//src/hid/disp/display.h ****             {
 4982              		.loc 7 249 13 view .LVU1165
 4983 0284 E645     		cmp	lr, ip
 4984 0286 01DD     		ble	.L341
 251:../../libDaisy//src/hid/disp/display.h ****                 y1 += signY;
 4985              		.loc 7 251 23 view .LVU1166
ARM GAS  /tmp/ccZePa4k.s 			page 139


 4986 0288 7744     		add	r7, r7, lr
 4987              	.LVL399:
 252:../../libDaisy//src/hid/disp/display.h ****             }
 4988              		.loc 7 252 20 view .LVU1167
 4989 028a 013E     		subs	r6, r6, #1
 4990              	.LVL400:
 4991              	.L341:
 239:../../libDaisy//src/hid/disp/display.h ****         {
 4992              		.loc 7 239 26 is_stmt 1 view .LVU1168
 4993 028c 9942     		cmp	r1, r3
 4994 028e DED1     		bne	.L336
 239:../../libDaisy//src/hid/disp/display.h ****         {
 4995              		.loc 7 239 26 is_stmt 0 view .LVU1169
 4996 0290 B442     		cmp	r4, r6
 4997 0292 DCD1     		bne	.L336
 4998              	.LVL401:
 4999              	.L335:
 239:../../libDaisy//src/hid/disp/display.h ****         {
 5000              		.loc 7 239 26 view .LVU1170
 5001              	.LBE1255:
 5002              	.LBE1254:
 5003              	.LBB1277:
 5004              	.LBI1277:
 221:../../libDaisy//src/hid/disp/display.h ****                   uint_fast8_t y1,
 5005              		.loc 7 221 10 is_stmt 1 view .LVU1171
 5006              	.LBB1278:
 228:../../libDaisy//src/hid/disp/display.h ****         int_fast16_t signX  = ((x1 < x2) ? 1 : -1);
 5007              		.loc 7 228 52 is_stmt 0 view .LVU1172
 5008 0294 A2EB040E 		sub	lr, r2, r4
 228:../../libDaisy//src/hid/disp/display.h ****         int_fast16_t signX  = ((x1 < x2) ? 1 : -1);
 5009              		.loc 7 228 22 view .LVU1173
 5010 0298 BEF1000F 		cmp	lr, #0
 5011 029c B8BF     		it	lt
 5012 029e CEF1000E 		rsblt	lr, lr, #0
 5013              	.LVL402:
 230:../../libDaisy//src/hid/disp/display.h ****         int_fast16_t error  = deltaX - deltaY;
 5014              		.loc 7 230 42 view .LVU1174
 5015 02a2 A242     		cmp	r2, r4
 5016 02a4 8CBF     		ite	hi
 5017 02a6 4FF00108 		movhi	r8, #1
 5018 02aa 4FF0FF38 		movls	r8, #-1
 5019              	.LVL403:
 231:../../libDaisy//src/hid/disp/display.h ****         int_fast16_t error2;
 5020              		.loc 7 231 22 view .LVU1175
 5021 02ae CEF1000C 		rsb	ip, lr, #0
 5022              	.LVL404:
 5023              	.LBB1279:
 5024              	.LBI1279:
  42:../../libDaisy//src/hid/disp/oled_display.h ****     {
 5025              		.loc 6 42 10 is_stmt 1 view .LVU1176
 5026              	.LBB1280:
 5027              	.LBI1280:
 252:../../libDaisy//src/dev/oled_ssd130x.h ****     {
 5028              		.loc 8 252 10 view .LVU1177
 5029              	.LBB1281:
 254:../../libDaisy//src/dev/oled_ssd130x.h ****             return;
 5030              		.loc 8 254 9 is_stmt 0 view .LVU1178
ARM GAS  /tmp/ccZePa4k.s 			page 140


 5031 02b2 BAF1000F 		cmp	r10, #0
 5032 02b6 0ED1     		bne	.L343
 5033 02b8 029B     		ldr	r3, [sp, #8]
 5034 02ba 63B9     		cbnz	r3, .L343
 257:../../libDaisy//src/dev/oled_ssd130x.h ****         else
 5035              		.loc 8 257 28 view .LVU1179
 5036 02bc D308     		lsrs	r3, r2, #3
 257:../../libDaisy//src/dev/oled_ssd130x.h ****         else
 5037              		.loc 8 257 54 view .LVU1180
 5038 02be 02F00707 		and	r7, r2, #7
 257:../../libDaisy//src/dev/oled_ssd130x.h ****         else
 5039              		.loc 8 257 48 view .LVU1181
 5040 02c2 0126     		movs	r6, #1
 257:../../libDaisy//src/dev/oled_ssd130x.h ****         else
 5041              		.loc 8 257 42 view .LVU1182
 5042 02c4 01EBC313 		add	r3, r1, r3, lsl #7
 5043 02c8 0344     		add	r3, r3, r0
 256:../../libDaisy//src/dev/oled_ssd130x.h ****             buffer_[x + (y / 8) * width] |= (1 << (y % 8));
 5044              		.loc 8 256 9 view .LVU1183
 5045 02ca 002D     		cmp	r5, #0
 5046 02cc 7CD0     		beq	.L344
 257:../../libDaisy//src/dev/oled_ssd130x.h ****         else
 5047              		.loc 8 257 48 view .LVU1184
 5048 02ce BE40     		lsls	r6, r6, r7
 257:../../libDaisy//src/dev/oled_ssd130x.h ****         else
 5049              		.loc 8 257 42 view .LVU1185
 5050 02d0 1F7D     		ldrb	r7, [r3, #20]	@ zero_extendqisi2
 5051 02d2 3E43     		orrs	r6, r6, r7
 5052 02d4 1E75     		strb	r6, [r3, #20]
 5053              	.L343:
 5054              	.LVL405:
 257:../../libDaisy//src/dev/oled_ssd130x.h ****         else
 5055              		.loc 8 257 42 view .LVU1186
 5056              	.LBE1281:
 5057              	.LBE1280:
 5058              	.LBE1279:
 239:../../libDaisy//src/hid/disp/display.h ****         {
 5059              		.loc 7 239 26 is_stmt 1 view .LVU1187
 5060 02d6 019B     		ldr	r3, [sp, #4]
 5061 02d8 002B     		cmp	r3, #0
 5062 02da 7FF4CDAE 		bne	.L301
 5063 02de 6646     		mov	r6, ip
 5064 02e0 0B46     		mov	r3, r1
 5065              	.LVL406:
 5066              	.L345:
 5067              	.LBB1286:
 5068              	.LBI1286:
  42:../../libDaisy//src/hid/disp/oled_display.h ****     {
 5069              		.loc 6 42 10 view .LVU1188
 5070              	.LBB1287:
 5071              	.LBI1287:
 252:../../libDaisy//src/dev/oled_ssd130x.h ****     {
 5072              		.loc 8 252 10 view .LVU1189
 5073              	.LBB1288:
 254:../../libDaisy//src/dev/oled_ssd130x.h ****             return;
 5074              		.loc 8 254 9 is_stmt 0 view .LVU1190
 5075 02e2 7F2B     		cmp	r3, #127
ARM GAS  /tmp/ccZePa4k.s 			page 141


 5076 02e4 12D8     		bhi	.L347
 254:../../libDaisy//src/dev/oled_ssd130x.h ****             return;
 5077              		.loc 8 254 9 view .LVU1191
 5078 02e6 3F2C     		cmp	r4, #63
 5079 02e8 10D8     		bhi	.L347
 257:../../libDaisy//src/dev/oled_ssd130x.h ****         else
 5080              		.loc 8 257 28 view .LVU1192
 5081 02ea E708     		lsrs	r7, r4, #3
 257:../../libDaisy//src/dev/oled_ssd130x.h ****         else
 5082              		.loc 8 257 54 view .LVU1193
 5083 02ec 04F0070A 		and	r10, r4, #7
 257:../../libDaisy//src/dev/oled_ssd130x.h ****         else
 5084              		.loc 8 257 48 view .LVU1194
 5085 02f0 4FF00109 		mov	r9, #1
 257:../../libDaisy//src/dev/oled_ssd130x.h ****         else
 5086              		.loc 8 257 42 view .LVU1195
 5087 02f4 03EBC717 		add	r7, r3, r7, lsl #7
 5088 02f8 0744     		add	r7, r7, r0
 256:../../libDaisy//src/dev/oled_ssd130x.h ****             buffer_[x + (y / 8) * width] |= (1 << (y % 8));
 5089              		.loc 8 256 9 view .LVU1196
 5090 02fa A5B3     		cbz	r5, .L348
 257:../../libDaisy//src/dev/oled_ssd130x.h ****         else
 5091              		.loc 8 257 48 view .LVU1197
 5092 02fc 09FA0AF9 		lsl	r9, r9, r10
 257:../../libDaisy//src/dev/oled_ssd130x.h ****         else
 5093              		.loc 8 257 42 view .LVU1198
 5094 0300 97F814A0 		ldrb	r10, [r7, #20]	@ zero_extendqisi2
 5095 0304 49EA0A09 		orr	r9, r9, r10
 5096 0308 87F81490 		strb	r9, [r7, #20]
 5097              	.L347:
 5098              	.LVL407:
 257:../../libDaisy//src/dev/oled_ssd130x.h ****         else
 5099              		.loc 8 257 42 view .LVU1199
 5100              	.LBE1288:
 5101              	.LBE1287:
 5102              	.LBE1286:
 243:../../libDaisy//src/hid/disp/display.h ****             {
 5103              		.loc 7 243 13 view .LVU1200
 5104 030c BCEB460F 		cmp	ip, r6, lsl #1
 242:../../libDaisy//src/hid/disp/display.h ****             if(error2 > -deltaY)
 5105              		.loc 7 242 20 view .LVU1201
 5106 0310 4FEA4607 		lsl	r7, r6, #1
 5107              	.LVL408:
 243:../../libDaisy//src/hid/disp/display.h ****             {
 5108              		.loc 7 243 13 view .LVU1202
 5109 0314 02DA     		bge	.L349
 245:../../libDaisy//src/hid/disp/display.h ****                 x1 += signX;
 5110              		.loc 7 245 23 view .LVU1203
 5111 0316 A6EB0E06 		sub	r6, r6, lr
 5112              	.LVL409:
 246:../../libDaisy//src/hid/disp/display.h ****             }
 5113              		.loc 7 246 20 view .LVU1204
 5114 031a 013B     		subs	r3, r3, #1
 5115              	.LVL410:
 5116              	.L349:
 249:../../libDaisy//src/hid/disp/display.h ****             {
 5117              		.loc 7 249 13 view .LVU1205
ARM GAS  /tmp/ccZePa4k.s 			page 142


 5118 031c 07B1     		cbz	r7, .L350
 252:../../libDaisy//src/hid/disp/display.h ****             }
 5119              		.loc 7 252 20 view .LVU1206
 5120 031e 4444     		add	r4, r4, r8
 5121              	.LVL411:
 5122              	.L350:
 239:../../libDaisy//src/hid/disp/display.h ****         {
 5123              		.loc 7 239 26 is_stmt 1 view .LVU1207
 5124 0320 9942     		cmp	r1, r3
 5125 0322 DED1     		bne	.L345
 239:../../libDaisy//src/hid/disp/display.h ****         {
 5126              		.loc 7 239 26 is_stmt 0 view .LVU1208
 5127 0324 A242     		cmp	r2, r4
 5128 0326 DCD1     		bne	.L345
 5129              	.LBE1278:
 5130              	.LBE1277:
 5131              	.LBE1330:
 281:../../libDaisy//src/hid/disp/display.h **** 
 5132              		.loc 7 281 5 view .LVU1209
 5133 0328 07B0     		add	sp, sp, #28
 5134              		.cfi_remember_state
 5135              		.cfi_def_cfa_offset 36
 5136              		@ sp needed
 5137 032a BDE8F08F 		pop	{r4, r5, r6, r7, r8, r9, r10, fp, pc}
 5138              	.LVL412:
 5139              	.L310:
 5140              		.cfi_restore_state
 5141              	.LBB1331:
 5142              	.LBB1297:
 5143              	.LBB1214:
 5144              	.LBB1210:
  42:../../libDaisy//src/hid/disp/oled_display.h ****     {
 5145              		.loc 6 42 10 is_stmt 1 view .LVU1210
 5146              	.LBB1199:
 252:../../libDaisy//src/dev/oled_ssd130x.h ****     {
 5147              		.loc 8 252 10 view .LVU1211
 5148              	.LBB1195:
 254:../../libDaisy//src/dev/oled_ssd130x.h ****             return;
 5149              		.loc 8 254 28 is_stmt 0 view .LVU1212
 5150 032e 3F2A     		cmp	r2, #63
 5151              	.LBE1195:
 5152              	.LBE1199:
 5153              	.LBE1210:
 229:../../libDaisy//src/hid/disp/display.h ****         int_fast16_t signY  = ((y1 < y2) ? 1 : -1);
 5154              		.loc 7 229 42 view .LVU1213
 5155 0330 4FF0010A 		mov	r10, #1
 5156              	.LBB1211:
 5157              	.LBB1200:
 5158              	.LBB1196:
 254:../../libDaisy//src/dev/oled_ssd130x.h ****             return;
 5159              		.loc 8 254 28 view .LVU1214
 5160 0334 94BF     		ite	ls
 5161 0336 0026     		movls	r6, #0
 5162 0338 0126     		movhi	r6, #1
 254:../../libDaisy//src/dev/oled_ssd130x.h ****             return;
 5163              		.loc 8 254 14 view .LVU1215
 5164 033a 7F2B     		cmp	r3, #127
ARM GAS  /tmp/ccZePa4k.s 			page 143


 254:../../libDaisy//src/dev/oled_ssd130x.h ****             return;
 5165              		.loc 8 254 28 view .LVU1216
 5166 033c 0296     		str	r6, [sp, #8]
 254:../../libDaisy//src/dev/oled_ssd130x.h ****             return;
 5167              		.loc 8 254 14 view .LVU1217
 5168 033e 94BF     		ite	ls
 5169 0340 0027     		movls	r7, #0
 5170 0342 0127     		movhi	r7, #1
 5171 0344 0097     		str	r7, [sp]
 254:../../libDaisy//src/dev/oled_ssd130x.h ****             return;
 5172              		.loc 8 254 9 view .LVU1218
 5173 0346 002E     		cmp	r6, #0
 5174 0348 7FF4C8AE 		bne	.L314
 5175 034c 002F     		cmp	r7, #0
 5176 034e 3FF4AEAE 		beq	.L352
 5177 0352 C3E6     		b	.L314
 5178              	.LVL413:
 5179              	.L339:
 254:../../libDaisy//src/dev/oled_ssd130x.h ****             return;
 5180              		.loc 8 254 9 view .LVU1219
 5181              	.LBE1196:
 5182              	.LBE1200:
 5183              	.LBE1211:
 5184              	.LBE1214:
 5185              	.LBE1297:
 5186              	.LBB1298:
 5187              	.LBB1275:
 5188              	.LBB1273:
 5189              	.LBB1272:
 5190              	.LBB1271:
 5191              	.LBB1269:
 5192              	.LBI1269:
 252:../../libDaisy//src/dev/oled_ssd130x.h ****     {
 5193              		.loc 8 252 10 is_stmt 1 view .LVU1220
 5194              	.LBB1270:
 259:../../libDaisy//src/dev/oled_ssd130x.h ****     }
 5195              		.loc 8 259 49 is_stmt 0 view .LVU1221
 5196 0354 08FA0BFB 		lsl	fp, r8, fp
 259:../../libDaisy//src/dev/oled_ssd130x.h ****     }
 5197              		.loc 8 259 42 view .LVU1222
 5198 0358 9CF81480 		ldrb	r8, [ip, #20]	@ zero_extendqisi2
 5199 035c 28EA0B08 		bic	r8, r8, fp
 5200 0360 8CF81480 		strb	r8, [ip, #20]
 5201 0364 8AE7     		b	.L338
 5202              	.LVL414:
 5203              	.L348:
 259:../../libDaisy//src/dev/oled_ssd130x.h ****     }
 5204              		.loc 8 259 42 view .LVU1223
 5205              	.LBE1270:
 5206              	.LBE1269:
 5207              	.LBE1271:
 5208              	.LBE1272:
 5209              	.LBE1273:
 5210              	.LBE1275:
 5211              	.LBE1298:
 5212              	.LBB1299:
 5213              	.LBB1295:
ARM GAS  /tmp/ccZePa4k.s 			page 144


 5214              	.LBB1293:
 5215              	.LBB1292:
 5216              	.LBB1291:
 5217              	.LBB1289:
 5218              	.LBI1289:
 252:../../libDaisy//src/dev/oled_ssd130x.h ****     {
 5219              		.loc 8 252 10 is_stmt 1 view .LVU1224
 5220              	.LBB1290:
 259:../../libDaisy//src/dev/oled_ssd130x.h ****     }
 5221              		.loc 8 259 49 is_stmt 0 view .LVU1225
 5222 0366 09FA0AFA 		lsl	r10, r9, r10
 259:../../libDaisy//src/dev/oled_ssd130x.h ****     }
 5223              		.loc 8 259 42 view .LVU1226
 5224 036a 97F81490 		ldrb	r9, [r7, #20]	@ zero_extendqisi2
 5225 036e 29EA0A09 		bic	r9, r9, r10
 5226 0372 87F81490 		strb	r9, [r7, #20]
 5227 0376 C9E7     		b	.L347
 5228              	.LVL415:
 5229              	.L318:
 259:../../libDaisy//src/dev/oled_ssd130x.h ****     }
 5230              		.loc 8 259 42 view .LVU1227
 5231              	.LBE1290:
 5232              	.LBE1289:
 5233              	.LBE1291:
 5234              	.LBE1292:
 5235              	.LBE1293:
 5236              	.LBE1295:
 5237              	.LBE1299:
 5238              	.LBB1300:
 5239              	.LBB1215:
 5240              	.LBB1212:
 5241              	.LBB1209:
 5242              	.LBB1208:
 5243              	.LBB1206:
 5244              	.LBI1206:
 252:../../libDaisy//src/dev/oled_ssd130x.h ****     {
 5245              		.loc 8 252 10 is_stmt 1 view .LVU1228
 5246              	.LBB1207:
 259:../../libDaisy//src/dev/oled_ssd130x.h ****     }
 5247              		.loc 8 259 49 is_stmt 0 view .LVU1229
 5248 0378 09FA0BFB 		lsl	fp, r9, fp
 259:../../libDaisy//src/dev/oled_ssd130x.h ****     }
 5249              		.loc 8 259 42 view .LVU1230
 5250 037c 97F81490 		ldrb	r9, [r7, #20]	@ zero_extendqisi2
 5251 0380 29EA0B09 		bic	r9, r9, fp
 5252 0384 87F81490 		strb	r9, [r7, #20]
 5253 0388 C5E6     		b	.L317
 5254              	.LVL416:
 5255              	.L329:
 259:../../libDaisy//src/dev/oled_ssd130x.h ****     }
 5256              		.loc 8 259 42 view .LVU1231
 5257              	.LBE1207:
 5258              	.LBE1206:
 5259              	.LBE1208:
 5260              	.LBE1209:
 5261              	.LBE1212:
 5262              	.LBE1215:
ARM GAS  /tmp/ccZePa4k.s 			page 145


 5263              	.LBE1300:
 5264              	.LBB1301:
 5265              	.LBB1251:
 5266              	.LBB1248:
 5267              	.LBB1247:
 5268              	.LBB1246:
 5269              	.LBB1244:
 5270              	.LBI1244:
 252:../../libDaisy//src/dev/oled_ssd130x.h ****     {
 5271              		.loc 8 252 10 is_stmt 1 view .LVU1232
 5272              	.LBB1245:
 259:../../libDaisy//src/dev/oled_ssd130x.h ****     }
 5273              		.loc 8 259 49 is_stmt 0 view .LVU1233
 5274 038a 0AFA0BFB 		lsl	fp, r10, fp
 259:../../libDaisy//src/dev/oled_ssd130x.h ****     }
 5275              		.loc 8 259 42 view .LVU1234
 5276 038e 9EF814A0 		ldrb	r10, [lr, #20]	@ zero_extendqisi2
 5277 0392 2AEA0B0A 		bic	r10, r10, fp
 5278 0396 8EF814A0 		strb	r10, [lr, #20]
 5279 039a 18E7     		b	.L328
 5280              	.LVL417:
 5281              	.L321:
 259:../../libDaisy//src/dev/oled_ssd130x.h ****     }
 5282              		.loc 8 259 42 view .LVU1235
 5283              	.LBE1245:
 5284              	.LBE1244:
 5285              	.LBE1246:
 5286              	.LBE1247:
 5287              	.LBE1248:
 5288              	.LBB1249:
 5289              	.LBB1235:
 5290              	.LBB1229:
 254:../../libDaisy//src/dev/oled_ssd130x.h ****             return;
 5291              		.loc 8 254 9 view .LVU1236
 5292 039c 97BB     		cbnz	r7, .L360
 5293 039e 8EBB     		cbnz	r6, .L360
 5294              	.LBE1229:
 5295              	.LBE1235:
 5296              	.LBE1249:
 230:../../libDaisy//src/hid/disp/display.h ****         int_fast16_t error  = deltaX - deltaY;
 5297              		.loc 7 230 42 view .LVU1237
 5298 03a0 0126     		movs	r6, #1
 5299 03a2 0096     		str	r6, [sp]
 5300              	.LBB1250:
 5301              	.LBB1236:
 5302              	.LBB1230:
 257:../../libDaisy//src/dev/oled_ssd130x.h ****         else
 5303              		.loc 8 257 28 view .LVU1238
 5304 03a4 E608     		lsrs	r6, r4, #3
 257:../../libDaisy//src/dev/oled_ssd130x.h ****         else
 5305              		.loc 8 257 42 view .LVU1239
 5306 03a6 03EBC616 		add	r6, r3, r6, lsl #7
 5307 03aa 0644     		add	r6, r6, r0
 256:../../libDaisy//src/dev/oled_ssd130x.h ****             buffer_[x + (y / 8) * width] |= (1 << (y % 8));
 5308              		.loc 8 256 9 view .LVU1240
 5309 03ac 002D     		cmp	r5, #0
 5310 03ae 7FF4E2AE 		bne	.L395
ARM GAS  /tmp/ccZePa4k.s 			page 146


 5311              	.LVL418:
 5312              	.L323:
 5313              	.LBB1223:
 5314              	.LBI1223:
 252:../../libDaisy//src/dev/oled_ssd130x.h ****     {
 5315              		.loc 8 252 10 is_stmt 1 view .LVU1241
 5316              	.LBB1224:
 259:../../libDaisy//src/dev/oled_ssd130x.h ****     }
 5317              		.loc 8 259 49 is_stmt 0 view .LVU1242
 5318 03b2 0127     		movs	r7, #1
 259:../../libDaisy//src/dev/oled_ssd130x.h ****     }
 5319              		.loc 8 259 55 view .LVU1243
 5320 03b4 04F0070C 		and	ip, r4, #7
 259:../../libDaisy//src/dev/oled_ssd130x.h ****     }
 5321              		.loc 8 259 42 view .LVU1244
 5322 03b8 0395     		str	r5, [sp, #12]
 259:../../libDaisy//src/dev/oled_ssd130x.h ****     }
 5323              		.loc 8 259 49 view .LVU1245
 5324 03ba 07FA0CFC 		lsl	ip, r7, ip
 259:../../libDaisy//src/dev/oled_ssd130x.h ****     }
 5325              		.loc 8 259 42 view .LVU1246
 5326 03be 377D     		ldrb	r7, [r6, #20]	@ zero_extendqisi2
 5327 03c0 27EA0C07 		bic	r7, r7, ip
 5328 03c4 3775     		strb	r7, [r6, #20]
 5329 03c6 E3E6     		b	.L322
 5330              	.LVL419:
 5331              	.L344:
 259:../../libDaisy//src/dev/oled_ssd130x.h ****     }
 5332              		.loc 8 259 42 view .LVU1247
 5333              	.LBE1224:
 5334              	.LBE1223:
 5335              	.LBE1230:
 5336              	.LBE1236:
 5337              	.LBE1250:
 5338              	.LBE1251:
 5339              	.LBE1301:
 5340              	.LBB1302:
 5341              	.LBB1296:
 5342              	.LBB1294:
 5343              	.LBB1285:
 5344              	.LBB1284:
 5345              	.LBB1282:
 5346              	.LBI1282:
 252:../../libDaisy//src/dev/oled_ssd130x.h ****     {
 5347              		.loc 8 252 10 is_stmt 1 view .LVU1248
 5348              	.LBB1283:
 259:../../libDaisy//src/dev/oled_ssd130x.h ****     }
 5349              		.loc 8 259 49 is_stmt 0 view .LVU1249
 5350 03c8 06FA07F7 		lsl	r7, r6, r7
 259:../../libDaisy//src/dev/oled_ssd130x.h ****     }
 5351              		.loc 8 259 42 view .LVU1250
 5352 03cc 1E7D     		ldrb	r6, [r3, #20]	@ zero_extendqisi2
 5353 03ce 26EA0706 		bic	r6, r6, r7
 5354 03d2 1E75     		strb	r6, [r3, #20]
 5355 03d4 7FE7     		b	.L343
 5356              	.LVL420:
 5357              	.L334:
ARM GAS  /tmp/ccZePa4k.s 			page 147


 259:../../libDaisy//src/dev/oled_ssd130x.h ****     }
 5358              		.loc 8 259 42 view .LVU1251
 5359              	.LBE1283:
 5360              	.LBE1282:
 5361              	.LBE1284:
 5362              	.LBE1285:
 5363              	.LBE1294:
 5364              	.LBE1296:
 5365              	.LBE1302:
 5366              	.LBB1303:
 5367              	.LBB1276:
 5368              	.LBB1274:
 5369              	.LBB1264:
 5370              	.LBB1262:
 5371              	.LBB1259:
 5372              	.LBI1259:
 252:../../libDaisy//src/dev/oled_ssd130x.h ****     {
 5373              		.loc 8 252 10 is_stmt 1 view .LVU1252
 5374              	.LBB1260:
 259:../../libDaisy//src/dev/oled_ssd130x.h ****     }
 5375              		.loc 8 259 49 is_stmt 0 view .LVU1253
 5376 03d6 0127     		movs	r7, #1
 259:../../libDaisy//src/dev/oled_ssd130x.h ****     }
 5377              		.loc 8 259 55 view .LVU1254
 5378 03d8 04F0070C 		and	ip, r4, #7
 259:../../libDaisy//src/dev/oled_ssd130x.h ****     }
 5379              		.loc 8 259 49 view .LVU1255
 5380 03dc 07FA0CFC 		lsl	ip, r7, ip
 259:../../libDaisy//src/dev/oled_ssd130x.h ****     }
 5381              		.loc 8 259 42 view .LVU1256
 5382 03e0 377D     		ldrb	r7, [r6, #20]	@ zero_extendqisi2
 5383 03e2 27EA0C07 		bic	r7, r7, ip
 5384 03e6 3775     		strb	r7, [r6, #20]
 5385 03e8 2DE7     		b	.L333
 5386              	.LVL421:
 5387              	.L312:
 259:../../libDaisy//src/dev/oled_ssd130x.h ****     }
 5388              		.loc 8 259 42 view .LVU1257
 5389              	.LBE1260:
 5390              	.LBE1259:
 5391              	.LBE1262:
 5392              	.LBE1264:
 5393              	.LBE1274:
 5394              	.LBE1276:
 5395              	.LBE1303:
 5396              	.LBB1304:
 5397              	.LBB1216:
 5398              	.LBB1213:
 5399              	.LBB1201:
 5400              	.LBB1197:
 5401              	.LBB1192:
 5402              	.LBI1192:
 252:../../libDaisy//src/dev/oled_ssd130x.h ****     {
 5403              		.loc 8 252 10 is_stmt 1 view .LVU1258
 5404              	.LBB1193:
 259:../../libDaisy//src/dev/oled_ssd130x.h ****     }
 5405              		.loc 8 259 49 is_stmt 0 view .LVU1259
ARM GAS  /tmp/ccZePa4k.s 			page 148


 5406 03ea 07FA0CFC 		lsl	ip, r7, ip
 259:../../libDaisy//src/dev/oled_ssd130x.h ****     }
 5407              		.loc 8 259 42 view .LVU1260
 5408 03ee 377D     		ldrb	r7, [r6, #20]	@ zero_extendqisi2
 5409 03f0 0295     		str	r5, [sp, #8]
 5410 03f2 27EA0C07 		bic	r7, r7, ip
 5411 03f6 0095     		str	r5, [sp]
 5412 03f8 3775     		strb	r7, [r6, #20]
 5413 03fa 6CE6     		b	.L311
 5414              	.LVL422:
 5415              	.L356:
 259:../../libDaisy//src/dev/oled_ssd130x.h ****     }
 5416              		.loc 8 259 42 view .LVU1261
 5417              	.LBE1193:
 5418              	.LBE1192:
 5419              	.LBE1197:
 5420              	.LBE1201:
 5421              	.LBE1213:
 5422              	.LBE1216:
 5423              	.LBE1304:
 5424              	.LBB1305:
 5425              	.LBB1252:
 230:../../libDaisy//src/hid/disp/display.h ****         int_fast16_t error  = deltaX - deltaY;
 5426              		.loc 7 230 42 view .LVU1262
 5427 03fc 4FF0FF36 		mov	r6, #-1
 5428 0400 0096     		str	r6, [sp]
 5429 0402 C5E6     		b	.L322
 5430              	.LVL423:
 5431              	.L360:
 230:../../libDaisy//src/hid/disp/display.h ****         int_fast16_t error  = deltaX - deltaY;
 5432              		.loc 7 230 42 view .LVU1263
 5433 0404 0126     		movs	r6, #1
 5434 0406 0096     		str	r6, [sp]
 5435 0408 C5E6     		b	.L325
 5436              	.LVL424:
 5437              	.L393:
 230:../../libDaisy//src/hid/disp/display.h ****         int_fast16_t error  = deltaX - deltaY;
 5438              		.loc 7 230 42 view .LVU1264
 5439              	.LBE1252:
 5440              	.LBE1305:
 5441              	.LBB1306:
 5442              	.LBB1217:
 239:../../libDaisy//src/hid/disp/display.h ****         {
 5443              		.loc 7 239 19 view .LVU1265
 5444 040a 0126     		movs	r6, #1
 5445 040c 0496     		str	r6, [sp, #16]
 5446 040e 90E6     		b	.L313
 5447              	.LVL425:
 5448              	.L394:
 239:../../libDaisy//src/hid/disp/display.h ****         {
 5449              		.loc 7 239 19 view .LVU1266
 5450              	.LBE1217:
 5451              	.LBE1306:
 5452              	.LBB1307:
 5453              	.LBB1253:
 239:../../libDaisy//src/hid/disp/display.h ****         {
 5454              		.loc 7 239 33 view .LVU1267
ARM GAS  /tmp/ccZePa4k.s 			page 149


 5455 0410 0126     		movs	r6, #1
 5456 0412 0196     		str	r6, [sp, #4]
 5457 0414 EDE6     		b	.L324
 5458              	.LBE1253:
 5459              	.LBE1307:
 5460              	.LBE1331:
 5461              		.cfi_endproc
 5462              	.LFE2603:
 5464 0416 00BF     		.section	.text._ZN5daisy13SSD130xDriverILj128ELj64ENS_24SSD130x4WireSpiTransportEE4InitENS2_6Confi
 5465              		.align	1
 5466              		.p2align 2,,3
 5467              		.weak	_ZN5daisy13SSD130xDriverILj128ELj64ENS_24SSD130x4WireSpiTransportEE4InitENS2_6ConfigE
 5468              		.syntax unified
 5469              		.thumb
 5470              		.thumb_func
 5472              	_ZN5daisy13SSD130xDriverILj128ELj64ENS_24SSD130x4WireSpiTransportEE4InitENS2_6ConfigE:
 5473              	.LVL426:
 5474              	.LFB2591:
 153:../../libDaisy//src/dev/oled_ssd130x.h ****     {
 5475              		.loc 8 153 10 is_stmt 1 view -0
 5476              		.cfi_startproc
 5477              		@ args = 48, pretend = 16, frame = 8
 5478              		@ frame_needed = 0, uses_anonymous_args = 0
 153:../../libDaisy//src/dev/oled_ssd130x.h ****     {
 5479              		.loc 8 153 10 is_stmt 0 view .LVU1269
 5480 0000 84B0     		sub	sp, sp, #16
 5481              		.cfi_def_cfa_offset 16
 5482 0002 2DE9F041 		push	{r4, r5, r6, r7, r8, lr}
 5483              		.cfi_def_cfa_offset 40
 5484              		.cfi_offset 4, -40
 5485              		.cfi_offset 5, -36
 5486              		.cfi_offset 6, -32
 5487              		.cfi_offset 7, -28
 5488              		.cfi_offset 8, -24
 5489              		.cfi_offset 14, -20
 5490 0006 82B0     		sub	sp, sp, #8
 5491              		.cfi_def_cfa_offset 48
 5492              	.LBB1380:
 5493              	.LBB1381:
 106:../../libDaisy//src/dev/oled_ssd130x.h ****         pin_dc_.pin  = config.pin_config.dc;
 5494              		.loc 8 106 22 view .LVU1270
 5495 0008 0125     		movs	r5, #1
 107:../../libDaisy//src/dev/oled_ssd130x.h ****         dsy_gpio_init(&pin_dc_);
 5496              		.loc 8 107 22 view .LVU1271
 5497 000a 0646     		mov	r6, r0
 5498              	.LBE1381:
 5499              	.LBE1380:
 153:../../libDaisy//src/dev/oled_ssd130x.h ****     {
 5500              		.loc 8 153 10 view .LVU1272
 5501 000c 0446     		mov	r4, r0
 5502              	.LVL427:
 5503              	.LBB1385:
 5504              	.LBI1380:
 103:../../libDaisy//src/dev/oled_ssd130x.h ****     {
 5505              		.loc 8 103 10 is_stmt 1 view .LVU1273
 5506              	.LBB1382:
 106:../../libDaisy//src/dev/oled_ssd130x.h ****         pin_dc_.pin  = config.pin_config.dc;
ARM GAS  /tmp/ccZePa4k.s 			page 150


 5507              		.loc 8 106 9 view .LVU1274
 5508              	.LBE1382:
 5509              	.LBE1385:
 153:../../libDaisy//src/dev/oled_ssd130x.h ****     {
 5510              		.loc 8 153 10 is_stmt 0 view .LVU1275
 5511 000e 0DF12408 		add	r8, sp, #36
 5512              	.LBB1386:
 5513              	.LBB1383:
 106:../../libDaisy//src/dev/oled_ssd130x.h ****         pin_dc_.pin  = config.pin_config.dc;
 5514              		.loc 8 106 22 view .LVU1276
 5515 0012 8572     		strb	r5, [r0, #10]
 107:../../libDaisy//src/dev/oled_ssd130x.h ****         dsy_gpio_init(&pin_dc_);
 5516              		.loc 8 107 9 is_stmt 1 view .LVU1277
 110:../../libDaisy//src/dev/oled_ssd130x.h ****         dsy_gpio_init(&pin_reset_);
 5517              		.loc 8 110 25 is_stmt 0 view .LVU1278
 5518 0014 2746     		mov	r7, r4
 5519              	.LBE1383:
 5520              	.LBE1386:
 153:../../libDaisy//src/dev/oled_ssd130x.h ****     {
 5521              		.loc 8 153 10 view .LVU1279
 5522 0016 88E80E00 		stm	r8, {r1, r2, r3}
 5523              	.LBB1387:
 5524              	.LBB1384:
 107:../../libDaisy//src/dev/oled_ssd130x.h ****         dsy_gpio_init(&pin_dc_);
 5525              		.loc 8 107 22 view .LVU1280
 5526 001a BDF84C30 		ldrh	r3, [sp, #76]
 5527 001e 26F8083F 		strh	r3, [r6, #8]!	@ movhi
 108:../../libDaisy//src/dev/oled_ssd130x.h ****         pin_reset_.mode = DSY_GPIO_MODE_OUTPUT_PP;
 5528              		.loc 8 108 9 is_stmt 1 view .LVU1281
 108:../../libDaisy//src/dev/oled_ssd130x.h ****         pin_reset_.mode = DSY_GPIO_MODE_OUTPUT_PP;
 5529              		.loc 8 108 22 is_stmt 0 view .LVU1282
 5530 0022 3046     		mov	r0, r6
 5531              	.LVL428:
 108:../../libDaisy//src/dev/oled_ssd130x.h ****         pin_reset_.mode = DSY_GPIO_MODE_OUTPUT_PP;
 5532              		.loc 8 108 22 view .LVU1283
 5533 0024 FFF7FEFF 		bl	dsy_gpio_init
 5534              	.LVL429:
 109:../../libDaisy//src/dev/oled_ssd130x.h ****         pin_reset_.pin  = config.pin_config.reset;
 5535              		.loc 8 109 9 is_stmt 1 view .LVU1284
 110:../../libDaisy//src/dev/oled_ssd130x.h ****         dsy_gpio_init(&pin_reset_);
 5536              		.loc 8 110 25 is_stmt 0 view .LVU1285
 5537 0028 BDF84E30 		ldrh	r3, [sp, #78]
 109:../../libDaisy//src/dev/oled_ssd130x.h ****         pin_reset_.pin  = config.pin_config.reset;
 5538              		.loc 8 109 25 view .LVU1286
 5539 002c A571     		strb	r5, [r4, #6]
 110:../../libDaisy//src/dev/oled_ssd130x.h ****         dsy_gpio_init(&pin_reset_);
 5540              		.loc 8 110 9 is_stmt 1 view .LVU1287
 110:../../libDaisy//src/dev/oled_ssd130x.h ****         dsy_gpio_init(&pin_reset_);
 5541              		.loc 8 110 25 is_stmt 0 view .LVU1288
 5542 002e 27F8043F 		strh	r3, [r7, #4]!	@ movhi
 111:../../libDaisy//src/dev/oled_ssd130x.h **** 
 5543              		.loc 8 111 9 is_stmt 1 view .LVU1289
 111:../../libDaisy//src/dev/oled_ssd130x.h **** 
 5544              		.loc 8 111 22 is_stmt 0 view .LVU1290
 5545 0032 3846     		mov	r0, r7
 5546 0034 FFF7FEFF 		bl	dsy_gpio_init
 5547              	.LVL430:
ARM GAS  /tmp/ccZePa4k.s 			page 151


 114:../../libDaisy//src/dev/oled_ssd130x.h **** 
 5548              		.loc 8 114 9 is_stmt 1 view .LVU1291
 114:../../libDaisy//src/dev/oled_ssd130x.h **** 
 5549              		.loc 8 114 18 is_stmt 0 view .LVU1292
 5550 0038 4146     		mov	r1, r8
 5551 003a 2046     		mov	r0, r4
 5552 003c FFF7FEFF 		bl	_ZN5daisy9SpiHandle4InitERKNS0_6ConfigE
 5553              	.LVL431:
 117:../../libDaisy//src/dev/oled_ssd130x.h ****         System::Delay(10);
 5554              		.loc 8 117 9 is_stmt 1 view .LVU1293
 117:../../libDaisy//src/dev/oled_ssd130x.h ****         System::Delay(10);
 5555              		.loc 8 117 23 is_stmt 0 view .LVU1294
 5556 0040 0021     		movs	r1, #0
 5557 0042 3846     		mov	r0, r7
 5558 0044 FFF7FEFF 		bl	dsy_gpio_write
 5559              	.LVL432:
 118:../../libDaisy//src/dev/oled_ssd130x.h ****         dsy_gpio_write(&pin_reset_, 1);
 5560              		.loc 8 118 9 is_stmt 1 view .LVU1295
 118:../../libDaisy//src/dev/oled_ssd130x.h ****         dsy_gpio_write(&pin_reset_, 1);
 5561              		.loc 8 118 22 is_stmt 0 view .LVU1296
 5562 0048 0A20     		movs	r0, #10
 5563 004a FFF7FEFF 		bl	_ZN5daisy6System5DelayEm
 5564              	.LVL433:
 119:../../libDaisy//src/dev/oled_ssd130x.h ****         System::Delay(10);
 5565              		.loc 8 119 9 is_stmt 1 view .LVU1297
 119:../../libDaisy//src/dev/oled_ssd130x.h ****         System::Delay(10);
 5566              		.loc 8 119 23 is_stmt 0 view .LVU1298
 5567 004e 2946     		mov	r1, r5
 5568 0050 3846     		mov	r0, r7
 5569 0052 FFF7FEFF 		bl	dsy_gpio_write
 5570              	.LVL434:
 120:../../libDaisy//src/dev/oled_ssd130x.h ****     };
 5571              		.loc 8 120 9 is_stmt 1 view .LVU1299
 120:../../libDaisy//src/dev/oled_ssd130x.h ****     };
 5572              		.loc 8 120 22 is_stmt 0 view .LVU1300
 5573 0056 0A20     		movs	r0, #10
 5574 0058 FFF7FEFF 		bl	_ZN5daisy6System5DelayEm
 5575              	.LVL435:
 120:../../libDaisy//src/dev/oled_ssd130x.h ****     };
 5576              		.loc 8 120 22 view .LVU1301
 5577 005c AE23     		movs	r3, #174
 5578              	.LBE1384:
 5579              	.LBE1387:
 5580              	.LBB1388:
 5581              	.LBB1389:
 124:../../libDaisy//src/dev/oled_ssd130x.h ****         spi_.BlockingTransmit(&cmd, 1);
 5582              		.loc 8 124 23 view .LVU1302
 5583 005e 3046     		mov	r0, r6
 5584 0060 0021     		movs	r1, #0
 5585 0062 8DF80730 		strb	r3, [sp, #7]
 5586              	.LVL436:
 124:../../libDaisy//src/dev/oled_ssd130x.h ****         spi_.BlockingTransmit(&cmd, 1);
 5587              		.loc 8 124 23 view .LVU1303
 5588              	.LBE1389:
 5589              	.LBI1388:
 122:../../libDaisy//src/dev/oled_ssd130x.h ****     {
 5590              		.loc 8 122 10 is_stmt 1 view .LVU1304
ARM GAS  /tmp/ccZePa4k.s 			page 152


 5591              	.LBB1390:
 124:../../libDaisy//src/dev/oled_ssd130x.h ****         spi_.BlockingTransmit(&cmd, 1);
 5592              		.loc 8 124 9 view .LVU1305
 124:../../libDaisy//src/dev/oled_ssd130x.h ****         spi_.BlockingTransmit(&cmd, 1);
 5593              		.loc 8 124 23 is_stmt 0 view .LVU1306
 5594 0066 FFF7FEFF 		bl	dsy_gpio_write
 5595              	.LVL437:
 125:../../libDaisy//src/dev/oled_ssd130x.h ****     };
 5596              		.loc 8 125 9 is_stmt 1 view .LVU1307
 125:../../libDaisy//src/dev/oled_ssd130x.h ****     };
 5597              		.loc 8 125 30 is_stmt 0 view .LVU1308
 5598 006a 2A46     		mov	r2, r5
 5599 006c 0DF10701 		add	r1, sp, #7
 5600 0070 6423     		movs	r3, #100
 5601 0072 2046     		mov	r0, r4
 5602 0074 FFF7FEFF 		bl	_ZN5daisy9SpiHandle16BlockingTransmitEPhjm
 5603              	.LVL438:
 125:../../libDaisy//src/dev/oled_ssd130x.h ****     };
 5604              		.loc 8 125 30 view .LVU1309
 5605 0078 D523     		movs	r3, #213
 5606              	.LBE1390:
 5607              	.LBE1388:
 5608              	.LBB1391:
 5609              	.LBB1392:
 124:../../libDaisy//src/dev/oled_ssd130x.h ****         spi_.BlockingTransmit(&cmd, 1);
 5610              		.loc 8 124 23 view .LVU1310
 5611 007a 3046     		mov	r0, r6
 5612 007c 0021     		movs	r1, #0
 5613 007e 8DF80730 		strb	r3, [sp, #7]
 5614              	.LVL439:
 124:../../libDaisy//src/dev/oled_ssd130x.h ****         spi_.BlockingTransmit(&cmd, 1);
 5615              		.loc 8 124 23 view .LVU1311
 5616              	.LBE1392:
 5617              	.LBI1391:
 122:../../libDaisy//src/dev/oled_ssd130x.h ****     {
 5618              		.loc 8 122 10 is_stmt 1 view .LVU1312
 5619              	.LBB1393:
 124:../../libDaisy//src/dev/oled_ssd130x.h ****         spi_.BlockingTransmit(&cmd, 1);
 5620              		.loc 8 124 9 view .LVU1313
 124:../../libDaisy//src/dev/oled_ssd130x.h ****         spi_.BlockingTransmit(&cmd, 1);
 5621              		.loc 8 124 23 is_stmt 0 view .LVU1314
 5622 0082 FFF7FEFF 		bl	dsy_gpio_write
 5623              	.LVL440:
 125:../../libDaisy//src/dev/oled_ssd130x.h ****     };
 5624              		.loc 8 125 9 is_stmt 1 view .LVU1315
 125:../../libDaisy//src/dev/oled_ssd130x.h ****     };
 5625              		.loc 8 125 30 is_stmt 0 view .LVU1316
 5626 0086 2A46     		mov	r2, r5
 5627 0088 0DF10701 		add	r1, sp, #7
 5628 008c 6423     		movs	r3, #100
 5629 008e 2046     		mov	r0, r4
 5630 0090 FFF7FEFF 		bl	_ZN5daisy9SpiHandle16BlockingTransmitEPhjm
 5631              	.LVL441:
 125:../../libDaisy//src/dev/oled_ssd130x.h ****     };
 5632              		.loc 8 125 30 view .LVU1317
 5633 0094 8023     		movs	r3, #128
 5634              	.LBE1393:
ARM GAS  /tmp/ccZePa4k.s 			page 153


 5635              	.LBE1391:
 5636              	.LBB1394:
 5637              	.LBB1395:
 124:../../libDaisy//src/dev/oled_ssd130x.h ****         spi_.BlockingTransmit(&cmd, 1);
 5638              		.loc 8 124 23 view .LVU1318
 5639 0096 3046     		mov	r0, r6
 5640 0098 0021     		movs	r1, #0
 5641 009a 8DF80730 		strb	r3, [sp, #7]
 5642              	.LVL442:
 124:../../libDaisy//src/dev/oled_ssd130x.h ****         spi_.BlockingTransmit(&cmd, 1);
 5643              		.loc 8 124 23 view .LVU1319
 5644              	.LBE1395:
 5645              	.LBI1394:
 122:../../libDaisy//src/dev/oled_ssd130x.h ****     {
 5646              		.loc 8 122 10 is_stmt 1 view .LVU1320
 5647              	.LBB1396:
 124:../../libDaisy//src/dev/oled_ssd130x.h ****         spi_.BlockingTransmit(&cmd, 1);
 5648              		.loc 8 124 9 view .LVU1321
 124:../../libDaisy//src/dev/oled_ssd130x.h ****         spi_.BlockingTransmit(&cmd, 1);
 5649              		.loc 8 124 23 is_stmt 0 view .LVU1322
 5650 009e FFF7FEFF 		bl	dsy_gpio_write
 5651              	.LVL443:
 125:../../libDaisy//src/dev/oled_ssd130x.h ****     };
 5652              		.loc 8 125 9 is_stmt 1 view .LVU1323
 125:../../libDaisy//src/dev/oled_ssd130x.h ****     };
 5653              		.loc 8 125 30 is_stmt 0 view .LVU1324
 5654 00a2 2A46     		mov	r2, r5
 5655 00a4 0DF10701 		add	r1, sp, #7
 5656 00a8 6423     		movs	r3, #100
 5657 00aa 2046     		mov	r0, r4
 5658 00ac FFF7FEFF 		bl	_ZN5daisy9SpiHandle16BlockingTransmitEPhjm
 5659              	.LVL444:
 125:../../libDaisy//src/dev/oled_ssd130x.h ****     };
 5660              		.loc 8 125 30 view .LVU1325
 5661 00b0 A823     		movs	r3, #168
 5662              	.LBE1396:
 5663              	.LBE1394:
 5664              	.LBB1397:
 5665              	.LBB1398:
 124:../../libDaisy//src/dev/oled_ssd130x.h ****         spi_.BlockingTransmit(&cmd, 1);
 5666              		.loc 8 124 23 view .LVU1326
 5667 00b2 3046     		mov	r0, r6
 5668 00b4 0021     		movs	r1, #0
 5669 00b6 8DF80730 		strb	r3, [sp, #7]
 5670              	.LVL445:
 124:../../libDaisy//src/dev/oled_ssd130x.h ****         spi_.BlockingTransmit(&cmd, 1);
 5671              		.loc 8 124 23 view .LVU1327
 5672              	.LBE1398:
 5673              	.LBI1397:
 122:../../libDaisy//src/dev/oled_ssd130x.h ****     {
 5674              		.loc 8 122 10 is_stmt 1 view .LVU1328
 5675              	.LBB1399:
 124:../../libDaisy//src/dev/oled_ssd130x.h ****         spi_.BlockingTransmit(&cmd, 1);
 5676              		.loc 8 124 9 view .LVU1329
 124:../../libDaisy//src/dev/oled_ssd130x.h ****         spi_.BlockingTransmit(&cmd, 1);
 5677              		.loc 8 124 23 is_stmt 0 view .LVU1330
 5678 00ba FFF7FEFF 		bl	dsy_gpio_write
ARM GAS  /tmp/ccZePa4k.s 			page 154


 5679              	.LVL446:
 125:../../libDaisy//src/dev/oled_ssd130x.h ****     };
 5680              		.loc 8 125 9 is_stmt 1 view .LVU1331
 125:../../libDaisy//src/dev/oled_ssd130x.h ****     };
 5681              		.loc 8 125 30 is_stmt 0 view .LVU1332
 5682 00be 2A46     		mov	r2, r5
 5683 00c0 0DF10701 		add	r1, sp, #7
 5684 00c4 6423     		movs	r3, #100
 5685 00c6 2046     		mov	r0, r4
 5686 00c8 FFF7FEFF 		bl	_ZN5daisy9SpiHandle16BlockingTransmitEPhjm
 5687              	.LVL447:
 125:../../libDaisy//src/dev/oled_ssd130x.h ****     };
 5688              		.loc 8 125 30 view .LVU1333
 5689 00cc 3F23     		movs	r3, #63
 5690              	.LBE1399:
 5691              	.LBE1397:
 5692              	.LBB1400:
 5693              	.LBB1401:
 124:../../libDaisy//src/dev/oled_ssd130x.h ****         spi_.BlockingTransmit(&cmd, 1);
 5694              		.loc 8 124 23 view .LVU1334
 5695 00ce 3046     		mov	r0, r6
 5696 00d0 0021     		movs	r1, #0
 5697 00d2 8DF80730 		strb	r3, [sp, #7]
 5698              	.LVL448:
 124:../../libDaisy//src/dev/oled_ssd130x.h ****         spi_.BlockingTransmit(&cmd, 1);
 5699              		.loc 8 124 23 view .LVU1335
 5700              	.LBE1401:
 5701              	.LBI1400:
 122:../../libDaisy//src/dev/oled_ssd130x.h ****     {
 5702              		.loc 8 122 10 is_stmt 1 view .LVU1336
 5703              	.LBB1402:
 124:../../libDaisy//src/dev/oled_ssd130x.h ****         spi_.BlockingTransmit(&cmd, 1);
 5704              		.loc 8 124 9 view .LVU1337
 124:../../libDaisy//src/dev/oled_ssd130x.h ****         spi_.BlockingTransmit(&cmd, 1);
 5705              		.loc 8 124 23 is_stmt 0 view .LVU1338
 5706 00d6 FFF7FEFF 		bl	dsy_gpio_write
 5707              	.LVL449:
 125:../../libDaisy//src/dev/oled_ssd130x.h ****     };
 5708              		.loc 8 125 9 is_stmt 1 view .LVU1339
 125:../../libDaisy//src/dev/oled_ssd130x.h ****     };
 5709              		.loc 8 125 30 is_stmt 0 view .LVU1340
 5710 00da 2A46     		mov	r2, r5
 5711 00dc 0DF10701 		add	r1, sp, #7
 5712 00e0 6423     		movs	r3, #100
 5713 00e2 2046     		mov	r0, r4
 5714 00e4 FFF7FEFF 		bl	_ZN5daisy9SpiHandle16BlockingTransmitEPhjm
 5715              	.LVL450:
 125:../../libDaisy//src/dev/oled_ssd130x.h ****     };
 5716              		.loc 8 125 30 view .LVU1341
 5717 00e8 DA23     		movs	r3, #218
 5718              	.LBE1402:
 5719              	.LBE1400:
 5720              	.LBB1403:
 5721              	.LBB1404:
 124:../../libDaisy//src/dev/oled_ssd130x.h ****         spi_.BlockingTransmit(&cmd, 1);
 5722              		.loc 8 124 23 view .LVU1342
 5723 00ea 3046     		mov	r0, r6
ARM GAS  /tmp/ccZePa4k.s 			page 155


 5724 00ec 0021     		movs	r1, #0
 5725 00ee 8DF80730 		strb	r3, [sp, #7]
 5726              	.LVL451:
 124:../../libDaisy//src/dev/oled_ssd130x.h ****         spi_.BlockingTransmit(&cmd, 1);
 5727              		.loc 8 124 23 view .LVU1343
 5728              	.LBE1404:
 5729              	.LBI1403:
 122:../../libDaisy//src/dev/oled_ssd130x.h ****     {
 5730              		.loc 8 122 10 is_stmt 1 view .LVU1344
 5731              	.LBB1405:
 124:../../libDaisy//src/dev/oled_ssd130x.h ****         spi_.BlockingTransmit(&cmd, 1);
 5732              		.loc 8 124 9 view .LVU1345
 124:../../libDaisy//src/dev/oled_ssd130x.h ****         spi_.BlockingTransmit(&cmd, 1);
 5733              		.loc 8 124 23 is_stmt 0 view .LVU1346
 5734 00f2 FFF7FEFF 		bl	dsy_gpio_write
 5735              	.LVL452:
 125:../../libDaisy//src/dev/oled_ssd130x.h ****     };
 5736              		.loc 8 125 9 is_stmt 1 view .LVU1347
 125:../../libDaisy//src/dev/oled_ssd130x.h ****     };
 5737              		.loc 8 125 30 is_stmt 0 view .LVU1348
 5738 00f6 2A46     		mov	r2, r5
 5739 00f8 0DF10701 		add	r1, sp, #7
 5740 00fc 6423     		movs	r3, #100
 5741 00fe 2046     		mov	r0, r4
 5742 0100 FFF7FEFF 		bl	_ZN5daisy9SpiHandle16BlockingTransmitEPhjm
 5743              	.LVL453:
 125:../../libDaisy//src/dev/oled_ssd130x.h ****     };
 5744              		.loc 8 125 30 view .LVU1349
 5745 0104 1223     		movs	r3, #18
 5746              	.LBE1405:
 5747              	.LBE1403:
 5748              	.LBB1406:
 5749              	.LBB1407:
 124:../../libDaisy//src/dev/oled_ssd130x.h ****         spi_.BlockingTransmit(&cmd, 1);
 5750              		.loc 8 124 23 view .LVU1350
 5751 0106 3046     		mov	r0, r6
 5752 0108 0021     		movs	r1, #0
 5753 010a 8DF80730 		strb	r3, [sp, #7]
 5754              	.LVL454:
 124:../../libDaisy//src/dev/oled_ssd130x.h ****         spi_.BlockingTransmit(&cmd, 1);
 5755              		.loc 8 124 23 view .LVU1351
 5756              	.LBE1407:
 5757              	.LBI1406:
 122:../../libDaisy//src/dev/oled_ssd130x.h ****     {
 5758              		.loc 8 122 10 is_stmt 1 view .LVU1352
 5759              	.LBB1408:
 124:../../libDaisy//src/dev/oled_ssd130x.h ****         spi_.BlockingTransmit(&cmd, 1);
 5760              		.loc 8 124 9 view .LVU1353
 124:../../libDaisy//src/dev/oled_ssd130x.h ****         spi_.BlockingTransmit(&cmd, 1);
 5761              		.loc 8 124 23 is_stmt 0 view .LVU1354
 5762 010e FFF7FEFF 		bl	dsy_gpio_write
 5763              	.LVL455:
 125:../../libDaisy//src/dev/oled_ssd130x.h ****     };
 5764              		.loc 8 125 9 is_stmt 1 view .LVU1355
 125:../../libDaisy//src/dev/oled_ssd130x.h ****     };
 5765              		.loc 8 125 30 is_stmt 0 view .LVU1356
 5766 0112 2A46     		mov	r2, r5
ARM GAS  /tmp/ccZePa4k.s 			page 156


 5767 0114 0DF10701 		add	r1, sp, #7
 5768 0118 6423     		movs	r3, #100
 5769 011a 2046     		mov	r0, r4
 5770 011c FFF7FEFF 		bl	_ZN5daisy9SpiHandle16BlockingTransmitEPhjm
 5771              	.LVL456:
 125:../../libDaisy//src/dev/oled_ssd130x.h ****     };
 5772              		.loc 8 125 30 view .LVU1357
 5773              	.LBE1408:
 5774              	.LBE1406:
 5775              	.LBB1409:
 5776              	.LBB1410:
 124:../../libDaisy//src/dev/oled_ssd130x.h ****         spi_.BlockingTransmit(&cmd, 1);
 5777              		.loc 8 124 23 view .LVU1358
 5778 0120 0021     		movs	r1, #0
 5779 0122 D323     		movs	r3, #211
 5780 0124 3046     		mov	r0, r6
 5781 0126 0F46     		mov	r7, r1
 5782 0128 8DF80730 		strb	r3, [sp, #7]
 5783              	.LVL457:
 124:../../libDaisy//src/dev/oled_ssd130x.h ****         spi_.BlockingTransmit(&cmd, 1);
 5784              		.loc 8 124 23 view .LVU1359
 5785              	.LBE1410:
 5786              	.LBI1409:
 122:../../libDaisy//src/dev/oled_ssd130x.h ****     {
 5787              		.loc 8 122 10 is_stmt 1 view .LVU1360
 5788              	.LBB1411:
 124:../../libDaisy//src/dev/oled_ssd130x.h ****         spi_.BlockingTransmit(&cmd, 1);
 5789              		.loc 8 124 9 view .LVU1361
 124:../../libDaisy//src/dev/oled_ssd130x.h ****         spi_.BlockingTransmit(&cmd, 1);
 5790              		.loc 8 124 23 is_stmt 0 view .LVU1362
 5791 012c FFF7FEFF 		bl	dsy_gpio_write
 5792              	.LVL458:
 125:../../libDaisy//src/dev/oled_ssd130x.h ****     };
 5793              		.loc 8 125 9 is_stmt 1 view .LVU1363
 125:../../libDaisy//src/dev/oled_ssd130x.h ****     };
 5794              		.loc 8 125 30 is_stmt 0 view .LVU1364
 5795 0130 2A46     		mov	r2, r5
 5796 0132 6423     		movs	r3, #100
 5797 0134 0DF10701 		add	r1, sp, #7
 5798 0138 2046     		mov	r0, r4
 5799 013a FFF7FEFF 		bl	_ZN5daisy9SpiHandle16BlockingTransmitEPhjm
 5800              	.LVL459:
 125:../../libDaisy//src/dev/oled_ssd130x.h ****     };
 5801              		.loc 8 125 30 view .LVU1365
 5802              	.LBE1411:
 5803              	.LBE1409:
 5804              	.LBB1412:
 5805              	.LBB1413:
 124:../../libDaisy//src/dev/oled_ssd130x.h ****         spi_.BlockingTransmit(&cmd, 1);
 5806              		.loc 8 124 23 view .LVU1366
 5807 013e 3946     		mov	r1, r7
 5808 0140 3046     		mov	r0, r6
 5809 0142 8DF80770 		strb	r7, [sp, #7]
 5810              	.LVL460:
 124:../../libDaisy//src/dev/oled_ssd130x.h ****         spi_.BlockingTransmit(&cmd, 1);
 5811              		.loc 8 124 23 view .LVU1367
 5812              	.LBE1413:
ARM GAS  /tmp/ccZePa4k.s 			page 157


 5813              	.LBI1412:
 122:../../libDaisy//src/dev/oled_ssd130x.h ****     {
 5814              		.loc 8 122 10 is_stmt 1 view .LVU1368
 5815              	.LBB1414:
 124:../../libDaisy//src/dev/oled_ssd130x.h ****         spi_.BlockingTransmit(&cmd, 1);
 5816              		.loc 8 124 9 view .LVU1369
 124:../../libDaisy//src/dev/oled_ssd130x.h ****         spi_.BlockingTransmit(&cmd, 1);
 5817              		.loc 8 124 23 is_stmt 0 view .LVU1370
 5818 0146 FFF7FEFF 		bl	dsy_gpio_write
 5819              	.LVL461:
 125:../../libDaisy//src/dev/oled_ssd130x.h ****     };
 5820              		.loc 8 125 9 is_stmt 1 view .LVU1371
 125:../../libDaisy//src/dev/oled_ssd130x.h ****     };
 5821              		.loc 8 125 30 is_stmt 0 view .LVU1372
 5822 014a 2A46     		mov	r2, r5
 5823 014c 0DF10701 		add	r1, sp, #7
 5824 0150 6423     		movs	r3, #100
 5825 0152 2046     		mov	r0, r4
 5826 0154 FFF7FEFF 		bl	_ZN5daisy9SpiHandle16BlockingTransmitEPhjm
 5827              	.LVL462:
 125:../../libDaisy//src/dev/oled_ssd130x.h ****     };
 5828              		.loc 8 125 30 view .LVU1373
 5829 0158 4023     		movs	r3, #64
 5830              	.LBE1414:
 5831              	.LBE1412:
 5832              	.LBB1415:
 5833              	.LBB1416:
 124:../../libDaisy//src/dev/oled_ssd130x.h ****         spi_.BlockingTransmit(&cmd, 1);
 5834              		.loc 8 124 23 view .LVU1374
 5835 015a 3946     		mov	r1, r7
 5836 015c 3046     		mov	r0, r6
 5837 015e 8DF80730 		strb	r3, [sp, #7]
 5838              	.LVL463:
 124:../../libDaisy//src/dev/oled_ssd130x.h ****         spi_.BlockingTransmit(&cmd, 1);
 5839              		.loc 8 124 23 view .LVU1375
 5840              	.LBE1416:
 5841              	.LBI1415:
 122:../../libDaisy//src/dev/oled_ssd130x.h ****     {
 5842              		.loc 8 122 10 is_stmt 1 view .LVU1376
 5843              	.LBB1417:
 124:../../libDaisy//src/dev/oled_ssd130x.h ****         spi_.BlockingTransmit(&cmd, 1);
 5844              		.loc 8 124 9 view .LVU1377
 124:../../libDaisy//src/dev/oled_ssd130x.h ****         spi_.BlockingTransmit(&cmd, 1);
 5845              		.loc 8 124 23 is_stmt 0 view .LVU1378
 5846 0162 FFF7FEFF 		bl	dsy_gpio_write
 5847              	.LVL464:
 125:../../libDaisy//src/dev/oled_ssd130x.h ****     };
 5848              		.loc 8 125 9 is_stmt 1 view .LVU1379
 125:../../libDaisy//src/dev/oled_ssd130x.h ****     };
 5849              		.loc 8 125 30 is_stmt 0 view .LVU1380
 5850 0166 2A46     		mov	r2, r5
 5851 0168 0DF10701 		add	r1, sp, #7
 5852 016c 6423     		movs	r3, #100
 5853 016e 2046     		mov	r0, r4
 5854 0170 FFF7FEFF 		bl	_ZN5daisy9SpiHandle16BlockingTransmitEPhjm
 5855              	.LVL465:
 125:../../libDaisy//src/dev/oled_ssd130x.h ****     };
ARM GAS  /tmp/ccZePa4k.s 			page 158


 5856              		.loc 8 125 30 view .LVU1381
 5857 0174 A623     		movs	r3, #166
 5858              	.LBE1417:
 5859              	.LBE1415:
 5860              	.LBB1418:
 5861              	.LBB1419:
 124:../../libDaisy//src/dev/oled_ssd130x.h ****         spi_.BlockingTransmit(&cmd, 1);
 5862              		.loc 8 124 23 view .LVU1382
 5863 0176 3946     		mov	r1, r7
 5864 0178 3046     		mov	r0, r6
 5865 017a 8DF80730 		strb	r3, [sp, #7]
 5866              	.LVL466:
 124:../../libDaisy//src/dev/oled_ssd130x.h ****         spi_.BlockingTransmit(&cmd, 1);
 5867              		.loc 8 124 23 view .LVU1383
 5868              	.LBE1419:
 5869              	.LBI1418:
 122:../../libDaisy//src/dev/oled_ssd130x.h ****     {
 5870              		.loc 8 122 10 is_stmt 1 view .LVU1384
 5871              	.LBB1420:
 124:../../libDaisy//src/dev/oled_ssd130x.h ****         spi_.BlockingTransmit(&cmd, 1);
 5872              		.loc 8 124 9 view .LVU1385
 124:../../libDaisy//src/dev/oled_ssd130x.h ****         spi_.BlockingTransmit(&cmd, 1);
 5873              		.loc 8 124 23 is_stmt 0 view .LVU1386
 5874 017e FFF7FEFF 		bl	dsy_gpio_write
 5875              	.LVL467:
 125:../../libDaisy//src/dev/oled_ssd130x.h ****     };
 5876              		.loc 8 125 9 is_stmt 1 view .LVU1387
 125:../../libDaisy//src/dev/oled_ssd130x.h ****     };
 5877              		.loc 8 125 30 is_stmt 0 view .LVU1388
 5878 0182 2A46     		mov	r2, r5
 5879 0184 0DF10701 		add	r1, sp, #7
 5880 0188 6423     		movs	r3, #100
 5881 018a 2046     		mov	r0, r4
 5882 018c FFF7FEFF 		bl	_ZN5daisy9SpiHandle16BlockingTransmitEPhjm
 5883              	.LVL468:
 125:../../libDaisy//src/dev/oled_ssd130x.h ****     };
 5884              		.loc 8 125 30 view .LVU1389
 5885 0190 A423     		movs	r3, #164
 5886              	.LBE1420:
 5887              	.LBE1418:
 5888              	.LBB1421:
 5889              	.LBB1422:
 124:../../libDaisy//src/dev/oled_ssd130x.h ****         spi_.BlockingTransmit(&cmd, 1);
 5890              		.loc 8 124 23 view .LVU1390
 5891 0192 3946     		mov	r1, r7
 5892 0194 3046     		mov	r0, r6
 5893 0196 8DF80730 		strb	r3, [sp, #7]
 5894              	.LVL469:
 124:../../libDaisy//src/dev/oled_ssd130x.h ****         spi_.BlockingTransmit(&cmd, 1);
 5895              		.loc 8 124 23 view .LVU1391
 5896              	.LBE1422:
 5897              	.LBI1421:
 122:../../libDaisy//src/dev/oled_ssd130x.h ****     {
 5898              		.loc 8 122 10 is_stmt 1 view .LVU1392
 5899              	.LBB1423:
 124:../../libDaisy//src/dev/oled_ssd130x.h ****         spi_.BlockingTransmit(&cmd, 1);
 5900              		.loc 8 124 9 view .LVU1393
ARM GAS  /tmp/ccZePa4k.s 			page 159


 124:../../libDaisy//src/dev/oled_ssd130x.h ****         spi_.BlockingTransmit(&cmd, 1);
 5901              		.loc 8 124 23 is_stmt 0 view .LVU1394
 5902 019a FFF7FEFF 		bl	dsy_gpio_write
 5903              	.LVL470:
 125:../../libDaisy//src/dev/oled_ssd130x.h ****     };
 5904              		.loc 8 125 9 is_stmt 1 view .LVU1395
 125:../../libDaisy//src/dev/oled_ssd130x.h ****     };
 5905              		.loc 8 125 30 is_stmt 0 view .LVU1396
 5906 019e 2A46     		mov	r2, r5
 5907 01a0 0DF10701 		add	r1, sp, #7
 5908 01a4 6423     		movs	r3, #100
 5909 01a6 2046     		mov	r0, r4
 5910 01a8 FFF7FEFF 		bl	_ZN5daisy9SpiHandle16BlockingTransmitEPhjm
 5911              	.LVL471:
 125:../../libDaisy//src/dev/oled_ssd130x.h ****     };
 5912              		.loc 8 125 30 view .LVU1397
 5913 01ac 8D23     		movs	r3, #141
 5914              	.LBE1423:
 5915              	.LBE1421:
 5916              	.LBB1424:
 5917              	.LBB1425:
 124:../../libDaisy//src/dev/oled_ssd130x.h ****         spi_.BlockingTransmit(&cmd, 1);
 5918              		.loc 8 124 23 view .LVU1398
 5919 01ae 3946     		mov	r1, r7
 5920 01b0 3046     		mov	r0, r6
 5921 01b2 8DF80730 		strb	r3, [sp, #7]
 5922              	.LVL472:
 124:../../libDaisy//src/dev/oled_ssd130x.h ****         spi_.BlockingTransmit(&cmd, 1);
 5923              		.loc 8 124 23 view .LVU1399
 5924              	.LBE1425:
 5925              	.LBI1424:
 122:../../libDaisy//src/dev/oled_ssd130x.h ****     {
 5926              		.loc 8 122 10 is_stmt 1 view .LVU1400
 5927              	.LBB1426:
 124:../../libDaisy//src/dev/oled_ssd130x.h ****         spi_.BlockingTransmit(&cmd, 1);
 5928              		.loc 8 124 9 view .LVU1401
 124:../../libDaisy//src/dev/oled_ssd130x.h ****         spi_.BlockingTransmit(&cmd, 1);
 5929              		.loc 8 124 23 is_stmt 0 view .LVU1402
 5930 01b6 FFF7FEFF 		bl	dsy_gpio_write
 5931              	.LVL473:
 125:../../libDaisy//src/dev/oled_ssd130x.h ****     };
 5932              		.loc 8 125 9 is_stmt 1 view .LVU1403
 125:../../libDaisy//src/dev/oled_ssd130x.h ****     };
 5933              		.loc 8 125 30 is_stmt 0 view .LVU1404
 5934 01ba 2A46     		mov	r2, r5
 5935 01bc 0DF10701 		add	r1, sp, #7
 5936 01c0 6423     		movs	r3, #100
 5937 01c2 2046     		mov	r0, r4
 5938 01c4 FFF7FEFF 		bl	_ZN5daisy9SpiHandle16BlockingTransmitEPhjm
 5939              	.LVL474:
 125:../../libDaisy//src/dev/oled_ssd130x.h ****     };
 5940              		.loc 8 125 30 view .LVU1405
 5941 01c8 1423     		movs	r3, #20
 5942              	.LBE1426:
 5943              	.LBE1424:
 5944              	.LBB1427:
 5945              	.LBB1428:
ARM GAS  /tmp/ccZePa4k.s 			page 160


 124:../../libDaisy//src/dev/oled_ssd130x.h ****         spi_.BlockingTransmit(&cmd, 1);
 5946              		.loc 8 124 23 view .LVU1406
 5947 01ca 3946     		mov	r1, r7
 5948 01cc 3046     		mov	r0, r6
 5949 01ce 8DF80730 		strb	r3, [sp, #7]
 5950              	.LVL475:
 124:../../libDaisy//src/dev/oled_ssd130x.h ****         spi_.BlockingTransmit(&cmd, 1);
 5951              		.loc 8 124 23 view .LVU1407
 5952              	.LBE1428:
 5953              	.LBI1427:
 122:../../libDaisy//src/dev/oled_ssd130x.h ****     {
 5954              		.loc 8 122 10 is_stmt 1 view .LVU1408
 5955              	.LBB1429:
 124:../../libDaisy//src/dev/oled_ssd130x.h ****         spi_.BlockingTransmit(&cmd, 1);
 5956              		.loc 8 124 9 view .LVU1409
 124:../../libDaisy//src/dev/oled_ssd130x.h ****         spi_.BlockingTransmit(&cmd, 1);
 5957              		.loc 8 124 23 is_stmt 0 view .LVU1410
 5958 01d2 FFF7FEFF 		bl	dsy_gpio_write
 5959              	.LVL476:
 125:../../libDaisy//src/dev/oled_ssd130x.h ****     };
 5960              		.loc 8 125 9 is_stmt 1 view .LVU1411
 125:../../libDaisy//src/dev/oled_ssd130x.h ****     };
 5961              		.loc 8 125 30 is_stmt 0 view .LVU1412
 5962 01d6 2A46     		mov	r2, r5
 5963 01d8 0DF10701 		add	r1, sp, #7
 5964 01dc 6423     		movs	r3, #100
 5965 01de 2046     		mov	r0, r4
 5966 01e0 FFF7FEFF 		bl	_ZN5daisy9SpiHandle16BlockingTransmitEPhjm
 5967              	.LVL477:
 125:../../libDaisy//src/dev/oled_ssd130x.h ****     };
 5968              		.loc 8 125 30 view .LVU1413
 5969 01e4 A123     		movs	r3, #161
 5970              	.LBE1429:
 5971              	.LBE1427:
 5972              	.LBB1430:
 5973              	.LBB1431:
 124:../../libDaisy//src/dev/oled_ssd130x.h ****         spi_.BlockingTransmit(&cmd, 1);
 5974              		.loc 8 124 23 view .LVU1414
 5975 01e6 3946     		mov	r1, r7
 5976 01e8 3046     		mov	r0, r6
 5977 01ea 8DF80730 		strb	r3, [sp, #7]
 5978              	.LVL478:
 124:../../libDaisy//src/dev/oled_ssd130x.h ****         spi_.BlockingTransmit(&cmd, 1);
 5979              		.loc 8 124 23 view .LVU1415
 5980              	.LBE1431:
 5981              	.LBI1430:
 122:../../libDaisy//src/dev/oled_ssd130x.h ****     {
 5982              		.loc 8 122 10 is_stmt 1 view .LVU1416
 5983              	.LBB1432:
 124:../../libDaisy//src/dev/oled_ssd130x.h ****         spi_.BlockingTransmit(&cmd, 1);
 5984              		.loc 8 124 9 view .LVU1417
 124:../../libDaisy//src/dev/oled_ssd130x.h ****         spi_.BlockingTransmit(&cmd, 1);
 5985              		.loc 8 124 23 is_stmt 0 view .LVU1418
 5986 01ee FFF7FEFF 		bl	dsy_gpio_write
 5987              	.LVL479:
 125:../../libDaisy//src/dev/oled_ssd130x.h ****     };
 5988              		.loc 8 125 9 is_stmt 1 view .LVU1419
ARM GAS  /tmp/ccZePa4k.s 			page 161


 125:../../libDaisy//src/dev/oled_ssd130x.h ****     };
 5989              		.loc 8 125 30 is_stmt 0 view .LVU1420
 5990 01f2 2A46     		mov	r2, r5
 5991 01f4 0DF10701 		add	r1, sp, #7
 5992 01f8 6423     		movs	r3, #100
 5993 01fa 2046     		mov	r0, r4
 5994 01fc FFF7FEFF 		bl	_ZN5daisy9SpiHandle16BlockingTransmitEPhjm
 5995              	.LVL480:
 125:../../libDaisy//src/dev/oled_ssd130x.h ****     };
 5996              		.loc 8 125 30 view .LVU1421
 5997 0200 C823     		movs	r3, #200
 5998              	.LBE1432:
 5999              	.LBE1430:
 6000              	.LBB1433:
 6001              	.LBB1434:
 124:../../libDaisy//src/dev/oled_ssd130x.h ****         spi_.BlockingTransmit(&cmd, 1);
 6002              		.loc 8 124 23 view .LVU1422
 6003 0202 3946     		mov	r1, r7
 6004 0204 3046     		mov	r0, r6
 6005 0206 8DF80730 		strb	r3, [sp, #7]
 6006              	.LVL481:
 124:../../libDaisy//src/dev/oled_ssd130x.h ****         spi_.BlockingTransmit(&cmd, 1);
 6007              		.loc 8 124 23 view .LVU1423
 6008              	.LBE1434:
 6009              	.LBI1433:
 122:../../libDaisy//src/dev/oled_ssd130x.h ****     {
 6010              		.loc 8 122 10 is_stmt 1 view .LVU1424
 6011              	.LBB1435:
 124:../../libDaisy//src/dev/oled_ssd130x.h ****         spi_.BlockingTransmit(&cmd, 1);
 6012              		.loc 8 124 9 view .LVU1425
 124:../../libDaisy//src/dev/oled_ssd130x.h ****         spi_.BlockingTransmit(&cmd, 1);
 6013              		.loc 8 124 23 is_stmt 0 view .LVU1426
 6014 020a FFF7FEFF 		bl	dsy_gpio_write
 6015              	.LVL482:
 125:../../libDaisy//src/dev/oled_ssd130x.h ****     };
 6016              		.loc 8 125 9 is_stmt 1 view .LVU1427
 125:../../libDaisy//src/dev/oled_ssd130x.h ****     };
 6017              		.loc 8 125 30 is_stmt 0 view .LVU1428
 6018 020e 2A46     		mov	r2, r5
 6019 0210 0DF10701 		add	r1, sp, #7
 6020 0214 6423     		movs	r3, #100
 6021 0216 2046     		mov	r0, r4
 6022 0218 FFF7FEFF 		bl	_ZN5daisy9SpiHandle16BlockingTransmitEPhjm
 6023              	.LVL483:
 125:../../libDaisy//src/dev/oled_ssd130x.h ****     };
 6024              		.loc 8 125 30 view .LVU1429
 6025 021c 8123     		movs	r3, #129
 6026              	.LBE1435:
 6027              	.LBE1433:
 6028              	.LBB1436:
 6029              	.LBB1437:
 124:../../libDaisy//src/dev/oled_ssd130x.h ****         spi_.BlockingTransmit(&cmd, 1);
 6030              		.loc 8 124 23 view .LVU1430
 6031 021e 3946     		mov	r1, r7
 6032 0220 3046     		mov	r0, r6
 6033 0222 8DF80730 		strb	r3, [sp, #7]
 6034              	.LVL484:
ARM GAS  /tmp/ccZePa4k.s 			page 162


 124:../../libDaisy//src/dev/oled_ssd130x.h ****         spi_.BlockingTransmit(&cmd, 1);
 6035              		.loc 8 124 23 view .LVU1431
 6036              	.LBE1437:
 6037              	.LBI1436:
 122:../../libDaisy//src/dev/oled_ssd130x.h ****     {
 6038              		.loc 8 122 10 is_stmt 1 view .LVU1432
 6039              	.LBB1438:
 124:../../libDaisy//src/dev/oled_ssd130x.h ****         spi_.BlockingTransmit(&cmd, 1);
 6040              		.loc 8 124 9 view .LVU1433
 124:../../libDaisy//src/dev/oled_ssd130x.h ****         spi_.BlockingTransmit(&cmd, 1);
 6041              		.loc 8 124 23 is_stmt 0 view .LVU1434
 6042 0226 FFF7FEFF 		bl	dsy_gpio_write
 6043              	.LVL485:
 125:../../libDaisy//src/dev/oled_ssd130x.h ****     };
 6044              		.loc 8 125 9 is_stmt 1 view .LVU1435
 125:../../libDaisy//src/dev/oled_ssd130x.h ****     };
 6045              		.loc 8 125 30 is_stmt 0 view .LVU1436
 6046 022a 2A46     		mov	r2, r5
 6047 022c 0DF10701 		add	r1, sp, #7
 6048 0230 6423     		movs	r3, #100
 6049 0232 2046     		mov	r0, r4
 6050 0234 FFF7FEFF 		bl	_ZN5daisy9SpiHandle16BlockingTransmitEPhjm
 6051              	.LVL486:
 125:../../libDaisy//src/dev/oled_ssd130x.h ****     };
 6052              		.loc 8 125 30 view .LVU1437
 6053 0238 8F23     		movs	r3, #143
 6054              	.LBE1438:
 6055              	.LBE1436:
 6056              	.LBB1439:
 6057              	.LBB1440:
 124:../../libDaisy//src/dev/oled_ssd130x.h ****         spi_.BlockingTransmit(&cmd, 1);
 6058              		.loc 8 124 23 view .LVU1438
 6059 023a 3946     		mov	r1, r7
 6060 023c 3046     		mov	r0, r6
 6061 023e 8DF80730 		strb	r3, [sp, #7]
 6062              	.LVL487:
 124:../../libDaisy//src/dev/oled_ssd130x.h ****         spi_.BlockingTransmit(&cmd, 1);
 6063              		.loc 8 124 23 view .LVU1439
 6064              	.LBE1440:
 6065              	.LBI1439:
 122:../../libDaisy//src/dev/oled_ssd130x.h ****     {
 6066              		.loc 8 122 10 is_stmt 1 view .LVU1440
 6067              	.LBB1441:
 124:../../libDaisy//src/dev/oled_ssd130x.h ****         spi_.BlockingTransmit(&cmd, 1);
 6068              		.loc 8 124 9 view .LVU1441
 124:../../libDaisy//src/dev/oled_ssd130x.h ****         spi_.BlockingTransmit(&cmd, 1);
 6069              		.loc 8 124 23 is_stmt 0 view .LVU1442
 6070 0242 FFF7FEFF 		bl	dsy_gpio_write
 6071              	.LVL488:
 125:../../libDaisy//src/dev/oled_ssd130x.h ****     };
 6072              		.loc 8 125 9 is_stmt 1 view .LVU1443
 125:../../libDaisy//src/dev/oled_ssd130x.h ****     };
 6073              		.loc 8 125 30 is_stmt 0 view .LVU1444
 6074 0246 2A46     		mov	r2, r5
 6075 0248 0DF10701 		add	r1, sp, #7
 6076 024c 6423     		movs	r3, #100
 6077 024e 2046     		mov	r0, r4
ARM GAS  /tmp/ccZePa4k.s 			page 163


 6078 0250 FFF7FEFF 		bl	_ZN5daisy9SpiHandle16BlockingTransmitEPhjm
 6079              	.LVL489:
 125:../../libDaisy//src/dev/oled_ssd130x.h ****     };
 6080              		.loc 8 125 30 view .LVU1445
 6081 0254 D923     		movs	r3, #217
 6082              	.LBE1441:
 6083              	.LBE1439:
 6084              	.LBB1442:
 6085              	.LBB1443:
 124:../../libDaisy//src/dev/oled_ssd130x.h ****         spi_.BlockingTransmit(&cmd, 1);
 6086              		.loc 8 124 23 view .LVU1446
 6087 0256 3946     		mov	r1, r7
 6088 0258 3046     		mov	r0, r6
 6089 025a 8DF80730 		strb	r3, [sp, #7]
 6090              	.LVL490:
 124:../../libDaisy//src/dev/oled_ssd130x.h ****         spi_.BlockingTransmit(&cmd, 1);
 6091              		.loc 8 124 23 view .LVU1447
 6092              	.LBE1443:
 6093              	.LBI1442:
 122:../../libDaisy//src/dev/oled_ssd130x.h ****     {
 6094              		.loc 8 122 10 is_stmt 1 view .LVU1448
 6095              	.LBB1444:
 124:../../libDaisy//src/dev/oled_ssd130x.h ****         spi_.BlockingTransmit(&cmd, 1);
 6096              		.loc 8 124 9 view .LVU1449
 124:../../libDaisy//src/dev/oled_ssd130x.h ****         spi_.BlockingTransmit(&cmd, 1);
 6097              		.loc 8 124 23 is_stmt 0 view .LVU1450
 6098 025e FFF7FEFF 		bl	dsy_gpio_write
 6099              	.LVL491:
 125:../../libDaisy//src/dev/oled_ssd130x.h ****     };
 6100              		.loc 8 125 9 is_stmt 1 view .LVU1451
 125:../../libDaisy//src/dev/oled_ssd130x.h ****     };
 6101              		.loc 8 125 30 is_stmt 0 view .LVU1452
 6102 0262 2A46     		mov	r2, r5
 6103 0264 0DF10701 		add	r1, sp, #7
 6104 0268 6423     		movs	r3, #100
 6105 026a 2046     		mov	r0, r4
 6106 026c FFF7FEFF 		bl	_ZN5daisy9SpiHandle16BlockingTransmitEPhjm
 6107              	.LVL492:
 125:../../libDaisy//src/dev/oled_ssd130x.h ****     };
 6108              		.loc 8 125 30 view .LVU1453
 6109 0270 2523     		movs	r3, #37
 6110              	.LBE1444:
 6111              	.LBE1442:
 6112              	.LBB1445:
 6113              	.LBB1446:
 124:../../libDaisy//src/dev/oled_ssd130x.h ****         spi_.BlockingTransmit(&cmd, 1);
 6114              		.loc 8 124 23 view .LVU1454
 6115 0272 3946     		mov	r1, r7
 6116 0274 3046     		mov	r0, r6
 6117 0276 8DF80730 		strb	r3, [sp, #7]
 6118              	.LVL493:
 124:../../libDaisy//src/dev/oled_ssd130x.h ****         spi_.BlockingTransmit(&cmd, 1);
 6119              		.loc 8 124 23 view .LVU1455
 6120              	.LBE1446:
 6121              	.LBI1445:
 122:../../libDaisy//src/dev/oled_ssd130x.h ****     {
 6122              		.loc 8 122 10 is_stmt 1 view .LVU1456
ARM GAS  /tmp/ccZePa4k.s 			page 164


 6123              	.LBB1447:
 124:../../libDaisy//src/dev/oled_ssd130x.h ****         spi_.BlockingTransmit(&cmd, 1);
 6124              		.loc 8 124 9 view .LVU1457
 124:../../libDaisy//src/dev/oled_ssd130x.h ****         spi_.BlockingTransmit(&cmd, 1);
 6125              		.loc 8 124 23 is_stmt 0 view .LVU1458
 6126 027a FFF7FEFF 		bl	dsy_gpio_write
 6127              	.LVL494:
 125:../../libDaisy//src/dev/oled_ssd130x.h ****     };
 6128              		.loc 8 125 9 is_stmt 1 view .LVU1459
 125:../../libDaisy//src/dev/oled_ssd130x.h ****     };
 6129              		.loc 8 125 30 is_stmt 0 view .LVU1460
 6130 027e 2A46     		mov	r2, r5
 6131 0280 0DF10701 		add	r1, sp, #7
 6132 0284 6423     		movs	r3, #100
 6133 0286 2046     		mov	r0, r4
 6134 0288 FFF7FEFF 		bl	_ZN5daisy9SpiHandle16BlockingTransmitEPhjm
 6135              	.LVL495:
 125:../../libDaisy//src/dev/oled_ssd130x.h ****     };
 6136              		.loc 8 125 30 view .LVU1461
 6137 028c DB23     		movs	r3, #219
 6138              	.LBE1447:
 6139              	.LBE1445:
 6140              	.LBB1448:
 6141              	.LBB1449:
 124:../../libDaisy//src/dev/oled_ssd130x.h ****         spi_.BlockingTransmit(&cmd, 1);
 6142              		.loc 8 124 23 view .LVU1462
 6143 028e 3946     		mov	r1, r7
 6144 0290 3046     		mov	r0, r6
 6145 0292 8DF80730 		strb	r3, [sp, #7]
 6146              	.LVL496:
 124:../../libDaisy//src/dev/oled_ssd130x.h ****         spi_.BlockingTransmit(&cmd, 1);
 6147              		.loc 8 124 23 view .LVU1463
 6148              	.LBE1449:
 6149              	.LBI1448:
 122:../../libDaisy//src/dev/oled_ssd130x.h ****     {
 6150              		.loc 8 122 10 is_stmt 1 view .LVU1464
 6151              	.LBB1450:
 124:../../libDaisy//src/dev/oled_ssd130x.h ****         spi_.BlockingTransmit(&cmd, 1);
 6152              		.loc 8 124 9 view .LVU1465
 124:../../libDaisy//src/dev/oled_ssd130x.h ****         spi_.BlockingTransmit(&cmd, 1);
 6153              		.loc 8 124 23 is_stmt 0 view .LVU1466
 6154 0296 FFF7FEFF 		bl	dsy_gpio_write
 6155              	.LVL497:
 125:../../libDaisy//src/dev/oled_ssd130x.h ****     };
 6156              		.loc 8 125 9 is_stmt 1 view .LVU1467
 125:../../libDaisy//src/dev/oled_ssd130x.h ****     };
 6157              		.loc 8 125 30 is_stmt 0 view .LVU1468
 6158 029a 2A46     		mov	r2, r5
 6159 029c 0DF10701 		add	r1, sp, #7
 6160 02a0 6423     		movs	r3, #100
 6161 02a2 2046     		mov	r0, r4
 6162 02a4 FFF7FEFF 		bl	_ZN5daisy9SpiHandle16BlockingTransmitEPhjm
 6163              	.LVL498:
 125:../../libDaisy//src/dev/oled_ssd130x.h ****     };
 6164              		.loc 8 125 30 view .LVU1469
 6165 02a8 3423     		movs	r3, #52
 6166              	.LBE1450:
ARM GAS  /tmp/ccZePa4k.s 			page 165


 6167              	.LBE1448:
 6168              	.LBB1451:
 6169              	.LBB1452:
 124:../../libDaisy//src/dev/oled_ssd130x.h ****         spi_.BlockingTransmit(&cmd, 1);
 6170              		.loc 8 124 23 view .LVU1470
 6171 02aa 3946     		mov	r1, r7
 6172 02ac 3046     		mov	r0, r6
 6173 02ae 8DF80730 		strb	r3, [sp, #7]
 6174              	.LVL499:
 124:../../libDaisy//src/dev/oled_ssd130x.h ****         spi_.BlockingTransmit(&cmd, 1);
 6175              		.loc 8 124 23 view .LVU1471
 6176              	.LBE1452:
 6177              	.LBI1451:
 122:../../libDaisy//src/dev/oled_ssd130x.h ****     {
 6178              		.loc 8 122 10 is_stmt 1 view .LVU1472
 6179              	.LBB1453:
 124:../../libDaisy//src/dev/oled_ssd130x.h ****         spi_.BlockingTransmit(&cmd, 1);
 6180              		.loc 8 124 9 view .LVU1473
 124:../../libDaisy//src/dev/oled_ssd130x.h ****         spi_.BlockingTransmit(&cmd, 1);
 6181              		.loc 8 124 23 is_stmt 0 view .LVU1474
 6182 02b2 FFF7FEFF 		bl	dsy_gpio_write
 6183              	.LVL500:
 125:../../libDaisy//src/dev/oled_ssd130x.h ****     };
 6184              		.loc 8 125 9 is_stmt 1 view .LVU1475
 125:../../libDaisy//src/dev/oled_ssd130x.h ****     };
 6185              		.loc 8 125 30 is_stmt 0 view .LVU1476
 6186 02b6 2A46     		mov	r2, r5
 6187 02b8 0DF10701 		add	r1, sp, #7
 6188 02bc 6423     		movs	r3, #100
 6189 02be 2046     		mov	r0, r4
 6190 02c0 FFF7FEFF 		bl	_ZN5daisy9SpiHandle16BlockingTransmitEPhjm
 6191              	.LVL501:
 125:../../libDaisy//src/dev/oled_ssd130x.h ****     };
 6192              		.loc 8 125 30 view .LVU1477
 6193 02c4 AF23     		movs	r3, #175
 6194              	.LBE1453:
 6195              	.LBE1451:
 6196              	.LBB1454:
 6197              	.LBB1455:
 124:../../libDaisy//src/dev/oled_ssd130x.h ****         spi_.BlockingTransmit(&cmd, 1);
 6198              		.loc 8 124 23 view .LVU1478
 6199 02c6 3946     		mov	r1, r7
 6200 02c8 3046     		mov	r0, r6
 6201 02ca 8DF80730 		strb	r3, [sp, #7]
 6202              	.LVL502:
 124:../../libDaisy//src/dev/oled_ssd130x.h ****         spi_.BlockingTransmit(&cmd, 1);
 6203              		.loc 8 124 23 view .LVU1479
 6204              	.LBE1455:
 6205              	.LBI1454:
 122:../../libDaisy//src/dev/oled_ssd130x.h ****     {
 6206              		.loc 8 122 10 is_stmt 1 view .LVU1480
 6207              	.LBB1456:
 124:../../libDaisy//src/dev/oled_ssd130x.h ****         spi_.BlockingTransmit(&cmd, 1);
 6208              		.loc 8 124 9 view .LVU1481
 124:../../libDaisy//src/dev/oled_ssd130x.h ****         spi_.BlockingTransmit(&cmd, 1);
 6209              		.loc 8 124 23 is_stmt 0 view .LVU1482
 6210 02ce FFF7FEFF 		bl	dsy_gpio_write
ARM GAS  /tmp/ccZePa4k.s 			page 166


 6211              	.LVL503:
 125:../../libDaisy//src/dev/oled_ssd130x.h ****     };
 6212              		.loc 8 125 9 is_stmt 1 view .LVU1483
 125:../../libDaisy//src/dev/oled_ssd130x.h ****     };
 6213              		.loc 8 125 30 is_stmt 0 view .LVU1484
 6214 02d2 6423     		movs	r3, #100
 6215 02d4 2A46     		mov	r2, r5
 6216 02d6 0DF10701 		add	r1, sp, #7
 6217 02da 2046     		mov	r0, r4
 6218 02dc FFF7FEFF 		bl	_ZN5daisy9SpiHandle16BlockingTransmitEPhjm
 6219              	.LVL504:
 125:../../libDaisy//src/dev/oled_ssd130x.h ****     };
 6220              		.loc 8 125 30 view .LVU1485
 6221              	.LBE1456:
 6222              	.LBE1454:
 247:../../libDaisy//src/dev/oled_ssd130x.h **** 
 6223              		.loc 8 247 5 view .LVU1486
 6224 02e0 02B0     		add	sp, sp, #8
 6225              		.cfi_def_cfa_offset 40
 6226              		@ sp needed
 6227 02e2 BDE8F041 		pop	{r4, r5, r6, r7, r8, lr}
 6228              		.cfi_restore 14
 6229              		.cfi_restore 8
 6230              		.cfi_restore 7
 6231              		.cfi_restore 6
 6232              		.cfi_restore 5
 6233              		.cfi_restore 4
 6234              		.cfi_def_cfa_offset 16
 6235              	.LVL505:
 247:../../libDaisy//src/dev/oled_ssd130x.h **** 
 6236              		.loc 8 247 5 view .LVU1487
 6237 02e6 04B0     		add	sp, sp, #16
 6238              		.cfi_def_cfa_offset 0
 6239 02e8 7047     		bx	lr
 6240              		.cfi_endproc
 6241              	.LFE2591:
 6243 02ea 00BF     		.section	.text.startup.main,"ax",%progbits
 6244              		.align	1
 6245              		.p2align 2,,3
 6246              		.global	main
 6247              		.syntax unified
 6248              		.thumb
 6249              		.thumb_func
 6251              	main:
 6252              	.LFB2554:
 6253              		.file 11 "Picologue.cpp"
   1:Picologue.cpp **** #include <stdio.h>
   2:Picologue.cpp **** #include <string.h>
   3:Picologue.cpp **** #include "daisy_seed.h"
   4:Picologue.cpp **** #include "dev/oled_ssd130x.h"
   5:Picologue.cpp **** #include "Menu.h"
   6:Picologue.cpp **** 
   7:Picologue.cpp **** using namespace daisy;
   8:Picologue.cpp **** 
   9:Picologue.cpp **** /** Typedef the OledDisplay to make syntax cleaner below 
  10:Picologue.cpp ****  *  This is a 4Wire SPI Transport controlling an 128x64 sized SSDD1306
  11:Picologue.cpp ****  * 
ARM GAS  /tmp/ccZePa4k.s 			page 167


  12:Picologue.cpp ****  *  There are several other premade test 
  13:Picologue.cpp **** */
  14:Picologue.cpp **** using MyOledDisplay = OledDisplay<SSD130x4WireSpi128x64Driver>;
  15:Picologue.cpp **** 
  16:Picologue.cpp **** DaisySeed     hw;
  17:Picologue.cpp **** MyOledDisplay display;
  18:Picologue.cpp **** Menu          menu;
  19:Picologue.cpp **** 
  20:Picologue.cpp **** int main(void)
  21:Picologue.cpp **** {
 6254              		.loc 11 21 1 is_stmt 1 view -0
 6255              		.cfi_startproc
 6256              		@ Volatile: function does not return.
 6257              		@ args = 0, pretend = 0, frame = 88
 6258              		@ frame_needed = 0, uses_anonymous_args = 0
  22:Picologue.cpp ****     hw.Init();
 6259              		.loc 11 22 5 view .LVU1489
  21:Picologue.cpp ****     hw.Init();
 6260              		.loc 11 21 1 is_stmt 0 view .LVU1490
 6261 0000 80B5     		push	{r7, lr}
 6262              		.cfi_def_cfa_offset 8
 6263              		.cfi_offset 7, -8
 6264              		.cfi_offset 14, -4
 6265              		.loc 11 22 12 view .LVU1491
 6266 0002 0021     		movs	r1, #0
  21:Picologue.cpp ****     hw.Init();
 6267              		.loc 11 21 1 view .LVU1492
 6268 0004 9EB0     		sub	sp, sp, #120
 6269              		.cfi_def_cfa_offset 128
 6270              		.loc 11 22 12 view .LVU1493
 6271 0006 2448     		ldr	r0, .L401
 6272 0008 0124     		movs	r4, #1
 6273 000a FFF7FEFF 		bl	_ZN5daisy9DaisySeed4InitEb
 6274              	.LVL506:
  23:Picologue.cpp ****     /** Configure the Display */
  24:Picologue.cpp ****     MyOledDisplay::Config disp_cfg;
 6275              		.loc 11 24 5 is_stmt 1 view .LVU1494
 6276              	.LBB1469:
 6277              	.LBI1469:
  20:../../libDaisy//src/hid/disp/oled_display.h ****     {
 6278              		.loc 6 20 12 view .LVU1495
 6279              	.LBB1470:
 6280              	.LBI1470:
 148:../../libDaisy//src/dev/oled_ssd130x.h ****     {
 6281              		.loc 8 148 12 view .LVU1496
 6282              	.LBB1471:
 6283              	.LBI1471:
  70:../../libDaisy//src/dev/oled_ssd130x.h ****         {
 6284              		.loc 8 70 9 view .LVU1497
 6285              	.LBB1472:
 6286              	.LBB1473:
 6287              	.LBI1473:
 6288              		.file 12 "../../libDaisy//src/per/spi.h"
   1:../../libDaisy//src/per/spi.h **** #pragma once
   2:../../libDaisy//src/per/spi.h **** #ifndef DSY_SPI_H
   3:../../libDaisy//src/per/spi.h **** #define DSY_SPI_H
   4:../../libDaisy//src/per/spi.h **** 
ARM GAS  /tmp/ccZePa4k.s 			page 168


   5:../../libDaisy//src/per/spi.h **** #include "daisy_core.h"
   6:../../libDaisy//src/per/spi.h **** 
   7:../../libDaisy//src/per/spi.h **** /* TODO:
   8:../../libDaisy//src/per/spi.h **** - Add documentation
   9:../../libDaisy//src/per/spi.h **** - Add IT
  10:../../libDaisy//src/per/spi.h **** */
  11:../../libDaisy//src/per/spi.h **** 
  12:../../libDaisy//src/per/spi.h **** namespace daisy
  13:../../libDaisy//src/per/spi.h **** {
  14:../../libDaisy//src/per/spi.h **** /** @addtogroup serial
  15:../../libDaisy//src/per/spi.h **** @{
  16:../../libDaisy//src/per/spi.h **** */
  17:../../libDaisy//src/per/spi.h **** 
  18:../../libDaisy//src/per/spi.h **** /**  Handler for serial peripheral interface */
  19:../../libDaisy//src/per/spi.h **** class SpiHandle
  20:../../libDaisy//src/per/spi.h **** {
  21:../../libDaisy//src/per/spi.h ****   public:
  22:../../libDaisy//src/per/spi.h ****     struct Config
  23:../../libDaisy//src/per/spi.h ****     {
  24:../../libDaisy//src/per/spi.h ****         enum class Peripheral
  25:../../libDaisy//src/per/spi.h ****         {
  26:../../libDaisy//src/per/spi.h ****             SPI_1,
  27:../../libDaisy//src/per/spi.h ****             SPI_2,
  28:../../libDaisy//src/per/spi.h ****             SPI_3,
  29:../../libDaisy//src/per/spi.h ****             SPI_4,
  30:../../libDaisy//src/per/spi.h ****             SPI_5,
  31:../../libDaisy//src/per/spi.h ****             SPI_6,
  32:../../libDaisy//src/per/spi.h ****         };
  33:../../libDaisy//src/per/spi.h **** 
  34:../../libDaisy//src/per/spi.h ****         enum class Mode
  35:../../libDaisy//src/per/spi.h ****         {
  36:../../libDaisy//src/per/spi.h ****             MASTER,
  37:../../libDaisy//src/per/spi.h ****             SLAVE,
  38:../../libDaisy//src/per/spi.h ****         };
  39:../../libDaisy//src/per/spi.h **** 
  40:../../libDaisy//src/per/spi.h ****         enum class Direction
  41:../../libDaisy//src/per/spi.h ****         {
  42:../../libDaisy//src/per/spi.h ****             TWO_LINES,
  43:../../libDaisy//src/per/spi.h ****             TWO_LINES_TX_ONLY,
  44:../../libDaisy//src/per/spi.h ****             TWO_LINES_RX_ONLY,
  45:../../libDaisy//src/per/spi.h ****             ONE_LINE,
  46:../../libDaisy//src/per/spi.h ****         };
  47:../../libDaisy//src/per/spi.h **** 
  48:../../libDaisy//src/per/spi.h ****         enum class ClockPolarity
  49:../../libDaisy//src/per/spi.h ****         {
  50:../../libDaisy//src/per/spi.h ****             LOW,
  51:../../libDaisy//src/per/spi.h ****             HIGH,
  52:../../libDaisy//src/per/spi.h ****         };
  53:../../libDaisy//src/per/spi.h **** 
  54:../../libDaisy//src/per/spi.h ****         enum class ClockPhase
  55:../../libDaisy//src/per/spi.h ****         {
  56:../../libDaisy//src/per/spi.h ****             ONE_EDGE,
  57:../../libDaisy//src/per/spi.h ****             TWO_EDGE,
  58:../../libDaisy//src/per/spi.h ****         };
  59:../../libDaisy//src/per/spi.h **** 
  60:../../libDaisy//src/per/spi.h ****         enum class NSS
  61:../../libDaisy//src/per/spi.h ****         {
ARM GAS  /tmp/ccZePa4k.s 			page 169


  62:../../libDaisy//src/per/spi.h ****             SOFT,
  63:../../libDaisy//src/per/spi.h ****             HARD_INPUT,
  64:../../libDaisy//src/per/spi.h ****             HARD_OUTPUT,
  65:../../libDaisy//src/per/spi.h ****         };
  66:../../libDaisy//src/per/spi.h **** 
  67:../../libDaisy//src/per/spi.h ****         enum class BaudPrescaler
  68:../../libDaisy//src/per/spi.h ****         {
  69:../../libDaisy//src/per/spi.h ****             PS_2,
  70:../../libDaisy//src/per/spi.h ****             PS_4,
  71:../../libDaisy//src/per/spi.h ****             PS_8,
  72:../../libDaisy//src/per/spi.h ****             PS_16,
  73:../../libDaisy//src/per/spi.h ****             PS_32,
  74:../../libDaisy//src/per/spi.h ****             PS_64,
  75:../../libDaisy//src/per/spi.h ****             PS_128,
  76:../../libDaisy//src/per/spi.h ****             PS_256,
  77:../../libDaisy//src/per/spi.h ****         };
  78:../../libDaisy//src/per/spi.h **** 
  79:../../libDaisy//src/per/spi.h ****         struct
  80:../../libDaisy//src/per/spi.h ****         {
  81:../../libDaisy//src/per/spi.h ****             dsy_gpio_pin sclk; /**< & */
  82:../../libDaisy//src/per/spi.h ****             dsy_gpio_pin miso; /**< & */
  83:../../libDaisy//src/per/spi.h ****             dsy_gpio_pin mosi; /**< & */
  84:../../libDaisy//src/per/spi.h ****             dsy_gpio_pin nss;  /**< & */
  85:../../libDaisy//src/per/spi.h ****         } pin_config;
  86:../../libDaisy//src/per/spi.h **** 
  87:../../libDaisy//src/per/spi.h ****         Config()
 6289              		.loc 12 87 9 view .LVU1498
 6290              	.LBE1473:
 6291              	.LBE1472:
 6292              	.LBE1471:
 6293              	.LBE1470:
 6294              	.LBE1469:
  88:../../libDaisy//src/per/spi.h ****         {
  89:../../libDaisy//src/per/spi.h ****             // user must specify periph, mode, direction, nss, and pin_config
  90:../../libDaisy//src/per/spi.h ****             datasize       = 8;
 6295              		.loc 12 90 13 view .LVU1499
  91:../../libDaisy//src/per/spi.h ****             clock_polarity = ClockPolarity::LOW;
 6296              		.loc 12 91 13 view .LVU1500
  92:../../libDaisy//src/per/spi.h ****             clock_phase    = ClockPhase::ONE_EDGE;
 6297              		.loc 12 92 13 view .LVU1501
  93:../../libDaisy//src/per/spi.h ****             baud_prescaler = BaudPrescaler::PS_8;
 6298              		.loc 12 93 13 view .LVU1502
  73:../../libDaisy//src/dev/oled_ssd130x.h ****         }
 6299              		.loc 8 73 13 view .LVU1503
 6300              	.LBB1484:
 6301              	.LBB1481:
 6302              	.LBB1478:
 6303              	.LBB1475:
 6304              	.LBB1474:
 6305              	.LBI1474:
  81:../../libDaisy//src/dev/oled_ssd130x.h ****         {
 6306              		.loc 8 81 14 view .LVU1504
 6307              	.LBE1474:
 6308              	.LBE1475:
 6309              	.LBE1478:
 6310              	.LBE1481:
 6311              	.LBE1484:
ARM GAS  /tmp/ccZePa4k.s 			page 170


  84:../../libDaisy//src/dev/oled_ssd130x.h ****             spi_config.mode   = SpiHandle::Config::Mode::MASTER;
 6312              		.loc 8 84 13 view .LVU1505
  85:../../libDaisy//src/dev/oled_ssd130x.h ****             spi_config.direction
 6313              		.loc 8 85 13 view .LVU1506
  86:../../libDaisy//src/dev/oled_ssd130x.h ****                 = SpiHandle::Config::Direction::TWO_LINES_TX_ONLY;
 6314              		.loc 8 86 13 view .LVU1507
  88:../../libDaisy//src/dev/oled_ssd130x.h ****             spi_config.clock_polarity = SpiHandle::Config::ClockPolarity::LOW;
 6315              		.loc 8 88 13 view .LVU1508
  89:../../libDaisy//src/dev/oled_ssd130x.h ****             spi_config.clock_phase    = SpiHandle::Config::ClockPhase::ONE_EDGE;
 6316              		.loc 8 89 13 view .LVU1509
  90:../../libDaisy//src/dev/oled_ssd130x.h ****             spi_config.nss            = SpiHandle::Config::NSS::HARD_OUTPUT;
 6317              		.loc 8 90 13 view .LVU1510
  91:../../libDaisy//src/dev/oled_ssd130x.h ****             spi_config.baud_prescaler = SpiHandle::Config::BaudPrescaler::PS_8;
 6318              		.loc 8 91 13 view .LVU1511
  92:../../libDaisy//src/dev/oled_ssd130x.h ****             // SPI pin config
 6319              		.loc 8 92 13 view .LVU1512
  94:../../libDaisy//src/dev/oled_ssd130x.h ****             spi_config.pin_config.miso = {DSY_GPIOX, 0};
 6320              		.loc 8 94 13 view .LVU1513
  95:../../libDaisy//src/dev/oled_ssd130x.h ****             spi_config.pin_config.mosi = {DSY_GPIOB, 5};
 6321              		.loc 8 95 13 view .LVU1514
  96:../../libDaisy//src/dev/oled_ssd130x.h ****             spi_config.pin_config.nss  = {DSY_GPIOG, 10};
 6322              		.loc 8 96 13 view .LVU1515
  97:../../libDaisy//src/dev/oled_ssd130x.h ****             // SSD130x control pin config
 6323              		.loc 8 97 13 view .LVU1516
 6324              	.LBB1485:
 6325              	.LBB1482:
 6326              	.LBB1479:
 6327              	.LBB1476:
  71:../../libDaisy//src/dev/oled_ssd130x.h ****             // Initialize using defaults
 6328              		.loc 8 71 9 is_stmt 0 view .LVU1517
 6329 000e 40F60632 		movw	r2, #2822
 6330 0012 224B     		ldr	r3, .L401+4
 6331              	.LBE1476:
 6332              	.LBE1479:
 6333              	.LBE1482:
 6334              	.LBE1485:
  25:Picologue.cpp ****     disp_cfg.driver_config.transport_config.pin_config.dc    = hw.GetPin(9);
 6335              		.loc 11 25 75 view .LVU1518
 6336 0014 0920     		movs	r0, #9
 6337              	.LBB1486:
 6338              	.LBB1487:
  25:../../libDaisy//src/hid/disp/oled_display.h **** 
 6339              		.loc 6 25 44 view .LVU1519
 6340 0016 16AD     		add	r5, sp, #88
 6341 0018 214F     		ldr	r7, .L401+8
 6342              	.LBE1487:
 6343              	.LBE1486:
 6344              	.LBB1490:
 6345              	.LBB1483:
 6346              	.LBB1480:
 6347              	.LBB1477:
  71:../../libDaisy//src/dev/oled_ssd130x.h ****             // Initialize using defaults
 6348              		.loc 8 71 9 view .LVU1520
 6349 001a CDE90823 		strd	r2, r3, [sp, #32]
 6350              	.LBE1477:
 6351              	.LBE1480:
 6352              	.LBE1483:
ARM GAS  /tmp/ccZePa4k.s 			page 171


 6353              	.LBE1490:
  99:../../libDaisy//src/dev/oled_ssd130x.h ****             pin_config.reset = {DSY_GPIOB, 15};
 6354              		.loc 8 99 13 is_stmt 1 view .LVU1521
 100:../../libDaisy//src/dev/oled_ssd130x.h ****         }
 6355              		.loc 8 100 13 view .LVU1522
 6356              	.LVL507:
 6357              		.loc 11 25 5 view .LVU1523
 6358              		.loc 11 25 75 is_stmt 0 view .LVU1524
 6359 001e FFF7FEFF 		bl	_ZN5daisy9DaisySeed6GetPinEh
 6360              	.LVL508:
 6361 0022 0346     		mov	r3, r0	@ movhi
  26:Picologue.cpp ****     disp_cfg.driver_config.transport_config.pin_config.reset = hw.GetPin(30);
 6362              		.loc 11 26 76 view .LVU1525
 6363 0024 1E20     		movs	r0, #30
  25:Picologue.cpp ****     disp_cfg.driver_config.transport_config.pin_config.reset = hw.GetPin(30);
 6364              		.loc 11 25 75 view .LVU1526
 6365 0026 ADF84830 		strh	r3, [sp, #72]	@ movhi
 6366              		.loc 11 26 5 is_stmt 1 view .LVU1527
 6367              		.loc 11 26 76 is_stmt 0 view .LVU1528
 6368 002a FFF7FEFF 		bl	_ZN5daisy9DaisySeed6GetPinEh
 6369              	.LVL509:
 6370 002e 0222     		movs	r2, #2
 6371 0030 0023     		movs	r3, #0
 6372 0032 0B21     		movs	r1, #11
 6373 0034 0DF1200E 		add	lr, sp, #32
 6374 0038 0C94     		str	r4, [sp, #48]
 6375 003a 0DF14C0C 		add	ip, sp, #76
 6376 003e 0E93     		str	r3, [sp, #56]
 6377              	.LBB1491:
 6378              	.LBB1488:
  25:../../libDaisy//src/hid/disp/oled_display.h **** 
 6379              		.loc 6 25 44 view .LVU1529
 6380 0040 6C46     		mov	r4, sp
 6381 0042 0F93     		str	r3, [sp, #60]
 6382 0044 6646     		mov	r6, ip
 6383              	.LBE1488:
 6384              	.LBE1491:
 6385              		.loc 11 26 76 view .LVU1530
 6386 0046 ADF84A00 		strh	r0, [sp, #74]	@ movhi
  27:Picologue.cpp ****     /** And Initialize */
  28:Picologue.cpp ****     display.Init(disp_cfg);
 6387              		.loc 11 28 5 is_stmt 1 view .LVU1531
 6388              	.LVL510:
 6389              		.loc 11 28 5 is_stmt 0 view .LVU1532
 6390 004a ADF82210 		strh	r1, [sp, #34]	@ movhi
 6391 004e CDE91022 		strd	r2, r2, [sp, #64]
 6392 0052 0822     		movs	r2, #8
 6393 0054 CDE90A33 		strd	r3, r3, [sp, #40]
 6394 0058 0D92     		str	r2, [sp, #52]
 6395 005a BEE80F00 		ldmia	lr!, {r0, r1, r2, r3}
 6396 005e ACE80F00 		stmia	ip!, {r0, r1, r2, r3}
 6397 0062 BEE80F00 		ldmia	lr!, {r0, r1, r2, r3}
 6398 0066 ACE80F00 		stmia	ip!, {r0, r1, r2, r3}
 6399 006a 9EE80700 		ldm	lr, {r0, r1, r2}
 6400 006e 8CE80700 		stm	ip, {r0, r1, r2}
 6401              	.LBB1492:
 6402              	.LBI1486:
ARM GAS  /tmp/ccZePa4k.s 			page 172


  25:../../libDaisy//src/hid/disp/oled_display.h **** 
 6403              		.loc 6 25 10 is_stmt 1 view .LVU1533
 6404              	.LBB1489:
  25:../../libDaisy//src/hid/disp/oled_display.h **** 
 6405              		.loc 6 25 44 is_stmt 0 view .LVU1534
 6406 0072 0FCD     		ldmia	r5!, {r0, r1, r2, r3}
 6407 0074 0FC4     		stmia	r4!, {r0, r1, r2, r3}
 6408 0076 95E80F00 		ldm	r5, {r0, r1, r2, r3}
 6409 007a 84E80F00 		stm	r4, {r0, r1, r2, r3}
 6410 007e 07F10800 		add	r0, r7, #8
 6411 0082 96E80E00 		ldm	r6, {r1, r2, r3}
 6412 0086 FFF7FEFF 		bl	_ZN5daisy13SSD130xDriverILj128ELj64ENS_24SSD130x4WireSpiTransportEE4InitENS2_6ConfigE
 6413              	.LVL511:
  25:../../libDaisy//src/hid/disp/oled_display.h **** 
 6414              		.loc 6 25 44 view .LVU1535
 6415              	.LBE1489:
 6416              	.LBE1492:
  29:Picologue.cpp ****     menu.display = &display;
 6417              		.loc 11 29 5 is_stmt 1 view .LVU1536
 6418              		.loc 11 29 18 is_stmt 0 view .LVU1537
 6419 008a 064B     		ldr	r3, .L401+12
 6420 008c 1F60     		str	r7, [r3]
 6421              	.L399:
  30:Picologue.cpp ****     /* char strbuff[128];
  31:Picologue.cpp **** 	sprintf(strbuff, "VCO I"); */
  32:Picologue.cpp ****     while(1)
 6422              		.loc 11 32 5 is_stmt 1 discriminator 1 view .LVU1538
  33:Picologue.cpp ****     {
  34:Picologue.cpp ****         menu.drawMenu();
 6423              		.loc 11 34 9 discriminator 1 view .LVU1539
 6424              		.loc 11 34 22 is_stmt 0 discriminator 1 view .LVU1540
 6425 008e 0548     		ldr	r0, .L401+12
 6426 0090 FFF7FEFF 		bl	_ZN4Menu8drawMenuEv
 6427              	.LVL512:
  32:Picologue.cpp ****     {
 6428              		.loc 11 32 5 is_stmt 1 discriminator 1 view .LVU1541
 6429 0094 FBE7     		b	.L399
 6430              	.L402:
 6431 0096 00BF     		.align	2
 6432              	.L401:
 6433 0098 00000000 		.word	.LANCHOR0
 6434 009c 0105060A 		.word	168166657
 6435 00a0 00000000 		.word	.LANCHOR1
 6436 00a4 00000000 		.word	.LANCHOR2
 6437              		.cfi_endproc
 6438              	.LFE2554:
 6440              		.section	.text.startup._GLOBAL__sub_I_hw,"ax",%progbits
 6441              		.align	1
 6442              		.p2align 2,,3
 6443              		.syntax unified
 6444              		.thumb
 6445              		.thumb_func
 6447              	_GLOBAL__sub_I_hw:
 6448              	.LFB2616:
  35:Picologue.cpp ****     }
  36:Picologue.cpp **** }...
 6449              		.loc 11 36 1 view -0
ARM GAS  /tmp/ccZePa4k.s 			page 173


 6450              		.cfi_startproc
 6451              		@ args = 0, pretend = 0, frame = 0
 6452              		@ frame_needed = 0, uses_anonymous_args = 0
 6453              	.LBB1522:
 6454              	.LBI1522:
 6455              		.loc 11 36 1 view .LVU1543
 6456              	.LVL513:
 6457              	.LBB1523:
 6458              	.LBB1524:
 6459              	.LBI1524:
  21:../../libDaisy//src/daisy_seed.h ****     ~DaisySeed() {}
 6460              		.loc 1 21 5 view .LVU1544
 6461              	.LBB1525:
 6462              	.LBB1526:
 6463              	.LBI1526:
 6464              		.file 13 "../../libDaisy//src/per/qspi.h"
   1:../../libDaisy//src/per/qspi.h **** #ifndef DSY_QSPI
   2:../../libDaisy//src/per/qspi.h **** #define DSY_QSPI /**< Macro */
   3:../../libDaisy//src/per/qspi.h **** 
   4:../../libDaisy//src/per/qspi.h **** #ifndef UNIT_TEST // for unit tests, a dummy implementation
   5:../../libDaisy//src/per/qspi.h **** 
   6:../../libDaisy//src/per/qspi.h **** #include <cstdint>
   7:../../libDaisy//src/per/qspi.h **** #include "daisy_core.h" // Added for dsy_gpio_pin typedef
   8:../../libDaisy//src/per/qspi.h **** 
   9:../../libDaisy//src/per/qspi.h **** #define DSY_QSPI_TEXT       \
  10:../../libDaisy//src/per/qspi.h ****     __attribute__((section( \
  11:../../libDaisy//src/per/qspi.h ****         ".qspiflash_text"))) /**< used for reading memory in memory_mapped mode. */
  12:../../libDaisy//src/per/qspi.h **** #define DSY_QSPI_DATA       \
  13:../../libDaisy//src/per/qspi.h ****     __attribute__((section( \
  14:../../libDaisy//src/per/qspi.h ****         ".qspiflash_data"))) /**< used for reading memory in memory_mapped mode. */
  15:../../libDaisy//src/per/qspi.h **** #define DSY_QSPI_BSS        \
  16:../../libDaisy//src/per/qspi.h ****     __attribute__((section( \
  17:../../libDaisy//src/per/qspi.h ****         ".qspiflash_bss"))) /**< used for reading memory in memory_mapped mode. */
  18:../../libDaisy//src/per/qspi.h **** 
  19:../../libDaisy//src/per/qspi.h **** namespace daisy
  20:../../libDaisy//src/per/qspi.h **** {
  21:../../libDaisy//src/per/qspi.h **** /** @addtogroup serial
  22:../../libDaisy//src/per/qspi.h **** @{
  23:../../libDaisy//src/per/qspi.h **** */
  24:../../libDaisy//src/per/qspi.h **** 
  25:../../libDaisy//src/per/qspi.h **** /** 
  26:../../libDaisy//src/per/qspi.h ****  Driver for QSPI peripheral to interface with external flash memory. \n 
  27:../../libDaisy//src/per/qspi.h ****     Currently supported QSPI Devices: \n 
  28:../../libDaisy//src/per/qspi.h ****     * IS25LP080D
  29:../../libDaisy//src/per/qspi.h **** */
  30:../../libDaisy//src/per/qspi.h **** class QSPIHandle
  31:../../libDaisy//src/per/qspi.h **** {
  32:../../libDaisy//src/per/qspi.h ****   public:
  33:../../libDaisy//src/per/qspi.h ****     enum Result
  34:../../libDaisy//src/per/qspi.h ****     {
  35:../../libDaisy//src/per/qspi.h ****         OK = 0,
  36:../../libDaisy//src/per/qspi.h ****         ERR
  37:../../libDaisy//src/per/qspi.h ****     };
  38:../../libDaisy//src/per/qspi.h **** 
  39:../../libDaisy//src/per/qspi.h ****     /** Indicates the current status of the module. 
  40:../../libDaisy//src/per/qspi.h ****          *  Warnings are indicated by a leading W.
  41:../../libDaisy//src/per/qspi.h ****          *  Errors are indicated by a leading E and cause an immediate exit.
ARM GAS  /tmp/ccZePa4k.s 			page 174


  42:../../libDaisy//src/per/qspi.h ****          * 
  43:../../libDaisy//src/per/qspi.h ****          *  \param GOOD - No errors have been reported.
  44:../../libDaisy//src/per/qspi.h ****          *  \param E_HAL_ERROR - HAL code did not return HAL_OK.
  45:../../libDaisy//src/per/qspi.h ****          *  \param E_SWITCHING_MODES - An error was encountered while switching QSPI peripheral mod
  46:../../libDaisy//src/per/qspi.h ****          *  \param E_INVALID_MODE - QSPI should not be written to while the program is executing fr
  47:../../libDaisy//src/per/qspi.h ****          */
  48:../../libDaisy//src/per/qspi.h ****     enum Status
  49:../../libDaisy//src/per/qspi.h ****     {
  50:../../libDaisy//src/per/qspi.h ****         GOOD = 0,
  51:../../libDaisy//src/per/qspi.h ****         E_HAL_ERROR,
  52:../../libDaisy//src/per/qspi.h ****         E_SWITCHING_MODES,
  53:../../libDaisy//src/per/qspi.h ****         E_INVALID_MODE,
  54:../../libDaisy//src/per/qspi.h ****     };
  55:../../libDaisy//src/per/qspi.h **** 
  56:../../libDaisy//src/per/qspi.h ****     /** Configuration structure for interfacing with QSPI Driver */
  57:../../libDaisy//src/per/qspi.h ****     struct Config
  58:../../libDaisy//src/per/qspi.h ****     {
  59:../../libDaisy//src/per/qspi.h ****         /** Flash Devices supported. (Both of these are more-or-less the same, just different sizes
  60:../../libDaisy//src/per/qspi.h ****         enum Device
  61:../../libDaisy//src/per/qspi.h ****         {
  62:../../libDaisy//src/per/qspi.h ****             IS25LP080D,  /**< & */
  63:../../libDaisy//src/per/qspi.h ****             IS25LP064A,  /**< & */
  64:../../libDaisy//src/per/qspi.h ****             DEVICE_LAST, /**< & */
  65:../../libDaisy//src/per/qspi.h ****         };
  66:../../libDaisy//src/per/qspi.h **** 
  67:../../libDaisy//src/per/qspi.h ****         /** 
  68:../../libDaisy//src/per/qspi.h ****         Modes of operation.
  69:../../libDaisy//src/per/qspi.h ****         Memory Mapped mode: QSPI configured so that the QSPI can be
  70:../../libDaisy//src/per/qspi.h ****         read from starting address 0x90000000. Writing is not
  71:../../libDaisy//src/per/qspi.h ****         possible in this mode. \n 
  72:../../libDaisy//src/per/qspi.h ****         Indirect Polling mode: Device driver enabled. 
  73:../../libDaisy//src/per/qspi.h ****         */
  74:../../libDaisy//src/per/qspi.h ****         enum Mode
  75:../../libDaisy//src/per/qspi.h ****         {
  76:../../libDaisy//src/per/qspi.h ****             MEMORY_MAPPED,    /**< & */
  77:../../libDaisy//src/per/qspi.h ****             INDIRECT_POLLING, /**< & */
  78:../../libDaisy//src/per/qspi.h ****             MODE_LAST,
  79:../../libDaisy//src/per/qspi.h ****         };
  80:../../libDaisy//src/per/qspi.h **** 
  81:../../libDaisy//src/per/qspi.h ****         //SCK,  CE# (active low)
  82:../../libDaisy//src/per/qspi.h ****         struct
  83:../../libDaisy//src/per/qspi.h ****         {
  84:../../libDaisy//src/per/qspi.h ****             dsy_gpio_pin io0; /**< & */
  85:../../libDaisy//src/per/qspi.h ****             dsy_gpio_pin io1; /**< & */
  86:../../libDaisy//src/per/qspi.h ****             dsy_gpio_pin io2; /**< & */
  87:../../libDaisy//src/per/qspi.h ****             dsy_gpio_pin io3; /**< & */
  88:../../libDaisy//src/per/qspi.h ****             dsy_gpio_pin clk; /**< & */
  89:../../libDaisy//src/per/qspi.h ****             dsy_gpio_pin ncs; /**< & */
  90:../../libDaisy//src/per/qspi.h ****         } pin_config;
  91:../../libDaisy//src/per/qspi.h **** 
  92:../../libDaisy//src/per/qspi.h ****         Device device;
  93:../../libDaisy//src/per/qspi.h ****         Mode   mode;
  94:../../libDaisy//src/per/qspi.h ****     };
  95:../../libDaisy//src/per/qspi.h **** 
  96:../../libDaisy//src/per/qspi.h ****     /** 
  97:../../libDaisy//src/per/qspi.h ****         Initializes QSPI peripheral, and Resets, and prepares memory for access.
  98:../../libDaisy//src/per/qspi.h ****         \param config should be populated with the mode, device and pin_config before calling this 
ARM GAS  /tmp/ccZePa4k.s 			page 175


  99:../../libDaisy//src/per/qspi.h ****         \return Result::OK or Result::ERR
 100:../../libDaisy//src/per/qspi.h ****         */
 101:../../libDaisy//src/per/qspi.h ****     Result Init(const Config& config);
 102:../../libDaisy//src/per/qspi.h **** 
 103:../../libDaisy//src/per/qspi.h ****     /** Returns the current config. */
 104:../../libDaisy//src/per/qspi.h ****     const Config& GetConfig() const;
 105:../../libDaisy//src/per/qspi.h **** 
 106:../../libDaisy//src/per/qspi.h ****     // Couldn't this just be called before anything else in init? That
 107:../../libDaisy//src/per/qspi.h ****     // would make manually calling it unnecessary.
 108:../../libDaisy//src/per/qspi.h ****     /** 
 109:../../libDaisy//src/per/qspi.h ****         Deinitializes the peripheral
 110:../../libDaisy//src/per/qspi.h ****         This should be called before reinitializing QSPI in a different mode.
 111:../../libDaisy//src/per/qspi.h ****         \return Result::OK or Result::ERR
 112:../../libDaisy//src/per/qspi.h ****         */
 113:../../libDaisy//src/per/qspi.h ****     Result DeInit();
 114:../../libDaisy//src/per/qspi.h **** 
 115:../../libDaisy//src/per/qspi.h ****     /** 
 116:../../libDaisy//src/per/qspi.h ****         Writes a single page to to the specified address on the QSPI chip.
 117:../../libDaisy//src/per/qspi.h ****         For IS25LP*, page size is 256 bytes.
 118:../../libDaisy//src/per/qspi.h ****         \param address Address to write to
 119:../../libDaisy//src/per/qspi.h ****         \param size Buffer size
 120:../../libDaisy//src/per/qspi.h ****         \param buffer Buffer to write
 121:../../libDaisy//src/per/qspi.h ****         \return Result::OK or Result::ERR
 122:../../libDaisy//src/per/qspi.h ****         */
 123:../../libDaisy//src/per/qspi.h ****     Result WritePage(uint32_t address, uint32_t size, uint8_t* buffer);
 124:../../libDaisy//src/per/qspi.h **** 
 125:../../libDaisy//src/per/qspi.h ****     /** 
 126:../../libDaisy//src/per/qspi.h ****         Writes data in buffer to to the QSPI. Starting at address to address+size 
 127:../../libDaisy//src/per/qspi.h ****         \param address Address to write to
 128:../../libDaisy//src/per/qspi.h ****         \param size Buffer size
 129:../../libDaisy//src/per/qspi.h ****         \param buffer Buffer to write
 130:../../libDaisy//src/per/qspi.h ****         \return Result::OK or Result::ERR
 131:../../libDaisy//src/per/qspi.h ****         */
 132:../../libDaisy//src/per/qspi.h ****     Result Write(uint32_t address, uint32_t size, uint8_t* buffer);
 133:../../libDaisy//src/per/qspi.h **** 
 134:../../libDaisy//src/per/qspi.h ****     /** 
 135:../../libDaisy//src/per/qspi.h ****         Erases the area specified on the chip.
 136:../../libDaisy//src/per/qspi.h ****         Erasures will happen by 4K, 32K or 64K increments.
 137:../../libDaisy//src/per/qspi.h ****         Smallest erase possible is 4kB at a time. (on IS25LP*)
 138:../../libDaisy//src/per/qspi.h ****         \param start_addr Address to begin erasing from
 139:../../libDaisy//src/per/qspi.h ****         \param end_addr  Address to stop erasing at
 140:../../libDaisy//src/per/qspi.h ****         \return Result::OK or Result::ERR
 141:../../libDaisy//src/per/qspi.h ****         */
 142:../../libDaisy//src/per/qspi.h ****     Result Erase(uint32_t start_addr, uint32_t end_addr);
 143:../../libDaisy//src/per/qspi.h **** 
 144:../../libDaisy//src/per/qspi.h ****     /**  
 145:../../libDaisy//src/per/qspi.h ****          Erases a single sector of the chip.  
 146:../../libDaisy//src/per/qspi.h ****         TODO: Document the size of this function. 
 147:../../libDaisy//src/per/qspi.h ****         \param address Address of sector to erase
 148:../../libDaisy//src/per/qspi.h ****         \return Result::OK or Result::ERR
 149:../../libDaisy//src/per/qspi.h ****         */
 150:../../libDaisy//src/per/qspi.h ****     Result EraseSector(uint32_t address);
 151:../../libDaisy//src/per/qspi.h **** 
 152:../../libDaisy//src/per/qspi.h ****     /** Returns the current class status. Useful for debugging.
 153:../../libDaisy//src/per/qspi.h ****      *  \returns Status
 154:../../libDaisy//src/per/qspi.h ****      */
 155:../../libDaisy//src/per/qspi.h ****     Status GetStatus();
ARM GAS  /tmp/ccZePa4k.s 			page 176


 156:../../libDaisy//src/per/qspi.h **** 
 157:../../libDaisy//src/per/qspi.h ****     /** Returns a pointer to the actual memory used 
 158:../../libDaisy//src/per/qspi.h ****      *  The memory at this address is read-only
 159:../../libDaisy//src/per/qspi.h ****      *  to write to it use the Write function.
 160:../../libDaisy//src/per/qspi.h ****      * 
 161:../../libDaisy//src/per/qspi.h ****      *  \param offset returns the pointer starting this 
 162:../../libDaisy//src/per/qspi.h ****      *                many bytes into the memory
 163:../../libDaisy//src/per/qspi.h ****     */
 164:../../libDaisy//src/per/qspi.h ****     void* GetData(uint32_t offset = 0);
 165:../../libDaisy//src/per/qspi.h **** 
 166:../../libDaisy//src/per/qspi.h ****     QSPIHandle() : pimpl_(nullptr) {}
 6465              		.loc 13 166 5 view .LVU1545
 6466              	.LBE1526:
 6467              	.LBE1525:
 6468              	.LBE1524:
 6469              	.LBE1523:
 6470              	.LBE1522:
 6471              		.loc 11 36 1 is_stmt 0 view .LVU1546
 6472 0000 10B5     		push	{r4, lr}
 6473              		.cfi_def_cfa_offset 8
 6474              		.cfi_offset 4, -8
 6475              		.cfi_offset 14, -4
 6476              	.LBB1564:
 6477              	.LBB1562:
 6478              	.LBB1544:
 6479              	.LBB1542:
 6480              	.LBB1531:
 6481              	.LBB1527:
 6482              	.LBB1528:
 6483              		.loc 13 166 34 view .LVU1547
 6484 0002 0948     		ldr	r0, .L405
 6485 0004 0024     		movs	r4, #0
 6486              	.LBE1528:
 6487              	.LBE1527:
 6488              	.LBE1531:
 6489              	.LBE1542:
 6490              	.LBE1544:
  16:Picologue.cpp **** DaisySeed     hw;
 6491              		.loc 11 16 15 view .LVU1548
 6492 0006 094A     		ldr	r2, .L405+4
 6493 0008 0949     		ldr	r1, .L405+8
 6494              	.LBB1545:
 6495              	.LBB1543:
 6496              	.LBB1532:
 6497              	.LBB1530:
 6498              	.LBB1529:
 6499              		.loc 13 166 34 view .LVU1549
 6500 000a 0460     		str	r4, [r0]
 6501              	.LVL514:
 6502              		.loc 13 166 34 view .LVU1550
 6503              	.LBE1529:
 6504              	.LBE1530:
 6505              	.LBE1532:
 6506              	.LBB1533:
 6507              	.LBI1533:
  95:../../libDaisy//src/hid/audio.h ****     ~AudioHandle() {}
 6508              		.loc 5 95 5 is_stmt 1 view .LVU1551
ARM GAS  /tmp/ccZePa4k.s 			page 177


 6509              	.LBB1534:
 6510              	.LBB1535:
  95:../../libDaisy//src/hid/audio.h ****     ~AudioHandle() {}
 6511              		.loc 5 95 35 is_stmt 0 view .LVU1552
 6512 000c 4461     		str	r4, [r0, #20]
 6513              	.LVL515:
  95:../../libDaisy//src/hid/audio.h ****     ~AudioHandle() {}
 6514              		.loc 5 95 35 view .LVU1553
 6515              	.LBE1535:
 6516              	.LBE1534:
 6517              	.LBE1533:
 6518              	.LBB1536:
 6519              	.LBI1536:
  92:../../libDaisy//src/per/adc.h ****     ~AdcHandle() {}
 6520              		.loc 4 92 5 is_stmt 1 view .LVU1554
  92:../../libDaisy//src/per/adc.h ****     ~AdcHandle() {}
 6521              		.loc 4 92 5 is_stmt 0 view .LVU1555
 6522              	.LBE1536:
 6523              	.LBB1537:
 6524              	.LBI1537:
 6525              		.file 14 "../../libDaisy//src/per/dac.h"
   1:../../libDaisy//src/per/dac.h **** #pragma once
   2:../../libDaisy//src/per/dac.h **** #ifndef DSY_DAC_H
   3:../../libDaisy//src/per/dac.h **** #define DSY_DAC_H
   4:../../libDaisy//src/per/dac.h **** 
   5:../../libDaisy//src/per/dac.h **** #include "daisy_core.h"
   6:../../libDaisy//src/per/dac.h **** 
   7:../../libDaisy//src/per/dac.h **** namespace daisy
   8:../../libDaisy//src/per/dac.h **** {
   9:../../libDaisy//src/per/dac.h **** /** @brief DAC handle for Built-in DAC Peripheral 
  10:../../libDaisy//src/per/dac.h ****  *  @ingroup per_analog
  11:../../libDaisy//src/per/dac.h ****  ** 
  12:../../libDaisy//src/per/dac.h ****  ** For now only Normal Mode is supported,
  13:../../libDaisy//src/per/dac.h ****  ** Sample and hold mode provides reduced power consumption, but requires a bit more setup.
  14:../../libDaisy//src/per/dac.h ****  **
  15:../../libDaisy//src/per/dac.h ****  ** For now connecting the DAC through other internal peripherals is also not supported.
  16:../../libDaisy//src/per/dac.h ****  **
  17:../../libDaisy//src/per/dac.h ****  ** Since the DAC channels have dedicated pins we don't need to pass in a pin config like with
  18:../../libDaisy//src/per/dac.h ****  ** other modules. However, it is still important to not try to use the DAC pins for anything else.
  19:../../libDaisy//src/per/dac.h ****  ** DAC Channel 1 is on PA4, and DAC Channel 2 is on PA5
  20:../../libDaisy//src/per/dac.h ****  ***/
  21:../../libDaisy//src/per/dac.h **** class DacHandle
  22:../../libDaisy//src/per/dac.h **** {
  23:../../libDaisy//src/per/dac.h ****   public:
  24:../../libDaisy//src/per/dac.h ****     /** Return Values for the DacHandle class */
  25:../../libDaisy//src/per/dac.h ****     enum class Result
  26:../../libDaisy//src/per/dac.h ****     {
  27:../../libDaisy//src/per/dac.h ****         OK,
  28:../../libDaisy//src/per/dac.h ****         ERR,
  29:../../libDaisy//src/per/dac.h ****     };
  30:../../libDaisy//src/per/dac.h **** 
  31:../../libDaisy//src/per/dac.h ****     /** Selects which channel(s) will be configured for use. */
  32:../../libDaisy//src/per/dac.h ****     enum class Channel
  33:../../libDaisy//src/per/dac.h ****     {
  34:../../libDaisy//src/per/dac.h ****         ONE,
  35:../../libDaisy//src/per/dac.h ****         TWO,
  36:../../libDaisy//src/per/dac.h ****         BOTH,
ARM GAS  /tmp/ccZePa4k.s 			page 178


  37:../../libDaisy//src/per/dac.h ****     };
  38:../../libDaisy//src/per/dac.h **** 
  39:../../libDaisy//src/per/dac.h ****     /** Sets the Mode for the DAC channels.
  40:../../libDaisy//src/per/dac.h ****      **
  41:../../libDaisy//src/per/dac.h ****      ** Polling mode uses the blocking mode to transmit a single value at a time.
  42:../../libDaisy//src/per/dac.h ****      **
  43:../../libDaisy//src/per/dac.h ****      ** DMA mode uses a buffer, and periodically transmits it triggering a 
  44:../../libDaisy//src/per/dac.h ****      ** callback to fill the buffer when it is ready for more samples.
  45:../../libDaisy//src/per/dac.h ****      ***/
  46:../../libDaisy//src/per/dac.h ****     enum class Mode
  47:../../libDaisy//src/per/dac.h ****     {
  48:../../libDaisy//src/per/dac.h ****         POLLING,
  49:../../libDaisy//src/per/dac.h ****         DMA,
  50:../../libDaisy//src/per/dac.h ****     };
  51:../../libDaisy//src/per/dac.h **** 
  52:../../libDaisy//src/per/dac.h ****     /** Sets the number of bits per sample transmitted out of the DAC.
  53:../../libDaisy//src/per/dac.h ****      ** The output range will be: 0V - VDDA
  54:../../libDaisy//src/per/dac.h ****      ** The resolution will be roughly: bitdepth / (VDDA - 0V) 
  55:../../libDaisy//src/per/dac.h ****      ***/
  56:../../libDaisy//src/per/dac.h ****     enum class BitDepth
  57:../../libDaisy//src/per/dac.h ****     {
  58:../../libDaisy//src/per/dac.h ****         BITS_8,
  59:../../libDaisy//src/per/dac.h ****         BITS_12
  60:../../libDaisy//src/per/dac.h ****     };
  61:../../libDaisy//src/per/dac.h **** 
  62:../../libDaisy//src/per/dac.h ****     /** Sets whether the DAC output is buffered for higher drive ability. */
  63:../../libDaisy//src/per/dac.h ****     enum class BufferState
  64:../../libDaisy//src/per/dac.h ****     {
  65:../../libDaisy//src/per/dac.h ****         ENABLED,
  66:../../libDaisy//src/per/dac.h ****         DISABLED,
  67:../../libDaisy//src/per/dac.h ****     };
  68:../../libDaisy//src/per/dac.h **** 
  69:../../libDaisy//src/per/dac.h ****     /** Configuration structure for initializing the DAC structure. */
  70:../../libDaisy//src/per/dac.h ****     struct Config
  71:../../libDaisy//src/per/dac.h ****     {
  72:../../libDaisy//src/per/dac.h ****         /** Target Samplerate in Hz used to configure the internal 
  73:../../libDaisy//src/per/dac.h ****          ** timebase for DMA mode. Does nothing in POLLING mode.
  74:../../libDaisy//src/per/dac.h ****          ** If the value is 0 at Init time this will default to 48000Hz 
  75:../../libDaisy//src/per/dac.h ****          ** otherwise the driver will attempt meet the target.*/
  76:../../libDaisy//src/per/dac.h ****         uint32_t target_samplerate;
  77:../../libDaisy//src/per/dac.h **** 
  78:../../libDaisy//src/per/dac.h ****         Channel     chn;
  79:../../libDaisy//src/per/dac.h ****         Mode        mode;
  80:../../libDaisy//src/per/dac.h ****         BitDepth    bitdepth;
  81:../../libDaisy//src/per/dac.h ****         BufferState buff_state;
  82:../../libDaisy//src/per/dac.h ****     };
  83:../../libDaisy//src/per/dac.h **** 
  84:../../libDaisy//src/per/dac.h ****     DacHandle() : pimpl_(nullptr) {}
 6526              		.loc 14 84 5 is_stmt 1 view .LVU1556
 6527              	.LBB1538:
 6528              	.LBB1539:
 6529              		.loc 14 84 33 is_stmt 0 view .LVU1557
 6530 000e 0462     		str	r4, [r0, #32]
 6531              	.LVL516:
 6532              		.loc 14 84 33 view .LVU1558
 6533              	.LBE1539:
 6534              	.LBE1538:
ARM GAS  /tmp/ccZePa4k.s 			page 179


 6535              	.LBE1537:
 6536              	.LBB1540:
 6537              	.LBI1540:
  40:../../libDaisy//src/hid/usb.h **** 
 6538              		.loc 3 40 5 is_stmt 1 view .LVU1559
  40:../../libDaisy//src/hid/usb.h **** 
 6539              		.loc 3 40 5 is_stmt 0 view .LVU1560
 6540              	.LBE1540:
 6541              	.LBB1541:
 6542              	.LBI1541:
  77:../../libDaisy//src/sys/system.h ****     ~System() {}
 6543              		.loc 2 77 5 is_stmt 1 view .LVU1561
  77:../../libDaisy//src/sys/system.h ****     ~System() {}
 6544              		.loc 2 77 5 is_stmt 0 view .LVU1562
 6545              	.LBE1541:
 6546              	.LBE1543:
 6547              	.LBE1545:
  16:Picologue.cpp **** DaisySeed     hw;
 6548              		.loc 11 16 15 view .LVU1563
 6549 0010 FFF7FEFF 		bl	__aeabi_atexit
 6550              	.LVL517:
 6551              	.LBB1546:
 6552              	.LBI1546:
  17:../../libDaisy//src/hid/disp/oled_display.h ****     virtual ~OledDisplay() {}
 6553              		.loc 6 17 5 is_stmt 1 view .LVU1564
 6554              	.LBB1547:
 6555              	.LBB1548:
 6556              	.LBB1549:
 6557              	.LBI1549:
 218:../../libDaisy//src/hid/disp/display.h ****     virtual ~OneBitGraphicsDisplayImpl() {}
 6558              		.loc 7 218 5 view .LVU1565
 6559              	.LBB1550:
 6560              	.LBI1550:
  22:../../libDaisy//src/hid/disp/display.h ****     virtual ~OneBitGraphicsDisplay() {}
 6561              		.loc 7 22 5 view .LVU1566
  22:../../libDaisy//src/hid/disp/display.h ****     virtual ~OneBitGraphicsDisplay() {}
 6562              		.loc 7 22 5 is_stmt 0 view .LVU1567
 6563              	.LBE1550:
 6564              	.LBE1549:
  17:../../libDaisy//src/hid/disp/oled_display.h ****     virtual ~OledDisplay() {}
 6565              		.loc 6 17 19 view .LVU1568
 6566 0014 0748     		ldr	r0, .L405+12
 6567 0016 084B     		ldr	r3, .L405+16
 6568              	.LBB1551:
 6569              	.LBB1552:
 6570              	.LBB1553:
 6571              	.LBB1554:
 6572              	.LBB1555:
  94:../../libDaisy//src/per/spi.h ****         }
  95:../../libDaisy//src/per/spi.h **** 
  96:../../libDaisy//src/per/spi.h ****         Peripheral    periph;
  97:../../libDaisy//src/per/spi.h ****         Mode          mode;
  98:../../libDaisy//src/per/spi.h ****         Direction     direction;
  99:../../libDaisy//src/per/spi.h ****         unsigned long datasize;
 100:../../libDaisy//src/per/spi.h ****         ClockPolarity clock_polarity;
 101:../../libDaisy//src/per/spi.h ****         ClockPhase    clock_phase;
 102:../../libDaisy//src/per/spi.h ****         NSS           nss;
ARM GAS  /tmp/ccZePa4k.s 			page 180


 103:../../libDaisy//src/per/spi.h ****         BaudPrescaler baud_prescaler;
 104:../../libDaisy//src/per/spi.h ****     };
 105:../../libDaisy//src/per/spi.h **** 
 106:../../libDaisy//src/per/spi.h ****     SpiHandle() : pimpl_(nullptr) {}
 6573              		.loc 12 106 33 view .LVU1569
 6574 0018 8460     		str	r4, [r0, #8]
 6575              	.LBE1555:
 6576              	.LBE1554:
 6577              	.LBE1553:
 6578              	.LBE1552:
 6579              	.LBE1551:
 6580              	.LBE1548:
 6581              	.LBE1547:
 6582              	.LBE1546:
  17:Picologue.cpp **** MyOledDisplay display;
 6583              		.loc 11 17 15 view .LVU1570
 6584 001a 044A     		ldr	r2, .L405+4
 6585 001c 0749     		ldr	r1, .L405+20
 6586              	.LBB1561:
 6587              	.LBB1560:
 6588              	.LBB1559:
  17:../../libDaisy//src/hid/disp/oled_display.h ****     virtual ~OledDisplay() {}
 6589              		.loc 6 17 19 view .LVU1571
 6590 001e 0360     		str	r3, [r0]
 6591              	.LVL518:
 6592              	.LBB1558:
 6593              	.LBI1551:
 145:../../libDaisy//src/dev/oled_ssd130x.h **** {
 6594              		.loc 8 145 7 is_stmt 1 view .LVU1572
 6595              	.LBB1557:
 6596              	.LBI1552:
  65:../../libDaisy//src/dev/oled_ssd130x.h **** {
 6597              		.loc 8 65 7 view .LVU1573
 6598              	.LBB1556:
 6599              	.LBI1553:
 6600              		.loc 12 106 5 view .LVU1574
 6601              		.loc 12 106 5 is_stmt 0 view .LVU1575
 6602              	.LBE1556:
 6603              	.LBE1557:
 6604              	.LBE1558:
 6605              	.LBE1559:
 6606              	.LBE1560:
 6607              	.LBE1561:
 6608              	.LBE1562:
 6609              	.LBE1564:
 6610              		.loc 11 36 1 view .LVU1576
 6611 0020 BDE81040 		pop	{r4, lr}
 6612              		.cfi_restore 14
 6613              		.cfi_restore 4
 6614              		.cfi_def_cfa_offset 0
 6615              	.LBB1565:
 6616              	.LBB1563:
  17:Picologue.cpp **** MyOledDisplay display;
 6617              		.loc 11 17 15 view .LVU1577
 6618 0024 FFF7FEBF 		b	__aeabi_atexit
 6619              	.LVL519:
 6620              	.L406:
ARM GAS  /tmp/ccZePa4k.s 			page 181


 6621              		.align	2
 6622              	.L405:
 6623 0028 00000000 		.word	.LANCHOR0
 6624 002c 00000000 		.word	__dso_handle
 6625 0030 00000000 		.word	_ZN5daisy9DaisySeedD1Ev
 6626 0034 00000000 		.word	.LANCHOR1
 6627 0038 08000000 		.word	_ZTVN5daisy11OledDisplayINS_13SSD130xDriverILj128ELj64ENS_24SSD130x4WireSpiTransportEEEEE+8
 6628 003c 00000000 		.word	_ZN5daisy11OledDisplayINS_13SSD130xDriverILj128ELj64ENS_24SSD130x4WireSpiTransportEEEED1Ev
 6629              	.LBE1563:
 6630              	.LBE1565:
 6631              		.cfi_endproc
 6632              	.LFE2616:
 6634              		.section	.init_array,"aw",%init_array
 6635              		.align	2
 6636 0000 00000000 		.word	_GLOBAL__sub_I_hw(target1)
 6637              		.weak	_ZTVN5daisy11OledDisplayINS_13SSD130xDriverILj128ELj64ENS_24SSD130x4WireSpiTransportEEEEE
 6638              		.section	.rodata._ZTVN5daisy11OledDisplayINS_13SSD130xDriverILj128ELj64ENS_24SSD130x4WireSpiTransp
 6639              		.align	2
 6642              	_ZTVN5daisy11OledDisplayINS_13SSD130xDriverILj128ELj64ENS_24SSD130x4WireSpiTransportEEEEE:
 6643 0000 00000000 		.word	0
 6644 0004 00000000 		.word	0
 6645 0008 00000000 		.word	_ZN5daisy11OledDisplayINS_13SSD130xDriverILj128ELj64ENS_24SSD130x4WireSpiTransportEEEED1Ev
 6646 000c 00000000 		.word	_ZN5daisy11OledDisplayINS_13SSD130xDriverILj128ELj64ENS_24SSD130x4WireSpiTransportEEEED0Ev
 6647 0010 00000000 		.word	_ZNK5daisy11OledDisplayINS_13SSD130xDriverILj128ELj64ENS_24SSD130x4WireSpiTransportEEEE6Heig
 6648 0014 00000000 		.word	_ZNK5daisy11OledDisplayINS_13SSD130xDriverILj128ELj64ENS_24SSD130x4WireSpiTransportEEEE5Widt
 6649 0018 00000000 		.word	_ZN5daisy11OledDisplayINS_13SSD130xDriverILj128ELj64ENS_24SSD130x4WireSpiTransportEEEE4FillE
 6650 001c 00000000 		.word	_ZN5daisy11OledDisplayINS_13SSD130xDriverILj128ELj64ENS_24SSD130x4WireSpiTransportEEEE9DrawP
 6651 0020 00000000 		.word	_ZN5daisy25OneBitGraphicsDisplayImplINS_11OledDisplayINS_13SSD130xDriverILj128ELj64ENS_24SSD
 6652 0024 00000000 		.word	_ZN5daisy25OneBitGraphicsDisplayImplINS_11OledDisplayINS_13SSD130xDriverILj128ELj64ENS_24SSD
 6653 0028 00000000 		.word	_ZN5daisy25OneBitGraphicsDisplayImplINS_11OledDisplayINS_13SSD130xDriverILj128ELj64ENS_24SSD
 6654 002c 00000000 		.word	_ZN5daisy25OneBitGraphicsDisplayImplINS_11OledDisplayINS_13SSD130xDriverILj128ELj64ENS_24SSD
 6655 0030 00000000 		.word	_ZN5daisy25OneBitGraphicsDisplayImplINS_11OledDisplayINS_13SSD130xDriverILj128ELj64ENS_24SSD
 6656 0034 00000000 		.word	_ZN5daisy25OneBitGraphicsDisplayImplINS_11OledDisplayINS_13SSD130xDriverILj128ELj64ENS_24SSD
 6657 0038 00000000 		.word	_ZN5daisy11OledDisplayINS_13SSD130xDriverILj128ELj64ENS_24SSD130x4WireSpiTransportEEEE6Updat
 6658              		.global	menu
 6659              		.global	display
 6660              		.global	hw
 6661              		.section	.bss.display,"aw",%nobits
 6662              		.align	2
 6663              		.set	.LANCHOR1,. + 0
 6666              	display:
 6667 0000 00000000 		.space	1044
 6667      00000000 
 6667      00000000 
 6667      00000000 
 6667      00000000 
 6668              		.section	.bss.hw,"aw",%nobits
 6669              		.align	2
 6670              		.set	.LANCHOR0,. + 0
 6673              	hw:
 6674 0000 00000000 		.space	60
 6674      00000000 
 6674      00000000 
 6674      00000000 
 6674      00000000 
 6675              		.section	.bss.menu,"aw",%nobits
 6676              		.align	2
ARM GAS  /tmp/ccZePa4k.s 			page 182


 6677              		.set	.LANCHOR2,. + 0
 6680              	menu:
 6681 0000 00000000 		.space	4
 6682              		.text
 6683              	.Letext0:
 6684              		.file 15 "/home/vinfernandes/Projects/daisy/gcc-arm/arm-none-eabi/include/machine/_default_types.h
 6685              		.file 16 "/home/vinfernandes/Projects/daisy/gcc-arm/arm-none-eabi/include/sys/_stdint.h"
 6686              		.file 17 "/home/vinfernandes/Projects/daisy/gcc-arm/arm-none-eabi/include/stdint.h"
 6687              		.file 18 "/home/vinfernandes/Projects/daisy/gcc-arm/lib/gcc/arm-none-eabi/10.3.1/include/stddef.h"
 6688              		.file 19 "/home/vinfernandes/Projects/daisy/gcc-arm/arm-none-eabi/include/c++/10.3.1/bits/std_abs.
 6689              		.file 20 "/home/vinfernandes/Projects/daisy/gcc-arm/arm-none-eabi/include/c++/10.3.1/cstdlib"
 6690              		.file 21 "/home/vinfernandes/Projects/daisy/gcc-arm/arm-none-eabi/include/c++/10.3.1/cstdint"
 6691              		.file 22 "/home/vinfernandes/Projects/daisy/gcc-arm/arm-none-eabi/include/c++/10.3.1/type_traits"
 6692              		.file 23 "/home/vinfernandes/Projects/daisy/gcc-arm/arm-none-eabi/include/c++/10.3.1/debug/debug.h
 6693              		.file 24 "/home/vinfernandes/Projects/daisy/gcc-arm/arm-none-eabi/include/c++/10.3.1/arm-none-eabi
 6694              		.file 25 "/home/vinfernandes/Projects/daisy/gcc-arm/arm-none-eabi/include/c++/10.3.1/bits/algorith
 6695              		.file 26 "/home/vinfernandes/Projects/daisy/gcc-arm/arm-none-eabi/include/c++/10.3.1/bits/stl_pair
 6696              		.file 27 "/home/vinfernandes/Projects/daisy/gcc-arm/arm-none-eabi/include/c++/10.3.1/bits/exceptio
 6697              		.file 28 "/home/vinfernandes/Projects/daisy/gcc-arm/arm-none-eabi/include/c++/10.3.1/cstdarg"
 6698              		.file 29 "/home/vinfernandes/Projects/daisy/gcc-arm/arm-none-eabi/include/c++/10.3.1/cstdio"
 6699              		.file 30 "/home/vinfernandes/Projects/daisy/gcc-arm/arm-none-eabi/include/c++/10.3.1/cstring"
 6700              		.file 31 "/home/vinfernandes/Projects/daisy/gcc-arm/arm-none-eabi/include/c++/10.3.1/bits/predefin
 6701              		.file 32 "/home/vinfernandes/Projects/daisy/gcc-arm/arm-none-eabi/include/sys/_types.h"
 6702              		.file 33 "/home/vinfernandes/Projects/daisy/gcc-arm/arm-none-eabi/include/sys/reent.h"
 6703              		.file 34 "/home/vinfernandes/Projects/daisy/gcc-arm/arm-none-eabi/include/sys/lock.h"
 6704              		.file 35 "/home/vinfernandes/Projects/daisy/gcc-arm/arm-none-eabi/include/math.h"
 6705              		.file 36 "/home/vinfernandes/Projects/daisy/gcc-arm/arm-none-eabi/include/stdlib.h"
 6706              		.file 37 "/home/vinfernandes/Projects/daisy/gcc-arm/arm-none-eabi/include/c++/10.3.1/math.h"
 6707              		.file 38 "/home/vinfernandes/Projects/daisy/gcc-arm/lib/gcc/arm-none-eabi/10.3.1/include/stdarg.h"
 6708              		.file 39 "/home/vinfernandes/Projects/daisy/gcc-arm/arm-none-eabi/include/stdio.h"
 6709              		.file 40 "/home/vinfernandes/Projects/daisy/gcc-arm/arm-none-eabi/include/c++/10.3.1/stdlib.h"
 6710              		.file 41 "../../libDaisy//src/daisy_core.h"
 6711              		.file 42 "../../libDaisy//src/per/tim.h"
 6712              		.file 43 "../../libDaisy//src/per/sai.h"
 6713              		.file 44 "../../libDaisy//src/util/wav_format.h"
 6714              		.file 45 "../../libDaisy//src/dev/max11300.h"
 6715              		.file 46 "../../libDaisy//src/per/gpio.h"
 6716              		.file 47 "../../libDaisy//src/dev/sdram.h"
 6717              		.file 48 "../../libDaisy//src/util/oled_fonts.h"
 6718              		.file 49 "/home/vinfernandes/Projects/daisy/gcc-arm/arm-none-eabi/include/string.h"
 6719              		.file 50 "Menu.h"
 6720              		.file 51 "/home/vinfernandes/Projects/daisy/gcc-arm/arm-none-eabi/include/c++/10.3.1/new"
 6721              		.file 52 "<built-in>"
 6722              		.file 53 "../../libDaisy//src/dev/sr_595.h"
ARM GAS  /tmp/ccZePa4k.s 			page 183


DEFINED SYMBOLS
                            *ABS*:0000000000000000 Picologue.cpp
     /tmp/ccZePa4k.s:19     .text._ZN5daisy9DaisySeedD2Ev:0000000000000000 $t
     /tmp/ccZePa4k.s:26     .text._ZN5daisy9DaisySeedD2Ev:0000000000000000 _ZN5daisy9DaisySeedD2Ev
     /tmp/ccZePa4k.s:26     .text._ZN5daisy9DaisySeedD2Ev:0000000000000000 _ZN5daisy9DaisySeedD1Ev
     /tmp/ccZePa4k.s:67     .text._ZN5daisy11OledDisplayINS_13SSD130xDriverILj128ELj64ENS_24SSD130x4WireSpiTransportEEEED2Ev:0000000000000000 $t
     /tmp/ccZePa4k.s:74     .text._ZN5daisy11OledDisplayINS_13SSD130xDriverILj128ELj64ENS_24SSD130x4WireSpiTransportEEEED2Ev:0000000000000000 _ZN5daisy11OledDisplayINS_13SSD130xDriverILj128ELj64ENS_24SSD130x4WireSpiTransportEEEED2Ev
     /tmp/ccZePa4k.s:74     .text._ZN5daisy11OledDisplayINS_13SSD130xDriverILj128ELj64ENS_24SSD130x4WireSpiTransportEEEED2Ev:0000000000000000 _ZN5daisy11OledDisplayINS_13SSD130xDriverILj128ELj64ENS_24SSD130x4WireSpiTransportEEEED1Ev
     /tmp/ccZePa4k.s:101    .text._ZNK5daisy11OledDisplayINS_13SSD130xDriverILj128ELj64ENS_24SSD130x4WireSpiTransportEEEE6HeightEv:0000000000000000 $t
     /tmp/ccZePa4k.s:108    .text._ZNK5daisy11OledDisplayINS_13SSD130xDriverILj128ELj64ENS_24SSD130x4WireSpiTransportEEEE6HeightEv:0000000000000000 _ZNK5daisy11OledDisplayINS_13SSD130xDriverILj128ELj64ENS_24SSD130x4WireSpiTransportEEEE6HeightEv
     /tmp/ccZePa4k.s:125    .text._ZNK5daisy11OledDisplayINS_13SSD130xDriverILj128ELj64ENS_24SSD130x4WireSpiTransportEEEE5WidthEv:0000000000000000 $t
     /tmp/ccZePa4k.s:132    .text._ZNK5daisy11OledDisplayINS_13SSD130xDriverILj128ELj64ENS_24SSD130x4WireSpiTransportEEEE5WidthEv:0000000000000000 _ZNK5daisy11OledDisplayINS_13SSD130xDriverILj128ELj64ENS_24SSD130x4WireSpiTransportEEEE5WidthEv
     /tmp/ccZePa4k.s:149    .text._ZN5daisy11OledDisplayINS_13SSD130xDriverILj128ELj64ENS_24SSD130x4WireSpiTransportEEEE4FillEb:0000000000000000 $t
     /tmp/ccZePa4k.s:156    .text._ZN5daisy11OledDisplayINS_13SSD130xDriverILj128ELj64ENS_24SSD130x4WireSpiTransportEEEE4FillEb:0000000000000000 _ZN5daisy11OledDisplayINS_13SSD130xDriverILj128ELj64ENS_24SSD130x4WireSpiTransportEEEE4FillEb
     /tmp/ccZePa4k.s:188    .text._ZN5daisy11OledDisplayINS_13SSD130xDriverILj128ELj64ENS_24SSD130x4WireSpiTransportEEEED0Ev:0000000000000000 $t
     /tmp/ccZePa4k.s:195    .text._ZN5daisy11OledDisplayINS_13SSD130xDriverILj128ELj64ENS_24SSD130x4WireSpiTransportEEEED0Ev:0000000000000000 _ZN5daisy11OledDisplayINS_13SSD130xDriverILj128ELj64ENS_24SSD130x4WireSpiTransportEEEED0Ev
     /tmp/ccZePa4k.s:235    .text._ZN5daisy11OledDisplayINS_13SSD130xDriverILj128ELj64ENS_24SSD130x4WireSpiTransportEEEE6UpdateEv:0000000000000000 $t
     /tmp/ccZePa4k.s:242    .text._ZN5daisy11OledDisplayINS_13SSD130xDriverILj128ELj64ENS_24SSD130x4WireSpiTransportEEEE6UpdateEv:0000000000000000 _ZN5daisy11OledDisplayINS_13SSD130xDriverILj128ELj64ENS_24SSD130x4WireSpiTransportEEEE6UpdateEv
     /tmp/ccZePa4k.s:429    .text._ZN5daisy25OneBitGraphicsDisplayImplINS_11OledDisplayINS_13SSD130xDriverILj128ELj64ENS_24SSD130x4WireSpiTransportEEEEEE11WriteStringEPKc7FontDefb:0000000000000000 $t
     /tmp/ccZePa4k.s:436    .text._ZN5daisy25OneBitGraphicsDisplayImplINS_11OledDisplayINS_13SSD130xDriverILj128ELj64ENS_24SSD130x4WireSpiTransportEEEEEE11WriteStringEPKc7FontDefb:0000000000000000 _ZN5daisy25OneBitGraphicsDisplayImplINS_11OledDisplayINS_13SSD130xDriverILj128ELj64ENS_24SSD130x4WireSpiTransportEEEEEE11WriteStringEPKc7FontDefb
     /tmp/ccZePa4k.s:893    .text._ZN5daisy25OneBitGraphicsDisplayImplINS_11OledDisplayINS_13SSD130xDriverILj128ELj64ENS_24SSD130x4WireSpiTransportEEEEEE11WriteStringEPKc7FontDefb:00000000000001b8 $d
     /tmp/ccZePa4k.s:903    .text._ZN5daisy25OneBitGraphicsDisplayImplINS_11OledDisplayINS_13SSD130xDriverILj128ELj64ENS_24SSD130x4WireSpiTransportEEEEEE9WriteCharEc7FontDefb:0000000000000000 $t
     /tmp/ccZePa4k.s:910    .text._ZN5daisy25OneBitGraphicsDisplayImplINS_11OledDisplayINS_13SSD130xDriverILj128ELj64ENS_24SSD130x4WireSpiTransportEEEEEE9WriteCharEc7FontDefb:0000000000000000 _ZN5daisy25OneBitGraphicsDisplayImplINS_11OledDisplayINS_13SSD130xDriverILj128ELj64ENS_24SSD130x4WireSpiTransportEEEEEE9WriteCharEc7FontDefb
     /tmp/ccZePa4k.s:1336   .text._ZN5daisy25OneBitGraphicsDisplayImplINS_11OledDisplayINS_13SSD130xDriverILj128ELj64ENS_24SSD130x4WireSpiTransportEEEEEE9WriteCharEc7FontDefb:0000000000000198 $d
     /tmp/ccZePa4k.s:1344   .text._ZN5daisy25OneBitGraphicsDisplayImplINS_11OledDisplayINS_13SSD130xDriverILj128ELj64ENS_24SSD130x4WireSpiTransportEEEEEE18WriteStringAlignedEPKcRK7FontDefNS_9RectangleENS_9AlignmentEb:0000000000000000 $t
     /tmp/ccZePa4k.s:1351   .text._ZN5daisy25OneBitGraphicsDisplayImplINS_11OledDisplayINS_13SSD130xDriverILj128ELj64ENS_24SSD130x4WireSpiTransportEEEEEE18WriteStringAlignedEPKcRK7FontDefNS_9RectangleENS_9AlignmentEb:0000000000000000 _ZN5daisy25OneBitGraphicsDisplayImplINS_11OledDisplayINS_13SSD130xDriverILj128ELj64ENS_24SSD130x4WireSpiTransportEEEEEE18WriteStringAlignedEPKcRK7FontDefNS_9RectangleENS_9AlignmentEb
     /tmp/ccZePa4k.s:1490   .text._ZN5daisy25OneBitGraphicsDisplayImplINS_11OledDisplayINS_13SSD130xDriverILj128ELj64ENS_24SSD130x4WireSpiTransportEEEEEE18WriteStringAlignedEPKcRK7FontDefNS_9RectangleENS_9AlignmentEb:0000000000000046 $d
     /tmp/ccZePa4k.s:1499   .text._ZN5daisy25OneBitGraphicsDisplayImplINS_11OledDisplayINS_13SSD130xDriverILj128ELj64ENS_24SSD130x4WireSpiTransportEEEEEE18WriteStringAlignedEPKcRK7FontDefNS_9RectangleENS_9AlignmentEb:0000000000000058 $t
     /tmp/ccZePa4k.s:2707   .text._ZN5daisy25OneBitGraphicsDisplayImplINS_11OledDisplayINS_13SSD130xDriverILj128ELj64ENS_24SSD130x4WireSpiTransportEEEEEE18WriteStringAlignedEPKcRK7FontDefNS_9RectangleENS_9AlignmentEb:000000000000031c $d
     /tmp/ccZePa4k.s:2716   .text._ZN5daisy25OneBitGraphicsDisplayImplINS_11OledDisplayINS_13SSD130xDriverILj128ELj64ENS_24SSD130x4WireSpiTransportEEEEEE18WriteStringAlignedEPKcRK7FontDefNS_9RectangleENS_9AlignmentEb:0000000000000324 $t
     /tmp/ccZePa4k.s:3032   .text._ZN5daisy25OneBitGraphicsDisplayImplINS_11OledDisplayINS_13SSD130xDriverILj128ELj64ENS_24SSD130x4WireSpiTransportEEEEEE18WriteStringAlignedEPKcRK7FontDefNS_9RectangleENS_9AlignmentEb:00000000000003e4 $d
     /tmp/ccZePa4k.s:3040   .text._ZN5daisy11OledDisplayINS_13SSD130xDriverILj128ELj64ENS_24SSD130x4WireSpiTransportEEEE9DrawPixelEjjb:0000000000000000 $t
     /tmp/ccZePa4k.s:3047   .text._ZN5daisy11OledDisplayINS_13SSD130xDriverILj128ELj64ENS_24SSD130x4WireSpiTransportEEEE9DrawPixelEjjb:0000000000000000 _ZN5daisy11OledDisplayINS_13SSD130xDriverILj128ELj64ENS_24SSD130x4WireSpiTransportEEEE9DrawPixelEjjb
     /tmp/ccZePa4k.s:3124   .text._ZN5daisy25OneBitGraphicsDisplayImplINS_11OledDisplayINS_13SSD130xDriverILj128ELj64ENS_24SSD130x4WireSpiTransportEEEEEE8DrawLineEjjjjb:0000000000000000 $t
     /tmp/ccZePa4k.s:3131   .text._ZN5daisy25OneBitGraphicsDisplayImplINS_11OledDisplayINS_13SSD130xDriverILj128ELj64ENS_24SSD130x4WireSpiTransportEEEEEE8DrawLineEjjjjb:0000000000000000 _ZN5daisy25OneBitGraphicsDisplayImplINS_11OledDisplayINS_13SSD130xDriverILj128ELj64ENS_24SSD130x4WireSpiTransportEEEEEE8DrawLineEjjjjb
     /tmp/ccZePa4k.s:3416   .text._ZN5daisy25OneBitGraphicsDisplayImplINS_11OledDisplayINS_13SSD130xDriverILj128ELj64ENS_24SSD130x4WireSpiTransportEEEEEE7DrawArcEjjjiib:0000000000000000 $t
     /tmp/ccZePa4k.s:3423   .text._ZN5daisy25OneBitGraphicsDisplayImplINS_11OledDisplayINS_13SSD130xDriverILj128ELj64ENS_24SSD130x4WireSpiTransportEEEEEE7DrawArcEjjjiib:0000000000000000 _ZN5daisy25OneBitGraphicsDisplayImplINS_11OledDisplayINS_13SSD130xDriverILj128ELj64ENS_24SSD130x4WireSpiTransportEEEEEE7DrawArcEjjjiib
     /tmp/ccZePa4k.s:4108   .text._ZN5daisy25OneBitGraphicsDisplayImplINS_11OledDisplayINS_13SSD130xDriverILj128ELj64ENS_24SSD130x4WireSpiTransportEEEEEE7DrawArcEjjjiib:0000000000000368 $d
     /tmp/ccZePa4k.s:4122   .text._ZN5daisy25OneBitGraphicsDisplayImplINS_11OledDisplayINS_13SSD130xDriverILj128ELj64ENS_24SSD130x4WireSpiTransportEEEEEE7DrawArcEjjjiib:0000000000000378 $t
     /tmp/ccZePa4k.s:4348   .text._ZN5daisy25OneBitGraphicsDisplayImplINS_11OledDisplayINS_13SSD130xDriverILj128ELj64ENS_24SSD130x4WireSpiTransportEEEEEE8DrawRectEjjjjbb:0000000000000000 $t
     /tmp/ccZePa4k.s:4355   .text._ZN5daisy25OneBitGraphicsDisplayImplINS_11OledDisplayINS_13SSD130xDriverILj128ELj64ENS_24SSD130x4WireSpiTransportEEEEEE8DrawRectEjjjjbb:0000000000000000 _ZN5daisy25OneBitGraphicsDisplayImplINS_11OledDisplayINS_13SSD130xDriverILj128ELj64ENS_24SSD130x4WireSpiTransportEEEEEE8DrawRectEjjjjbb
     /tmp/ccZePa4k.s:5465   .text._ZN5daisy13SSD130xDriverILj128ELj64ENS_24SSD130x4WireSpiTransportEE4InitENS2_6ConfigE:0000000000000000 $t
     /tmp/ccZePa4k.s:5472   .text._ZN5daisy13SSD130xDriverILj128ELj64ENS_24SSD130x4WireSpiTransportEE4InitENS2_6ConfigE:0000000000000000 _ZN5daisy13SSD130xDriverILj128ELj64ENS_24SSD130x4WireSpiTransportEE4InitENS2_6ConfigE
     /tmp/ccZePa4k.s:6244   .text.startup.main:0000000000000000 $t
     /tmp/ccZePa4k.s:6251   .text.startup.main:0000000000000000 main
     /tmp/ccZePa4k.s:6433   .text.startup.main:0000000000000098 $d
     /tmp/ccZePa4k.s:6441   .text.startup._GLOBAL__sub_I_hw:0000000000000000 $t
     /tmp/ccZePa4k.s:6447   .text.startup._GLOBAL__sub_I_hw:0000000000000000 _GLOBAL__sub_I_hw
     /tmp/ccZePa4k.s:6623   .text.startup._GLOBAL__sub_I_hw:0000000000000028 $d
     /tmp/ccZePa4k.s:6642   .rodata._ZTVN5daisy11OledDisplayINS_13SSD130xDriverILj128ELj64ENS_24SSD130x4WireSpiTransportEEEEE:0000000000000000 _ZTVN5daisy11OledDisplayINS_13SSD130xDriverILj128ELj64ENS_24SSD130x4WireSpiTransportEEEEE
     /tmp/ccZePa4k.s:6635   .init_array:0000000000000000 $d
     /tmp/ccZePa4k.s:6639   .rodata._ZTVN5daisy11OledDisplayINS_13SSD130xDriverILj128ELj64ENS_24SSD130x4WireSpiTransportEEEEE:0000000000000000 $d
     /tmp/ccZePa4k.s:6680   .bss.menu:0000000000000000 menu
     /tmp/ccZePa4k.s:6666   .bss.display:0000000000000000 display
     /tmp/ccZePa4k.s:6673   .bss.hw:0000000000000000 hw
     /tmp/ccZePa4k.s:6662   .bss.display:0000000000000000 $d
     /tmp/ccZePa4k.s:6669   .bss.hw:0000000000000000 $d
ARM GAS  /tmp/ccZePa4k.s 			page 184


     /tmp/ccZePa4k.s:6676   .bss.menu:0000000000000000 $d
                           .group:0000000000000000 _ZN5daisy9DaisySeedD5Ev
                           .group:0000000000000000 _ZN5daisy11OledDisplayINS_13SSD130xDriverILj128ELj64ENS_24SSD130x4WireSpiTransportEEEED5Ev

UNDEFINED SYMBOLS
memset
_ZdlPvj
dsy_gpio_write
_ZN5daisy9SpiHandle16BlockingTransmitEPhjm
cosf
sinf
dsy_gpio_init
_ZN5daisy9SpiHandle4InitERKNS0_6ConfigE
_ZN5daisy6System5DelayEm
_ZN5daisy9DaisySeed4InitEb
_ZN5daisy9DaisySeed6GetPinEh
_ZN4Menu8drawMenuEv
__aeabi_atexit
__dso_handle
